

Microchip MPLAB XC8 Assembler V2.32 build 20210201212658 
                                                                                               Sat Oct 09 21:07:46 2021

Microchip MPLAB XC8 C Compiler v2.32 (Free license) build 20210201212658 Og1 
     1                           	processor	18F4550
     2                           	fnconf	rparam,??,?,0
     3                           	pagewidth 120
     4                           	opt	flic
     5                           	psect	idataBANK0,global,class=CODE,delta=1,noexec
     6                           	psect	smallconst,global,reloc=2,class=SMALLCONST,delta=1,noexec
     7                           	psect	cinit,global,reloc=2,class=CODE,delta=1
     8                           	psect	bssBANK0,global,class=BANK0,space=1,delta=1,lowdata,noexec
     9                           	psect	dataBANK0,global,class=BANK0,space=1,delta=1,lowdata,noexec
    10                           	psect	cstackBANK0,global,class=BANK0,space=1,delta=1,lowdata,noexec
    11                           	psect	cstackCOMRAM,global,class=COMRAM,space=1,delta=1,lowdata,noexec
    12                           	psect	text0,global,reloc=2,class=CODE,delta=1
    13                           	psect	text1,global,reloc=2,class=CODE,delta=1,group=3
    14                           	psect	text2,global,reloc=2,class=CODE,delta=1,group=1
    15                           	psect	text3,global,reloc=2,class=CODE,delta=1,group=1
    16                           	psect	text4,global,reloc=2,class=CODE,delta=1,group=1
    17                           	psect	text5,global,reloc=2,class=CODE,delta=1,group=1
    18                           	psect	text6,global,reloc=2,class=CODE,delta=1,group=3
    19                           	psect	text7,global,reloc=2,class=CODE,delta=1,group=3
    20                           	psect	text8,global,reloc=2,class=CODE,delta=1,group=3
    21                           	psect	text9,global,reloc=2,class=CODE,delta=1,group=3
    22                           	psect	text10,global,reloc=2,class=CODE,delta=1,group=3
    23                           	psect	text11,global,reloc=2,class=CODE,delta=1,group=2
    24                           	psect	text12,global,reloc=2,class=CODE,delta=1,group=2
    25                           	psect	text13,global,reloc=2,class=CODE,delta=1
    26                           	psect	text14,global,reloc=2,class=CODE,delta=1,group=2
    27                           	psect	text15,global,reloc=2,class=CODE,delta=1
    28                           	psect	text16,global,reloc=2,class=CODE,delta=1
    29                           	psect	text17,global,reloc=2,class=CODE,delta=1
    30                           	psect	text18,global,reloc=2,class=CODE,delta=1
    31                           	psect	text19,global,reloc=2,class=CODE,delta=1
    32                           	psect	text20,global,reloc=2,class=CODE,delta=1
    33                           	psect	text21,global,reloc=2,class=CODE,delta=1
    34                           	psect	text22,global,reloc=2,class=CODE,delta=1
    35                           	psect	text23,global,reloc=2,class=CODE,delta=1
    36                           	psect	text24,global,reloc=2,class=CODE,delta=1
    37                           	psect	text25,global,reloc=2,class=CODE,delta=1
    38                           	psect	text26,global,reloc=2,class=CODE,delta=1
    39                           	psect	text27,global,reloc=2,class=CODE,delta=1
    40                           	psect	text28,global,reloc=2,class=CODE,delta=1
    41                           	psect	text29,global,reloc=2,class=CODE,delta=1
    42                           	psect	text30,global,reloc=2,class=CODE,delta=1
    43                           	psect	text31,global,reloc=2,class=CODE,delta=1
    44                           	psect	intsave_regs,global,class=BIGRAM,space=1,delta=1,noexec
    45                           	psect	rparam,global,class=COMRAM,space=1,delta=1,noexec
    46                           	psect	idloc,global,abs,ovrld,class=IDLOC,space=5,delta=1,noexec
    47                           	psect	config,global,abs,ovrld,class=CONFIG,space=4,delta=1,noexec
    48  0000                     
    49                           ; Version 2.20
    50                           ; Generated 12/02/2020 GMT
    51                           ; 
    52                           ; Copyright © 2020, Microchip Technology Inc. and its subsidiaries ("Microchip")
    53                           ; All rights reserved.
    54                           ; 
    55                           ; This software is developed by Microchip Technology Inc. and its subsidiaries ("Microch
      +                          ip").
    56                           ; 
    57                           ; Redistribution and use in source and binary forms, with or without modification, are
    58                           ; permitted provided that the following conditions are met:
    59                           ; 
    60                           ;     1. Redistributions of source code must retain the above copyright notice, this lis
      +                          t of
    61                           ;        conditions and the following disclaimer.
    62                           ; 
    63                           ;     2. Redistributions in binary form must reproduce the above copyright notice, this 
      +                          list
    64                           ;        of conditions and the following disclaimer in the documentation and/or other
    65                           ;        materials provided with the distribution.
    66                           ; 
    67                           ;     3. Microchip's name may not be used to endorse or promote products derived from th
      +                          is
    68                           ;        software without specific prior written permission.
    69                           ; 
    70                           ; THIS SOFTWARE IS PROVIDED BY MICROCHIP "AS IS" AND ANY EXPRESS OR IMPLIED WARRANTIES,
    71                           ; INCLUDING, BUT NOT LIMITED TO, THE IMPLIED WARRANTIES OF MERCHANTABILITY AND FITNESS F
      +                          OR
    72                           ; PURPOSE ARE DISCLAIMED.  IN NO EVENT SHALL MICROCHIP BE LIABLE FOR ANY DIRECT, INDIREC
      +                          T,
    73                           ; INCIDENTAL, SPECIAL, EXEMPLARY, OR CONSEQUENTIAL DAMAGES (INCLUDING BUT NOT LIMITED TO
    74                           ; PROCUREMENT OF SUBSTITUTE GOODS OR SERVICES; LOSS OF USE, DATA OR PROFITS; OR BUSINESS
    75                           ; INTERRUPTION) HOWSOEVER CAUSED AND ON ANY THEORY OF LIABILITY, WHETHER IN CONTRACT, ST
      +                          RICT
    76                           ; LIABILITY, OR TORT (INCLUDING NEGLIGENCE OR OTHERWISE) ARISING IN ANY WAY OUT OF THE U
      +                          SE OF
    77                           ; THIS SOFTWARE, EVEN IF ADVISED OF THE POSSIBILITY OF SUCH DAMAGE.
    78                           ; 
    79                           ; 
    80                           ; Code-generator required, PIC18F4550 Definitions
    81                           ; 
    82                           ; SFR Addresses
    83  0000                     
    84                           	psect	idataBANK0
    85  001CDE                     __pidataBANK0:
    86                           	callstack 0
    87                           
    88                           ;initializer for _keypad
    89  001CDE  31                 	db	49
    90  001CDF  32                 	db	50
    91  001CE0  33                 	db	51
    92  001CE1  2F                 	db	47
    93  001CE2  34                 	db	52
    94  001CE3  35                 	db	53
    95  001CE4  36                 	db	54
    96  001CE5  2A                 	db	42
    97  001CE6  37                 	db	55
    98  001CE7  38                 	db	56
    99  001CE8  39                 	db	57
   100  001CE9  2D                 	db	45
   101  001CEA  2A                 	db	42
   102  001CEB  30                 	db	48
   103  001CEC  23                 	db	35
   104  001CED  2B                 	db	43
   105                           
   106                           ;initializer for keypad_getkey@F3168
   107  001CEE  31                 	db	49
   108  001CEF  32                 	db	50
   109  001CF0  33                 	db	51
   110  001CF1  41                 	db	65
   111  001CF2  34                 	db	52
   112  001CF3  35                 	db	53
   113  001CF4  36                 	db	54
   114  001CF5  42                 	db	66
   115  001CF6  37                 	db	55
   116  001CF7  38                 	db	56
   117  001CF8  39                 	db	57
   118  001CF9  43                 	db	67
   119  001CFA  2A                 	db	42
   120  001CFB  30                 	db	48
   121  001CFC  23                 	db	35
   122  001CFD  44                 	db	68
   123  0000                     _TRISAbits	set	3986
   124  0000                     _PORTAbits	set	3968
   125  0000                     _PORTB	set	3969
   126  0000                     _LATB	set	3978
   127  0000                     _TRISB	set	3987
   128  0000                     _PORTDbits	set	3971
   129  0000                     _LATDbits	set	3980
   130  0000                     _PORTD	set	3971
   131  0000                     _INTCON2bits	set	4081
   132  0000                     _LATD	set	3980
   133  0000                     _TRISC	set	3988
   134  0000                     _ADCON1	set	4033
   135  0000                     _OSCCON	set	4051
   136  0000                     _TRISD	set	3989
   137  0000                     _TRISE	set	3990
   138  0000                     _LATA0	set	31816
   139  0000                     _LATD1	set	31841
   140  0000                     _LATD0	set	31840
   141  0000                     _LATC6	set	31838
   142  0000                     _LATC2	set	31834
   143  0000                     _LATC1	set	31833
   144  0000                     _LATC0	set	31832
   145  0000                     _LATE2	set	31850
   146  0000                     _LATE1	set	31849
   147  0000                     _LATE0	set	31848
   148  0000                     _RBPU	set	32655
   149                           
   150                           	psect	smallconst
   151  000800                     __psmallconst:
   152                           	callstack 0
   153  000800  00                 	db	0
   154  000801                     STR_1:
   155  000801  54                 	db	84	;'T'
   156  000802  65                 	db	101	;'e'
   157  000803  6D                 	db	109	;'m'
   158  000804  70                 	db	112	;'p'
   159  000805  2E                 	db	46
   160  000806  20                 	db	32
   161  000807  41                 	db	65	;'A'
   162  000808  64                 	db	100	;'d'
   163  000809  65                 	db	101	;'e'
   164  00080A  63                 	db	99	;'c'
   165  00080B  75                 	db	117	;'u'
   166  00080C  61                 	db	97	;'a'
   167  00080D  64                 	db	100	;'d'
   168  00080E  61                 	db	97	;'a'
   169  00080F  00                 	db	0
   170  000810                     STR_2:
   171  000810  48                 	db	72	;'H'
   172  000811  75                 	db	117	;'u'
   173  000812  6D                 	db	109	;'m'
   174  000813  2E                 	db	46
   175  000814  20                 	db	32
   176  000815  41                 	db	65	;'A'
   177  000816  64                 	db	100	;'d'
   178  000817  65                 	db	101	;'e'
   179  000818  63                 	db	99	;'c'
   180  000819  75                 	db	117	;'u'
   181  00081A  61                 	db	97	;'a'
   182  00081B  64                 	db	100	;'d'
   183  00081C  61                 	db	97	;'a'
   184  00081D  00                 	db	0
   185  00081E                     STR_8:
   186  00081E  43                 	db	67	;'C'
   187  00081F  20                 	db	32
   188  000820  54                 	db	84	;'T'
   189  000821  65                 	db	101	;'e'
   190  000822  6D                 	db	109	;'m'
   191  000823  70                 	db	112	;'p'
   192  000824  2E                 	db	46
   193  000825  00                 	db	0
   194  000826                     STR_5:
   195  000826  20                 	db	32
   196  000827  20                 	db	32
   197  000828  48                 	db	72	;'H'
   198  000829  75                 	db	117	;'u'
   199  00082A  6D                 	db	109	;'m'
   200  00082B  2E                 	db	46
   201  00082C  00                 	db	0
   202  00082D                     STR_4:
   203  00082D  2E                 	db	46
   204  00082E  25                 	db	37
   205  00082F  64                 	db	100	;'d'
   206  000830  00                 	db	0
   207  000831  00                 	db	0	; dummy byte at the end
   208  0000                     
   209                           ; #config settings
   210                           
   211                           	psect	cinit
   212  001BC2                     __pcinit:
   213                           	callstack 0
   214  001BC2                     start_initialization:
   215                           	callstack 0
   216  001BC2                     __initialization:
   217                           	callstack 0
   218                           
   219                           ; Initialize objects allocated to BANK0 (32 bytes)
   220                           ; load TBLPTR registers with __pidataBANK0
   221  001BC2  0EDE               	movlw	low __pidataBANK0
   222  001BC4  6EF6               	movwf	tblptrl,c
   223  001BC6  0E1C               	movlw	high __pidataBANK0
   224  001BC8  6EF7               	movwf	tblptrh,c
   225  001BCA  0E00               	movlw	low (__pidataBANK0 shr (0+16))
   226  001BCC  6EF8               	movwf	tblptru,c
   227  001BCE  EE00  F08B         	lfsr	0,__pdataBANK0
   228  001BD2  EE10 F020          	lfsr	1,32
   229  001BD6                     copy_data0:
   230  001BD6  0009               	tblrd		*+
   231  001BD8  CFF5 FFEE          	movff	tablat,postinc0
   232  001BDC  50E5               	movf	postdec1,w,c
   233  001BDE  50E1               	movf	fsr1l,w,c
   234  001BE0  E1FA               	bnz	copy_data0
   235                           
   236                           ; Clear objects allocated to BANK0 (43 bytes)
   237  001BE2  EE00  F060         	lfsr	0,__pbssBANK0
   238  001BE6  0E2B               	movlw	43
   239  001BE8                     clear_0:
   240  001BE8  6AEE               	clrf	postinc0,c
   241  001BEA  06E8               	decf	wreg,f,c
   242  001BEC  E1FD               	bnz	clear_0
   243  001BEE                     end_of_initialization:
   244                           	callstack 0
   245  001BEE                     __end_of__initialization:
   246                           	callstack 0
   247  001BEE  0E00               	movlw	low (__Lmediumconst shr (0+16))
   248  001BF0  6EF8               	movwf	tblptru,c
   249  001BF2  0100               	movlb	0
   250  001BF4  EF8A  F005         	goto	_main	;jump to C main() function
   251                           
   252                           	psect	bssBANK0
   253  000060                     __pbssBANK0:
   254                           	callstack 0
   255  000060                     _nout:
   256                           	callstack 0
   257  000060                     	ds	2
   258  000062                     _width:
   259                           	callstack 0
   260  000062                     	ds	2
   261  000064                     _prec:
   262                           	callstack 0
   263  000064                     	ds	2
   264  000066                     _flags:
   265                           	callstack 0
   266  000066                     	ds	2
   267  000068                     _temp_col:
   268                           	callstack 0
   269  000068                     	ds	1
   270  000069                     _rowloc:
   271                           	callstack 0
   272  000069                     	ds	1
   273  00006A                     _col_loc:
   274                           	callstack 0
   275  00006A                     	ds	1
   276  00006B                     _dbuf:
   277                           	callstack 0
   278  00006B                     	ds	32
   279                           
   280                           	psect	dataBANK0
   281  00008B                     __pdataBANK0:
   282                           	callstack 0
   283  00008B                     _keypad:
   284                           	callstack 0
   285  00008B                     	ds	16
   286  00009B                     keypad_getkey@F3168:
   287                           	callstack 0
   288  00009B                     	ds	16
   289                           
   290                           	psect	cstackBANK0
   291  0000AB                     __pcstackBANK0:
   292                           	callstack 0
   293  0000AB                     sprintf@ap:
   294                           	callstack 0
   295                           
   296                           ; 2 bytes @ 0x0
   297  0000AB                     	ds	2
   298  0000AD                     sprintf@f:
   299                           	callstack 0
   300                           
   301                           ; 6 bytes @ 0x2
   302  0000AD                     	ds	6
   303  0000B3                     main@Cadena:
   304                           	callstack 0
   305                           
   306                           ; 10 bytes @ 0x8
   307  0000B3                     	ds	10
   308  0000BD                     main@Temperatura:
   309                           	callstack 0
   310                           
   311                           ; 2 bytes @ 0x12
   312  0000BD                     	ds	2
   313  0000BF                     main@Humedad:
   314                           	callstack 0
   315                           
   316                           ; 2 bytes @ 0x14
   317  0000BF                     	ds	2
   318  0000C1                     main@indice:
   319                           	callstack 0
   320                           
   321                           ; 2 bytes @ 0x16
   322  0000C1                     	ds	2
   323  0000C3                     main@TemperaturaAdecuada:
   324                           	callstack 0
   325                           
   326                           ; 2 bytes @ 0x18
   327  0000C3                     	ds	2
   328  0000C5                     main@HumedadAdecuada:
   329                           	callstack 0
   330                           
   331                           ; 2 bytes @ 0x1A
   332  0000C5                     	ds	2
   333  0000C7                     main@bandera:
   334                           	callstack 0
   335                           
   336                           ; 1 bytes @ 0x1C
   337  0000C7                     	ds	1
   338  0000C8                     main@Datos:
   339                           	callstack 0
   340                           
   341                           ; 2 bytes @ 0x1D
   342  0000C8                     	ds	2
   343                           
   344                           	psect	cstackCOMRAM
   345  000001                     __pcstackCOMRAM:
   346                           	callstack 0
   347  000001                     ??_LCD_Char:
   348  000001                     ??_LCD_Command:
   349  000001                     ??_keyfind:
   350  000001                     ??_DHT11_Start:
   351  000001                     ?_strlen:
   352                           	callstack 0
   353  000001                     ?___wmul:
   354                           	callstack 0
   355  000001                     ?___aodiv:
   356                           	callstack 0
   357  000001                     ?___aomod:
   358                           	callstack 0
   359  000001                     PrenderLed@HumedadAdecuada:
   360                           	callstack 0
   361  000001                     DHT11_ReadData@i:
   362                           	callstack 0
   363  000001                     ControlHumedadAspersor@HumedadActual:
   364                           	callstack 0
   365  000001                     ControlTemperaturaVentilador@TempActual:
   366                           	callstack 0
   367  000001                     ___wmul@multiplier:
   368                           	callstack 0
   369  000001                     fputc@c:
   370                           	callstack 0
   371  000001                     strlen@s:
   372                           	callstack 0
   373  000001                     ___aodiv@dividend:
   374                           	callstack 0
   375  000001                     ___aomod@dividend:
   376                           	callstack 0
   377                           
   378                           ; 8 bytes @ 0x0
   379  000001                     	ds	1
   380  000002                     PrenderLed@TemperaturaAdecuada:
   381                           	callstack 0
   382  000002                     LCD_Command@cmd:
   383                           	callstack 0
   384  000002                     LCD_Char@dat:
   385                           	callstack 0
   386  000002                     DHT11_ReadData@data:
   387                           	callstack 0
   388                           
   389                           ; 1 bytes @ 0x1
   390  000002                     	ds	1
   391  000003                     ??_LCD_Init:
   392  000003                     ??_LCD_Clear:
   393  000003                     CompararTemperatura@TempActual:
   394                           	callstack 0
   395  000003                     DatosSensorTH@Datos:
   396                           	callstack 0
   397  000003                     ControlHumedadAspersor@HumedadDigitada:
   398                           	callstack 0
   399  000003                     ControlTemperaturaVentilador@TempDigitada:
   400                           	callstack 0
   401  000003                     LCD_String@msg:
   402                           	callstack 0
   403  000003                     ___wmul@multiplicand:
   404                           	callstack 0
   405  000003                     fputc@fp:
   406                           	callstack 0
   407  000003                     strlen@a:
   408                           	callstack 0
   409                           
   410                           ; 2 bytes @ 0x2
   411  000003                     	ds	2
   412  000005                     ??_ControlHumedadAspersor:
   413  000005                     ??_ControlTemperaturaVentilador:
   414  000005                     ??_fputc:
   415  000005                     DatosSensorTH@RH_Integral:
   416                           	callstack 0
   417  000005                     LCD_String_xy@pos:
   418                           	callstack 0
   419  000005                     CompararTemperatura@HumActual:
   420                           	callstack 0
   421  000005                     ___wmul@product:
   422                           	callstack 0
   423                           
   424                           ; 2 bytes @ 0x4
   425  000005                     	ds	1
   426  000006                     DatosSensorTH@T_Integral:
   427                           	callstack 0
   428  000006                     LCD_String_xy@msg:
   429                           	callstack 0
   430                           
   431                           ; 2 bytes @ 0x5
   432  000006                     	ds	1
   433  000007                     ?_TemperaturaDigitada:
   434                           	callstack 0
   435  000007                     TemperaturaDigitada@prmTemperatura:
   436                           	callstack 0
   437  000007                     CompararTemperatura@TempDigitada:
   438                           	callstack 0
   439                           
   440                           ; 2 bytes @ 0x6
   441  000007                     	ds	1
   442  000008                     LCD_String_xy@row:
   443                           	callstack 0
   444                           
   445                           ; 1 bytes @ 0x7
   446  000008                     	ds	1
   447  000009                     ??_TemperaturaDigitada:
   448  000009                     LCD_String_xy@location:
   449                           	callstack 0
   450  000009                     CompararTemperatura@HumDigitada:
   451                           	callstack 0
   452  000009                     ___aodiv@divisor:
   453                           	callstack 0
   454  000009                     ___aomod@divisor:
   455                           	callstack 0
   456                           
   457                           ; 8 bytes @ 0x8
   458  000009                     	ds	1
   459  00000A                     TemperaturaDigitada@Unidad:
   460                           	callstack 0
   461  00000A                     PedirDato@Etiqueta:
   462                           	callstack 0
   463  00000A                     fputs@s:
   464                           	callstack 0
   465                           
   466                           ; 2 bytes @ 0x9
   467  00000A                     	ds	1
   468  00000B                     ??_CompararTemperatura:
   469                           
   470                           ; 1 bytes @ 0xA
   471  00000B                     	ds	1
   472  00000C                     TemperaturaDigitada@Resultado:
   473                           	callstack 0
   474  00000C                     PedirDato@vecLlenar:
   475                           	callstack 0
   476  00000C                     fputs@fp:
   477                           	callstack 0
   478                           
   479                           ; 2 bytes @ 0xB
   480  00000C                     	ds	2
   481  00000E                     ??_PedirDato:
   482  00000E                     fputs@c:
   483                           	callstack 0
   484  00000E                     TemperaturaDigitada@Decena:
   485                           	callstack 0
   486                           
   487                           ; 2 bytes @ 0xD
   488  00000E                     	ds	1
   489  00000F                     fputs@i:
   490                           	callstack 0
   491                           
   492                           ; 2 bytes @ 0xE
   493  00000F                     	ds	1
   494  000010                     PedirDato@tecla:
   495                           	callstack 0
   496                           
   497                           ; 1 bytes @ 0xF
   498  000010                     	ds	1
   499  000011                     ?_pad:
   500                           	callstack 0
   501  000011                     ___aodiv@counter:
   502                           	callstack 0
   503  000011                     ___aomod@counter:
   504                           	callstack 0
   505  000011                     PedirDato@i:
   506                           	callstack 0
   507  000011                     pad@fp:
   508                           	callstack 0
   509                           
   510                           ; 2 bytes @ 0x10
   511  000011                     	ds	1
   512  000012                     CompararTemperatura@TemperaturaAdecuada:
   513                           	callstack 0
   514  000012                     ___aodiv@sign:
   515                           	callstack 0
   516  000012                     ___aomod@sign:
   517                           	callstack 0
   518                           
   519                           ; 1 bytes @ 0x11
   520  000012                     	ds	1
   521  000013                     ?_abs:
   522                           	callstack 0
   523  000013                     CompararTemperatura@HumedadAdecuada:
   524                           	callstack 0
   525  000013                     pad@buf:
   526                           	callstack 0
   527  000013                     abs@a:
   528                           	callstack 0
   529  000013                     ___aodiv@quotient:
   530                           	callstack 0
   531                           
   532                           ; 8 bytes @ 0x12
   533  000013                     	ds	2
   534  000015                     ??_abs:
   535  000015                     pad@p:
   536                           	callstack 0
   537                           
   538                           ; 2 bytes @ 0x14
   539  000015                     	ds	2
   540  000017                     ??_pad:
   541                           
   542                           ; 1 bytes @ 0x16
   543  000017                     	ds	1
   544  000018                     pad@i:
   545                           	callstack 0
   546                           
   547                           ; 2 bytes @ 0x17
   548  000018                     	ds	2
   549  00001A                     pad@w:
   550                           	callstack 0
   551                           
   552                           ; 2 bytes @ 0x19
   553  00001A                     	ds	2
   554  00001C                     ?_dtoa:
   555                           	callstack 0
   556  00001C                     dtoa@fp:
   557                           	callstack 0
   558                           
   559                           ; 2 bytes @ 0x1B
   560  00001C                     	ds	2
   561  00001E                     dtoa@d:
   562                           	callstack 0
   563                           
   564                           ; 8 bytes @ 0x1D
   565  00001E                     	ds	8
   566  000026                     ??_dtoa:
   567                           
   568                           ; 1 bytes @ 0x25
   569  000026                     	ds	8
   570  00002E                     _dtoa$1016:
   571                           	callstack 0
   572                           
   573                           ; 2 bytes @ 0x2D
   574  00002E                     	ds	2
   575  000030                     dtoa@p:
   576                           	callstack 0
   577                           
   578                           ; 2 bytes @ 0x2F
   579  000030                     	ds	2
   580  000032                     dtoa@w:
   581                           	callstack 0
   582                           
   583                           ; 2 bytes @ 0x31
   584  000032                     	ds	2
   585  000034                     dtoa@s:
   586                           	callstack 0
   587                           
   588                           ; 2 bytes @ 0x33
   589  000034                     	ds	2
   590  000036                     dtoa@n:
   591                           	callstack 0
   592                           
   593                           ; 8 bytes @ 0x35
   594  000036                     	ds	8
   595  00003E                     dtoa@i:
   596                           	callstack 0
   597                           
   598                           ; 2 bytes @ 0x3D
   599  00003E                     	ds	2
   600  000040                     ?_vfpfcnvrt:
   601                           	callstack 0
   602  000040                     vfpfcnvrt@fp:
   603                           	callstack 0
   604                           
   605                           ; 2 bytes @ 0x3F
   606  000040                     	ds	2
   607  000042                     vfpfcnvrt@fmt:
   608                           	callstack 0
   609                           
   610                           ; 2 bytes @ 0x41
   611  000042                     	ds	2
   612  000044                     vfpfcnvrt@ap:
   613                           	callstack 0
   614                           
   615                           ; 2 bytes @ 0x43
   616  000044                     	ds	2
   617  000046                     ??_vfpfcnvrt:
   618                           
   619                           ; 1 bytes @ 0x45
   620  000046                     	ds	2
   621  000048                     vfpfcnvrt@ll:
   622                           	callstack 0
   623                           
   624                           ; 8 bytes @ 0x47
   625  000048                     	ds	8
   626  000050                     ?_vfprintf:
   627                           	callstack 0
   628  000050                     vfprintf@fp:
   629                           	callstack 0
   630                           
   631                           ; 2 bytes @ 0x4F
   632  000050                     	ds	2
   633  000052                     vfprintf@fmt:
   634                           	callstack 0
   635                           
   636                           ; 2 bytes @ 0x51
   637  000052                     	ds	2
   638  000054                     vfprintf@ap:
   639                           	callstack 0
   640                           
   641                           ; 2 bytes @ 0x53
   642  000054                     	ds	2
   643  000056                     vfprintf@cfmt:
   644                           	callstack 0
   645                           
   646                           ; 2 bytes @ 0x55
   647  000056                     	ds	2
   648  000058                     ?_sprintf:
   649                           	callstack 0
   650  000058                     sprintf@s:
   651                           	callstack 0
   652                           
   653                           ; 2 bytes @ 0x57
   654  000058                     	ds	2
   655  00005A                     sprintf@fmt:
   656                           	callstack 0
   657                           
   658                           ; 2 bytes @ 0x59
   659  00005A                     	ds	4
   660  00005E                     ??_main:
   661                           
   662                           ; 1 bytes @ 0x5D
   663  00005E                     	ds	2
   664                           
   665 ;;
   666 ;;Main: autosize = 0, tempsize = 2, incstack = 0, save=0
   667 ;;
   668 ;; *************** function _main *****************
   669 ;; Defined at:
   670 ;;		line 27 in file "Main_Invernadero.c"
   671 ;; Parameters:    Size  Location     Type
   672 ;;		None
   673 ;; Auto vars:     Size  Location     Type
   674 ;;  Cadena         10    8[BANK0 ] unsigned char [10]
   675 ;;  Datos           2   29[BANK0 ] unsigned char [2]
   676 ;;  Humedad         2   20[BANK0 ] unsigned char [2]
   677 ;;  Temperatura     2   18[BANK0 ] unsigned char [2]
   678 ;;  HumedadAdecu    2   26[BANK0 ] int 
   679 ;;  TemperaturaA    2   24[BANK0 ] int 
   680 ;;  indice          2   22[BANK0 ] int 
   681 ;;  bandera         1   28[BANK0 ] _Bool 
   682 ;; Return value:  Size  Location     Type
   683 ;;                  1    wreg      void 
   684 ;; Registers used:
   685 ;;		wreg, fsr1l, fsr1h, fsr2l, fsr2h, status,2, status,0, tblptrl, tblptrh, tblptru, prodl, prodh, cstack
   686 ;; Tracked objects:
   687 ;;		On entry : 0/0
   688 ;;		On exit  : 0/0
   689 ;;		Unchanged: 0/0
   690 ;; Data sizes:     COMRAM   BANK0   BANK1   BANK2   BANK3   BANK4   BANK5   BANK6   BANK7
   691 ;;      Params:         0       0       0       0       0       0       0       0       0
   692 ;;      Locals:         0      23       0       0       0       0       0       0       0
   693 ;;      Temps:          2       0       0       0       0       0       0       0       0
   694 ;;      Totals:         2      23       0       0       0       0       0       0       0
   695 ;;Total ram usage:       25 bytes
   696 ;; Hardware stack levels required when called: 8
   697 ;; This function calls:
   698 ;;		_CompararTemperatura
   699 ;;		_ControlHumedadAspersor
   700 ;;		_ControlTemperaturaVentilador
   701 ;;		_DatosSensorTH
   702 ;;		_InicializarLeds
   703 ;;		_LCD_Char
   704 ;;		_LCD_Init
   705 ;;		_LCD_String
   706 ;;		_LCD_String_xy
   707 ;;		_PedirDato
   708 ;;		_TemperaturaDigitada
   709 ;;		_sprintf
   710 ;; This function is called by:
   711 ;;		Startup code after reset
   712 ;; This function uses a non-reentrant model
   713 ;;
   714                           
   715                           	psect	text0
   716  000B14                     __ptext0:
   717                           	callstack 0
   718  000B14                     _main:
   719                           	callstack 23
   720  000B14                     
   721                           ;Main_Invernadero.c: 30:     TRISE = 0;
   722  000B14  0E00               	movlw	0
   723  000B16  6E96               	movwf	150,c	;volatile
   724                           
   725                           ;Main_Invernadero.c: 31:     TRISD=0x00;
   726  000B18  0E00               	movlw	0
   727  000B1A  6E95               	movwf	149,c	;volatile
   728                           
   729                           ;Main_Invernadero.c: 32:     _Bool bandera = 0;
   730  000B1C  0E00               	movlw	0
   731  000B1E  0100               	movlb	0	; () banked
   732  000B20  6FC7               	movwf	main@bandera& (0+255),b
   733                           
   734                           ;Main_Invernadero.c: 33:     unsigned char Temperatura[2];;Main_Invernadero.c: 34:     u
      +                          nsigned char Humedad[2];;Main_Invernadero.c: 35:     char Datos[2];;Main_Invernadero.c: 
      +                          36:     char Cadena[10];;Main_Invernadero.c: 37:     int indice = 0;
   735  000B22  0E00               	movlw	0
   736  000B24  6FC2               	movwf	(main@indice+1)& (0+255),b
   737  000B26  0E00               	movlw	0
   738  000B28  6FC1               	movwf	main@indice& (0+255),b
   739                           
   740                           ;Main_Invernadero.c: 38:     int TemperaturaAdecuada=0;
   741  000B2A  0E00               	movlw	0
   742  000B2C  6FC4               	movwf	(main@TemperaturaAdecuada+1)& (0+255),b
   743  000B2E  0E00               	movlw	0
   744  000B30  6FC3               	movwf	main@TemperaturaAdecuada& (0+255),b
   745                           
   746                           ;Main_Invernadero.c: 39:     int HumedadAdecuada=0;
   747  000B32  0E00               	movlw	0
   748  000B34  6FC6               	movwf	(main@HumedadAdecuada+1)& (0+255),b
   749  000B36  0E00               	movlw	0
   750  000B38  6FC5               	movwf	main@HumedadAdecuada& (0+255),b
   751                           
   752                           ;Main_Invernadero.c: 42:     OSCCON = 0x72;
   753  000B3A  0E72               	movlw	114
   754  000B3C  6ED3               	movwf	211,c	;volatile
   755                           
   756                           ;Main_Invernadero.c: 44:     ADCON1=0x0F;
   757  000B3E  0E0F               	movlw	15
   758  000B40  6EC1               	movwf	193,c	;volatile
   759                           
   760                           ;Main_Invernadero.c: 45:     TRISC=0x00;
   761  000B42  0E00               	movlw	0
   762  000B44  6E94               	movwf	148,c	;volatile
   763  000B46                     
   764                           ; BSR set to: 0
   765                           ;Main_Invernadero.c: 46:      RBPU=0;
   766  000B46  9EF1               	bcf	4081,7,c	;volatile
   767  000B48                     
   768                           ; BSR set to: 0
   769                           ;Main_Invernadero.c: 47:      LCD_Init();
   770  000B48  EC17  F00E         	call	_LCD_Init	;wreg free
   771  000B4C                     
   772                           ;Main_Invernadero.c: 48:      InicializarLeds();
   773  000B4C  EC8F  F00E         	call	_InicializarLeds	;wreg free
   774  000B50                     l2511:
   775                           
   776                           ;Main_Invernadero.c: 50:      if(indice<2){
   777  000B50  0100               	movlb	0	; () banked
   778  000B52  BFC2               	btfsc	(main@indice+1)& (0+255),7,b
   779  000B54  EFB7  F005         	goto	u2120
   780  000B58  51C2               	movf	(main@indice+1)& (0+255),w,b
   781  000B5A  E107               	bnz	u2121
   782  000B5C  0E02               	movlw	2
   783  000B5E  5DC1               	subwf	main@indice& (0+255),w,b
   784  000B60  B0D8               	btfsc	status,0,c
   785  000B62  EFB5  F005         	goto	u2121
   786  000B66  EFB7  F005         	goto	u2120
   787  000B6A                     u2121:
   788  000B6A  EFDE  F005         	goto	l2521
   789  000B6E                     u2120:
   790  000B6E                     
   791                           ; BSR set to: 0
   792                           ;Main_Invernadero.c: 51:        PedirDato("Temp. Adecuada",Temperatura);
   793  000B6E  0E01               	movlw	low STR_1
   794  000B70  6E0A               	movwf	PedirDato@Etiqueta^0,c
   795  000B72  0E08               	movlw	high STR_1
   796  000B74  6E0B               	movwf	(PedirDato@Etiqueta+1)^0,c
   797  000B76  0EBD               	movlw	low main@Temperatura
   798  000B78  6E0C               	movwf	PedirDato@vecLlenar^0,c
   799  000B7A  0E00               	movlw	high main@Temperatura
   800  000B7C  6E0D               	movwf	(PedirDato@vecLlenar+1)^0,c
   801  000B7E  EC68  F00B         	call	_PedirDato	;wreg free
   802  000B82                     
   803                           ;Main_Invernadero.c: 52:        _delay((unsigned long)((100)*(8000000/4000.0)));
   804  000B82  0E02               	movlw	2
   805  000B84  6E5F               	movwf	(??_main+1)^0,c
   806  000B86  0E04               	movlw	4
   807  000B88  6E5E               	movwf	??_main^0,c
   808  000B8A  0EBA               	movlw	186
   809  000B8C                     u2377:
   810  000B8C  2EE8               	decfsz	wreg,f,c
   811  000B8E  D7FE               	bra	u2377
   812  000B90  2E5E               	decfsz	??_main^0,f,c
   813  000B92  D7FC               	bra	u2377
   814  000B94  2E5F               	decfsz	(??_main+1)^0,f,c
   815  000B96  D7FA               	bra	u2377
   816  000B98  D000               	nop2	
   817  000B9A                     
   818                           ;Main_Invernadero.c: 53:        PedirDato("Hum. Adecuada",Humedad);
   819  000B9A  0E10               	movlw	low STR_2
   820  000B9C  6E0A               	movwf	PedirDato@Etiqueta^0,c
   821  000B9E  0E08               	movlw	high STR_2
   822  000BA0  6E0B               	movwf	(PedirDato@Etiqueta+1)^0,c
   823  000BA2  0EBF               	movlw	low main@Humedad
   824  000BA4  6E0C               	movwf	PedirDato@vecLlenar^0,c
   825  000BA6  0E00               	movlw	high main@Humedad
   826  000BA8  6E0D               	movwf	(PedirDato@vecLlenar+1)^0,c
   827  000BAA  EC68  F00B         	call	_PedirDato	;wreg free
   828  000BAE                     
   829                           ;Main_Invernadero.c: 54:        indice = 2;
   830  000BAE  0E00               	movlw	0
   831  000BB0  0100               	movlb	0	; () banked
   832  000BB2  6FC2               	movwf	(main@indice+1)& (0+255),b
   833  000BB4  0E02               	movlw	2
   834  000BB6  6FC1               	movwf	main@indice& (0+255),b
   835                           
   836                           ;Main_Invernadero.c: 55:     }else{
   837  000BB8  EFFD  F005         	goto	l2527
   838  000BBC                     l2521:
   839                           
   840                           ; BSR set to: 0
   841                           ;Main_Invernadero.c: 56:         if(bandera==0){
   842  000BBC  51C7               	movf	main@bandera& (0+255),w,b
   843  000BBE  A4D8               	btfss	status,2,c
   844  000BC0  EFE4  F005         	goto	u2131
   845  000BC4  EFE6  F005         	goto	u2130
   846  000BC8                     u2131:
   847  000BC8  EFFA  F005         	goto	l2525
   848  000BCC                     u2130:
   849  000BCC                     
   850                           ; BSR set to: 0
   851                           ;Main_Invernadero.c: 57:          TemperaturaAdecuada = TemperaturaDigitada(Temperatura)
      +                          ;
   852  000BCC  0EBD               	movlw	low main@Temperatura
   853  000BCE  6E07               	movwf	TemperaturaDigitada@prmTemperatura^0,c
   854  000BD0  0E00               	movlw	high main@Temperatura
   855  000BD2  6E08               	movwf	(TemperaturaDigitada@prmTemperatura+1)^0,c
   856  000BD4  ECA7  F00B         	call	_TemperaturaDigitada	;wreg free
   857  000BD8  C007  F0C3         	movff	?_TemperaturaDigitada,main@TemperaturaAdecuada
   858  000BDC  C008  F0C4         	movff	?_TemperaturaDigitada+1,main@TemperaturaAdecuada+1
   859                           
   860                           ;Main_Invernadero.c: 58:          HumedadAdecuada = TemperaturaDigitada(Humedad);
   861  000BE0  0EBF               	movlw	low main@Humedad
   862  000BE2  6E07               	movwf	TemperaturaDigitada@prmTemperatura^0,c
   863  000BE4  0E00               	movlw	high main@Humedad
   864  000BE6  6E08               	movwf	(TemperaturaDigitada@prmTemperatura+1)^0,c
   865  000BE8  ECA7  F00B         	call	_TemperaturaDigitada	;wreg free
   866  000BEC  C007  F0C5         	movff	?_TemperaturaDigitada,main@HumedadAdecuada
   867  000BF0  C008  F0C6         	movff	?_TemperaturaDigitada+1,main@HumedadAdecuada+1
   868  000BF4                     l2525:
   869                           
   870                           ;Main_Invernadero.c: 60:        bandera=1;
   871  000BF4  0E01               	movlw	1
   872  000BF6  0100               	movlb	0	; () banked
   873  000BF8  6FC7               	movwf	main@bandera& (0+255),b
   874  000BFA                     l2527:
   875                           
   876                           ; BSR set to: 0
   877                           ;Main_Invernadero.c: 62:      if (bandera==1){
   878  000BFA  05C7               	decf	main@bandera& (0+255),w,b
   879  000BFC  A4D8               	btfss	status,2,c
   880  000BFE  EF03  F006         	goto	u2141
   881  000C02  EF05  F006         	goto	u2140
   882  000C06                     u2141:
   883  000C06  EFA8  F005         	goto	l2511
   884  000C0A                     u2140:
   885  000C0A                     
   886                           ; BSR set to: 0
   887                           ;Main_Invernadero.c: 63:         DatosSensorTH(Datos);
   888  000C0A  0EC8               	movlw	low main@Datos
   889  000C0C  6E03               	movwf	DatosSensorTH@Datos^0,c
   890  000C0E  0E00               	movlw	high main@Datos
   891  000C10  6E04               	movwf	(DatosSensorTH@Datos+1)^0,c
   892  000C12  ECC2  F00D         	call	_DatosSensorTH	;wreg free
   893                           
   894                           ;Main_Invernadero.c: 64:         CompararTemperatura(&Datos[0],&Datos[1],TemperaturaAdec
      +                          uada,HumedadAdecuada);
   895  000C16  0EC8               	movlw	low main@Datos
   896  000C18  6E03               	movwf	CompararTemperatura@TempActual^0,c
   897  000C1A  0E00               	movlw	high main@Datos
   898  000C1C  6E04               	movwf	(CompararTemperatura@TempActual+1)^0,c
   899  000C1E  0EC9               	movlw	low (main@Datos+1)
   900  000C20  6E05               	movwf	CompararTemperatura@HumActual^0,c
   901  000C22  0E00               	movlw	high (main@Datos+1)
   902  000C24  6E06               	movwf	(CompararTemperatura@HumActual+1)^0,c
   903  000C26  C0C3  F007         	movff	main@TemperaturaAdecuada,CompararTemperatura@TempDigitada
   904  000C2A  C0C4  F008         	movff	main@TemperaturaAdecuada+1,CompararTemperatura@TempDigitada+1
   905  000C2E  C0C5  F009         	movff	main@HumedadAdecuada,CompararTemperatura@HumDigitada
   906  000C32  C0C6  F00A         	movff	main@HumedadAdecuada+1,CompararTemperatura@HumDigitada+1
   907  000C36  EC16  F00A         	call	_CompararTemperatura	;wreg free
   908                           
   909                           ;Main_Invernadero.c: 65:         ControlHumedadAspersor(&Datos[1],HumedadAdecuada);
   910  000C3A  0EC9               	movlw	low (main@Datos+1)
   911  000C3C  6E01               	movwf	ControlHumedadAspersor@HumedadActual^0,c
   912  000C3E  0E00               	movlw	high (main@Datos+1)
   913  000C40  6E02               	movwf	(ControlHumedadAspersor@HumedadActual+1)^0,c
   914  000C42  C0C5  F003         	movff	main@HumedadAdecuada,ControlHumedadAspersor@HumedadDigitada
   915  000C46  C0C6  F004         	movff	main@HumedadAdecuada+1,ControlHumedadAspersor@HumedadDigitada+1
   916  000C4A  ECC4  F00C         	call	_ControlHumedadAspersor	;wreg free
   917                           
   918                           ;Main_Invernadero.c: 66:         ControlTemperaturaVentilador(&Datos[0],TemperaturaAdecu
      +                          ada);
   919  000C4E  0EC8               	movlw	low main@Datos
   920  000C50  6E01               	movwf	ControlTemperaturaVentilador@TempActual^0,c
   921  000C52  0E00               	movlw	high main@Datos
   922  000C54  6E02               	movwf	(ControlTemperaturaVentilador@TempActual+1)^0,c
   923  000C56  C0C3  F003         	movff	main@TemperaturaAdecuada,ControlTemperaturaVentilador@TempDigitada
   924  000C5A  C0C4  F004         	movff	main@TemperaturaAdecuada+1,ControlTemperaturaVentilador@TempDigitada+1
   925  000C5E  EC3D  F00D         	call	_ControlTemperaturaVentilador	;wreg free
   926  000C62                     
   927                           ;Main_Invernadero.c: 69:     sprintf(Cadena,"%d",Datos[1]);
   928  000C62  0EB3               	movlw	low main@Cadena
   929  000C64  6E58               	movwf	sprintf@s^0,c
   930  000C66  0E00               	movlw	high main@Cadena
   931  000C68  6E59               	movwf	(sprintf@s+1)^0,c
   932  000C6A  0E2E               	movlw	low (STR_4+1)
   933  000C6C  6E5A               	movwf	sprintf@fmt^0,c
   934  000C6E  0E08               	movlw	high (STR_4+1)
   935  000C70  6E5B               	movwf	(sprintf@fmt+1)^0,c
   936  000C72  C0C9  F05C         	movff	main@Datos+1,?_sprintf+4
   937  000C76  6A5D               	clrf	(?_sprintf+5)^0,c
   938  000C78  EC9B  F00C         	call	_sprintf	;wreg free
   939  000C7C                     
   940                           ;Main_Invernadero.c: 70:     LCD_String_xy(0,0,Cadena);
   941  000C7C  0E00               	movlw	0
   942  000C7E  6E05               	movwf	LCD_String_xy@pos^0,c
   943  000C80  0EB3               	movlw	low main@Cadena
   944  000C82  6E06               	movwf	LCD_String_xy@msg^0,c
   945  000C84  0E00               	movlw	high main@Cadena
   946  000C86  6E07               	movwf	(LCD_String_xy@msg+1)^0,c
   947  000C88  0E00               	movlw	0
   948  000C8A  ECA2  F00D         	call	_LCD_String_xy
   949  000C8E                     
   950                           ;Main_Invernadero.c: 71:     sprintf(Cadena,".%d",0);
   951  000C8E  0EB3               	movlw	low main@Cadena
   952  000C90  6E58               	movwf	sprintf@s^0,c
   953  000C92  0E00               	movlw	high main@Cadena
   954  000C94  6E59               	movwf	(sprintf@s+1)^0,c
   955  000C96  0E2D               	movlw	low STR_4
   956  000C98  6E5A               	movwf	sprintf@fmt^0,c
   957  000C9A  0E08               	movlw	high STR_4
   958  000C9C  6E5B               	movwf	(sprintf@fmt+1)^0,c
   959  000C9E  0E00               	movlw	0
   960  000CA0  6E5D               	movwf	(?_sprintf+5)^0,c
   961  000CA2  0E00               	movlw	0
   962  000CA4  6E5C               	movwf	(?_sprintf+4)^0,c
   963  000CA6  EC9B  F00C         	call	_sprintf	;wreg free
   964  000CAA                     
   965                           ;Main_Invernadero.c: 72:     LCD_Char('%');
   966  000CAA  0E25               	movlw	37
   967  000CAC  ECED  F00C         	call	_LCD_Char
   968                           
   969                           ;Main_Invernadero.c: 73:     sprintf(Cadena,"  Hum.");
   970  000CB0  0EB3               	movlw	low main@Cadena
   971  000CB2  6E58               	movwf	sprintf@s^0,c
   972  000CB4  0E00               	movlw	high main@Cadena
   973  000CB6  6E59               	movwf	(sprintf@s+1)^0,c
   974  000CB8  0E26               	movlw	low STR_5
   975  000CBA  6E5A               	movwf	sprintf@fmt^0,c
   976  000CBC  0E08               	movlw	high STR_5
   977  000CBE  6E5B               	movwf	(sprintf@fmt+1)^0,c
   978  000CC0  EC9B  F00C         	call	_sprintf	;wreg free
   979  000CC4                     
   980                           ;Main_Invernadero.c: 74:      LCD_String(Cadena);
   981  000CC4  0EB3               	movlw	low main@Cadena
   982  000CC6  6E03               	movwf	LCD_String@msg^0,c
   983  000CC8  0E00               	movlw	high main@Cadena
   984  000CCA  6E04               	movwf	(LCD_String@msg+1)^0,c
   985  000CCC  EC13  F00C         	call	_LCD_String	;wreg free
   986  000CD0                     
   987                           ;Main_Invernadero.c: 77:     sprintf(Cadena,"%d",Datos[0]);
   988  000CD0  0EB3               	movlw	low main@Cadena
   989  000CD2  6E58               	movwf	sprintf@s^0,c
   990  000CD4  0E00               	movlw	high main@Cadena
   991  000CD6  6E59               	movwf	(sprintf@s+1)^0,c
   992  000CD8  0E2E               	movlw	low (STR_4+1)
   993  000CDA  6E5A               	movwf	sprintf@fmt^0,c
   994  000CDC  0E08               	movlw	high (STR_4+1)
   995  000CDE  6E5B               	movwf	(sprintf@fmt+1)^0,c
   996  000CE0  C0C8  F05C         	movff	main@Datos,?_sprintf+4
   997  000CE4  6A5D               	clrf	(?_sprintf+5)^0,c
   998  000CE6  EC9B  F00C         	call	_sprintf	;wreg free
   999                           
  1000                           ;Main_Invernadero.c: 78:     LCD_String_xy(2,0,Cadena);
  1001  000CEA  0E00               	movlw	0
  1002  000CEC  6E05               	movwf	LCD_String_xy@pos^0,c
  1003  000CEE  0EB3               	movlw	low main@Cadena
  1004  000CF0  6E06               	movwf	LCD_String_xy@msg^0,c
  1005  000CF2  0E00               	movlw	high main@Cadena
  1006  000CF4  6E07               	movwf	(LCD_String_xy@msg+1)^0,c
  1007  000CF6  0E02               	movlw	2
  1008  000CF8  ECA2  F00D         	call	_LCD_String_xy
  1009  000CFC                     
  1010                           ;Main_Invernadero.c: 79:     sprintf(Cadena,".%d",0);
  1011  000CFC  0EB3               	movlw	low main@Cadena
  1012  000CFE  6E58               	movwf	sprintf@s^0,c
  1013  000D00  0E00               	movlw	high main@Cadena
  1014  000D02  6E59               	movwf	(sprintf@s+1)^0,c
  1015  000D04  0E2D               	movlw	low STR_4
  1016  000D06  6E5A               	movwf	sprintf@fmt^0,c
  1017  000D08  0E08               	movlw	high STR_4
  1018  000D0A  6E5B               	movwf	(sprintf@fmt+1)^0,c
  1019  000D0C  0E00               	movlw	0
  1020  000D0E  6E5D               	movwf	(?_sprintf+5)^0,c
  1021  000D10  0E00               	movlw	0
  1022  000D12  6E5C               	movwf	(?_sprintf+4)^0,c
  1023  000D14  EC9B  F00C         	call	_sprintf	;wreg free
  1024  000D18                     
  1025                           ;Main_Invernadero.c: 80:     LCD_Char(0xdf);
  1026  000D18  0EDF               	movlw	223
  1027  000D1A  ECED  F00C         	call	_LCD_Char
  1028  000D1E                     
  1029                           ;Main_Invernadero.c: 81:     sprintf(Cadena,"C Temp.");
  1030  000D1E  0EB3               	movlw	low main@Cadena
  1031  000D20  6E58               	movwf	sprintf@s^0,c
  1032  000D22  0E00               	movlw	high main@Cadena
  1033  000D24  6E59               	movwf	(sprintf@s+1)^0,c
  1034  000D26  0E1E               	movlw	low STR_8
  1035  000D28  6E5A               	movwf	sprintf@fmt^0,c
  1036  000D2A  0E08               	movlw	high STR_8
  1037  000D2C  6E5B               	movwf	(sprintf@fmt+1)^0,c
  1038  000D2E  EC9B  F00C         	call	_sprintf	;wreg free
  1039  000D32                     
  1040                           ;Main_Invernadero.c: 82:     LCD_String(Cadena);
  1041  000D32  0EB3               	movlw	low main@Cadena
  1042  000D34  6E03               	movwf	LCD_String@msg^0,c
  1043  000D36  0E00               	movlw	high main@Cadena
  1044  000D38  6E04               	movwf	(LCD_String@msg+1)^0,c
  1045  000D3A  EC13  F00C         	call	_LCD_String	;wreg free
  1046  000D3E                     
  1047                           ;Main_Invernadero.c: 84:        _delay((unsigned long)((500)*(8000000/4000.0)));
  1048  000D3E  0E06               	movlw	6
  1049  000D40  6E5F               	movwf	(??_main+1)^0,c
  1050  000D42  0E13               	movlw	19
  1051  000D44  6E5E               	movwf	??_main^0,c
  1052  000D46  0EAE               	movlw	174
  1053  000D48                     u2387:
  1054  000D48  2EE8               	decfsz	wreg,f,c
  1055  000D4A  D7FE               	bra	u2387
  1056  000D4C  2E5E               	decfsz	??_main^0,f,c
  1057  000D4E  D7FC               	bra	u2387
  1058  000D50  2E5F               	decfsz	(??_main+1)^0,f,c
  1059  000D52  D7FA               	bra	u2387
  1060  000D54  EFA8  F005         	goto	l2511
  1061  000D58  EF00  F000         	goto	start
  1062  000D5C                     __end_of_main:
  1063                           	callstack 0
  1064                           
  1065 ;; *************** function _sprintf *****************
  1066 ;; Defined at:
  1067 ;;		line 9 in file "D:\XC8 compilador para el MPLAB\pic\sources\c99\common\nf_sprintf.c"
  1068 ;; Parameters:    Size  Location     Type
  1069 ;;  s               2   87[COMRAM] PTR unsigned char 
  1070 ;;		 -> main@Cadena(10), 
  1071 ;;  fmt             2   89[COMRAM] PTR const unsigned char 
  1072 ;;		 -> STR_8(8), STR_7(4), STR_6(3), STR_5(7), 
  1073 ;;		 -> STR_4(4), STR_3(3), 
  1074 ;; Auto vars:     Size  Location     Type
  1075 ;;  f               6    2[BANK0 ] struct _IO_FILE
  1076 ;;  ap              2    0[BANK0 ] PTR void [1]
  1077 ;;		 -> ?_sprintf(2), 
  1078 ;;  ret             2    0        int 
  1079 ;; Return value:  Size  Location     Type
  1080 ;;                  2   87[COMRAM] int 
  1081 ;; Registers used:
  1082 ;;		wreg, fsr1l, fsr1h, fsr2l, fsr2h, status,2, status,0, tblptrl, tblptrh, tblptru, cstack
  1083 ;; Tracked objects:
  1084 ;;		On entry : 0/0
  1085 ;;		On exit  : 0/0
  1086 ;;		Unchanged: 0/0
  1087 ;; Data sizes:     COMRAM   BANK0   BANK1   BANK2   BANK3   BANK4   BANK5   BANK6   BANK7
  1088 ;;      Params:         6       0       0       0       0       0       0       0       0
  1089 ;;      Locals:         0       8       0       0       0       0       0       0       0
  1090 ;;      Temps:          0       0       0       0       0       0       0       0       0
  1091 ;;      Totals:         6       8       0       0       0       0       0       0       0
  1092 ;;Total ram usage:       14 bytes
  1093 ;; Hardware stack levels used: 1
  1094 ;; Hardware stack levels required when called: 7
  1095 ;; This function calls:
  1096 ;;		_vfprintf
  1097 ;; This function is called by:
  1098 ;;		_main
  1099 ;; This function uses a non-reentrant model
  1100 ;;
  1101                           
  1102                           	psect	text1
  1103  001936                     __ptext1:
  1104                           	callstack 0
  1105  001936                     _sprintf:
  1106                           	callstack 23
  1107  001936  0E5C               	movlw	low (?_sprintf+4)
  1108  001938  0100               	movlb	0	; () banked
  1109  00193A  6FAB               	movwf	sprintf@ap& (0+255),b
  1110  00193C  0E00               	movlw	high (?_sprintf+4)
  1111  00193E  6FAC               	movwf	(sprintf@ap+1)& (0+255),b
  1112  001940  C058  F0AD         	movff	sprintf@s,sprintf@f
  1113  001944  C059  F0AE         	movff	sprintf@s+1,sprintf@f+1
  1114  001948                     
  1115                           ; BSR set to: 0
  1116  001948  0E00               	movlw	0
  1117  00194A  6FB0               	movwf	(sprintf@f+3)& (0+255),b
  1118  00194C  0E00               	movlw	0
  1119  00194E  6FAF               	movwf	(sprintf@f+2)& (0+255),b
  1120  001950                     
  1121                           ; BSR set to: 0
  1122  001950  0E00               	movlw	0
  1123  001952  6FB2               	movwf	(sprintf@f+5)& (0+255),b
  1124  001954  0E00               	movlw	0
  1125  001956  6FB1               	movwf	(sprintf@f+4)& (0+255),b
  1126  001958                     
  1127                           ; BSR set to: 0
  1128  001958  0EAD               	movlw	low sprintf@f
  1129  00195A  6E50               	movwf	vfprintf@fp^0,c
  1130  00195C  0E00               	movlw	high sprintf@f
  1131  00195E  6E51               	movwf	(vfprintf@fp+1)^0,c
  1132  001960  C05A  F052         	movff	sprintf@fmt,vfprintf@fmt
  1133  001964  C05B  F053         	movff	sprintf@fmt+1,vfprintf@fmt+1
  1134  001968  0EAB               	movlw	low sprintf@ap
  1135  00196A  6E54               	movwf	vfprintf@ap^0,c
  1136  00196C  0E00               	movlw	high sprintf@ap
  1137  00196E  6E55               	movwf	(vfprintf@ap+1)^0,c
  1138  001970  ECE2  F00B         	call	_vfprintf	;wreg free
  1139  001974  0100               	movlb	0	; () banked
  1140  001976  51AF               	movf	(sprintf@f+2)& (0+255),w,b
  1141  001978  2458               	addwf	sprintf@s^0,w,c
  1142  00197A  6ED9               	movwf	fsr2l,c
  1143  00197C  51B0               	movf	(sprintf@f+3)& (0+255),w,b
  1144  00197E  2059               	addwfc	(sprintf@s+1)^0,w,c
  1145  001980  6EDA               	movwf	fsr2h,c
  1146  001982  0E00               	movlw	0
  1147  001984  6EDF               	movwf	indf2,c
  1148  001986                     
  1149                           ; BSR set to: 0
  1150  001986  0012               	return		;funcret
  1151  001988                     __end_of_sprintf:
  1152                           	callstack 0
  1153                           
  1154 ;; *************** function _vfprintf *****************
  1155 ;; Defined at:
  1156 ;;		line 1390 in file "D:\XC8 compilador para el MPLAB\pic\sources\c99\common\doprnt.c"
  1157 ;; Parameters:    Size  Location     Type
  1158 ;;  fp              2   79[COMRAM] PTR struct _IO_FILE
  1159 ;;		 -> sprintf@f(6), 
  1160 ;;  fmt             2   81[COMRAM] PTR const unsigned char 
  1161 ;;		 -> STR_8(8), STR_7(4), STR_6(3), STR_5(7), 
  1162 ;;		 -> STR_4(4), STR_3(3), 
  1163 ;;  ap              2   83[COMRAM] PTR PTR void 
  1164 ;;		 -> sprintf@ap(2), 
  1165 ;; Auto vars:     Size  Location     Type
  1166 ;;  cfmt            2   85[COMRAM] PTR unsigned char 
  1167 ;;		 -> STR_8(8), STR_7(4), STR_6(3), STR_5(7), 
  1168 ;;		 -> STR_4(4), STR_3(3), 
  1169 ;; Return value:  Size  Location     Type
  1170 ;;                  2   79[COMRAM] int 
  1171 ;; Registers used:
  1172 ;;		wreg, fsr1l, fsr1h, fsr2l, fsr2h, status,2, status,0, tblptrl, tblptrh, tblptru, cstack
  1173 ;; Tracked objects:
  1174 ;;		On entry : 0/0
  1175 ;;		On exit  : 0/0
  1176 ;;		Unchanged: 0/0
  1177 ;; Data sizes:     COMRAM   BANK0   BANK1   BANK2   BANK3   BANK4   BANK5   BANK6   BANK7
  1178 ;;      Params:         6       0       0       0       0       0       0       0       0
  1179 ;;      Locals:         2       0       0       0       0       0       0       0       0
  1180 ;;      Temps:          0       0       0       0       0       0       0       0       0
  1181 ;;      Totals:         8       0       0       0       0       0       0       0       0
  1182 ;;Total ram usage:        8 bytes
  1183 ;; Hardware stack levels used: 1
  1184 ;; Hardware stack levels required when called: 6
  1185 ;; This function calls:
  1186 ;;		_vfpfcnvrt
  1187 ;; This function is called by:
  1188 ;;		_sprintf
  1189 ;; This function uses a non-reentrant model
  1190 ;;
  1191                           
  1192                           	psect	text2
  1193  0017C4                     __ptext2:
  1194                           	callstack 0
  1195  0017C4                     _vfprintf:
  1196                           	callstack 23
  1197  0017C4                     
  1198                           ;D:\XC8 compilador para el MPLAB\pic\sources\c99\common\doprnt.c: 1390: int vfprintf(FIL
      +                          E *fp, const char *fmt, va_list ap);D:\XC8 compilador para el MPLAB\pic\sources\c99\comm
      +                          on\doprnt.c: 1391: {;D:\XC8 compilador para el MPLAB\pic\sources\c99\common\doprnt.c: 13
      +                          93:     char *cfmt;;D:\XC8 compilador para el MPLAB\pic\sources\c99\common\doprnt.c: 139
      +                          5:     cfmt = (char *)fmt;
  1199  0017C4  C052  F056         	movff	vfprintf@fmt,vfprintf@cfmt
  1200  0017C8  C053  F057         	movff	vfprintf@fmt+1,vfprintf@cfmt+1
  1201  0017CC                     
  1202                           ;D:\XC8 compilador para el MPLAB\pic\sources\c99\common\doprnt.c: 1396:     nout = 0;
  1203  0017CC  0E00               	movlw	0
  1204  0017CE  0100               	movlb	0	; () banked
  1205  0017D0  6F61               	movwf	(_nout+1)& (0+255),b
  1206  0017D2  0E00               	movlw	0
  1207  0017D4  6F60               	movwf	_nout& (0+255),b
  1208                           
  1209                           ;D:\XC8 compilador para el MPLAB\pic\sources\c99\common\doprnt.c: 1397:     while (*cfmt
      +                          ) {
  1210  0017D6  EF00  F00C         	goto	l2393
  1211  0017DA                     l2391:
  1212                           
  1213                           ; BSR set to: 0
  1214                           ;D:\XC8 compilador para el MPLAB\pic\sources\c99\common\doprnt.c: 1398:         nout += 
      +                          vfpfcnvrt(fp, &cfmt, ap);
  1215  0017DA  C050  F040         	movff	vfprintf@fp,vfpfcnvrt@fp
  1216  0017DE  C051  F041         	movff	vfprintf@fp+1,vfpfcnvrt@fp+1
  1217  0017E2  0E56               	movlw	low vfprintf@cfmt
  1218  0017E4  6E42               	movwf	vfpfcnvrt@fmt^0,c
  1219  0017E6  0E00               	movlw	high vfprintf@cfmt
  1220  0017E8  6E43               	movwf	(vfpfcnvrt@fmt+1)^0,c
  1221  0017EA  C054  F044         	movff	vfprintf@ap,vfpfcnvrt@ap
  1222  0017EE  C055  F045         	movff	vfprintf@ap+1,vfpfcnvrt@ap+1
  1223  0017F2  ECC6  F007         	call	_vfpfcnvrt	;wreg free
  1224  0017F6  5040               	movf	?_vfpfcnvrt^0,w,c
  1225  0017F8  0100               	movlb	0	; () banked
  1226  0017FA  2760               	addwf	_nout& (0+255),f,b
  1227  0017FC  5041               	movf	(?_vfpfcnvrt+1)^0,w,c
  1228  0017FE  2361               	addwfc	(_nout+1)& (0+255),f,b
  1229  001800                     l2393:
  1230                           
  1231                           ; BSR set to: 0
  1232                           ;D:\XC8 compilador para el MPLAB\pic\sources\c99\common\doprnt.c: 1397:     while (*cfmt
      +                          ) {
  1233  001800  C056  FFF6         	movff	vfprintf@cfmt,tblptrl
  1234  001804  C057  FFF7         	movff	vfprintf@cfmt+1,tblptrh
  1235  001808                     	if	0	;tblptru may be non-zero
  1236  001808                     	endif
  1237  001808                     	if	0	;tblptru may be non-zero
  1238  001808                     	endif
  1239  001808  0008               	tblrd		*
  1240  00180A  50F5               	movf	tablat,w,c
  1241  00180C  0900               	iorlw	0
  1242  00180E  A4D8               	btfss	status,2,c
  1243  001810  EF0C  F00C         	goto	u2041
  1244  001814  EF0E  F00C         	goto	u2040
  1245  001818                     u2041:
  1246  001818  EFED  F00B         	goto	l2391
  1247  00181C                     u2040:
  1248  00181C                     
  1249                           ; BSR set to: 0
  1250                           ;D:\XC8 compilador para el MPLAB\pic\sources\c99\common\doprnt.c: 1400:     return nout;
  1251  00181C  C060  F050         	movff	_nout,?_vfprintf
  1252  001820  C061  F051         	movff	_nout+1,?_vfprintf+1
  1253  001824                     
  1254                           ; BSR set to: 0
  1255  001824  0012               	return		;funcret
  1256  001826                     __end_of_vfprintf:
  1257                           	callstack 0
  1258                           
  1259 ;; *************** function _vfpfcnvrt *****************
  1260 ;; Defined at:
  1261 ;;		line 692 in file "D:\XC8 compilador para el MPLAB\pic\sources\c99\common\doprnt.c"
  1262 ;; Parameters:    Size  Location     Type
  1263 ;;  fp              2   63[COMRAM] PTR struct _IO_FILE
  1264 ;;		 -> sprintf@f(6), 
  1265 ;;  fmt             2   65[COMRAM] PTR PTR unsigned char 
  1266 ;;		 -> vfprintf@cfmt(2), 
  1267 ;;  ap              2   67[COMRAM] PTR PTR void 
  1268 ;;		 -> sprintf@ap(2), 
  1269 ;; Auto vars:     Size  Location     Type
  1270 ;;  ll              8   71[COMRAM] long long 
  1271 ;;  llu             8    0        unsigned long long 
  1272 ;;  f               4    0        unsigned long long 
  1273 ;;  vp              3    0        PTR void 
  1274 ;;  ct              3    0        unsigned char [3]
  1275 ;;  cp              3    0        PTR unsigned char 
  1276 ;;  i               2    0        int 
  1277 ;;  done            2    0        int 
  1278 ;;  c               1    0        unsigned char 
  1279 ;; Return value:  Size  Location     Type
  1280 ;;                  2   63[COMRAM] int 
  1281 ;; Registers used:
  1282 ;;		wreg, fsr1l, fsr1h, fsr2l, fsr2h, status,2, status,0, tblptrl, tblptrh, tblptru, cstack
  1283 ;; Tracked objects:
  1284 ;;		On entry : 0/0
  1285 ;;		On exit  : 0/0
  1286 ;;		Unchanged: 0/0
  1287 ;; Data sizes:     COMRAM   BANK0   BANK1   BANK2   BANK3   BANK4   BANK5   BANK6   BANK7
  1288 ;;      Params:         6       0       0       0       0       0       0       0       0
  1289 ;;      Locals:         8       0       0       0       0       0       0       0       0
  1290 ;;      Temps:          2       0       0       0       0       0       0       0       0
  1291 ;;      Totals:        16       0       0       0       0       0       0       0       0
  1292 ;;Total ram usage:       16 bytes
  1293 ;; Hardware stack levels used: 1
  1294 ;; Hardware stack levels required when called: 5
  1295 ;; This function calls:
  1296 ;;		_dtoa
  1297 ;;		_fputc
  1298 ;; This function is called by:
  1299 ;;		_vfprintf
  1300 ;; This function uses a non-reentrant model
  1301 ;;
  1302                           
  1303                           	psect	text3
  1304  000F8C                     __ptext3:
  1305                           	callstack 0
  1306  000F8C                     _vfpfcnvrt:
  1307                           	callstack 23
  1308  000F8C                     
  1309                           ;D:\XC8 compilador para el MPLAB\pic\sources\c99\common\doprnt.c: 692: static int vfpfcn
      +                          vrt(FILE *fp, char *fmt[], va_list ap);D:\XC8 compilador para el MPLAB\pic\sources\c99\c
      +                          ommon\doprnt.c: 693: {;D:\XC8 compilador para el MPLAB\pic\sources\c99\common\doprnt.c: 
      +                          694:     char c, *cp, ct[3];;D:\XC8 compilador para el MPLAB\pic\sources\c99\common\dopr
      +                          nt.c: 695:     int done, i;;D:\XC8 compilador para el MPLAB\pic\sources\c99\common\doprn
      +                          t.c: 696:     long long ll;;D:\XC8 compilador para el MPLAB\pic\sources\c99\common\doprn
      +                          t.c: 697:     unsigned long long llu;
  1310  000F8C  C042  FFD9         	movff	vfpfcnvrt@fmt,fsr2l
  1311  000F90  C043  FFDA         	movff	vfpfcnvrt@fmt+1,fsr2h
  1312  000F94  CFDE FFF6          	movff	postinc2,tblptrl
  1313  000F98  CFDD FFF7          	movff	postdec2,tblptrh
  1314  000F9C                     	if	0	;tblptru may be non-zero
  1315  000F9C                     	endif
  1316  000F9C                     	if	0	;tblptru may be non-zero
  1317  000F9C                     	endif
  1318  000F9C  0008               	tblrd		*
  1319  000F9E  50F5               	movf	tablat,w,c
  1320  000FA0  0A25               	xorlw	37
  1321  000FA2  A4D8               	btfss	status,2,c
  1322  000FA4  EFD6  F007         	goto	u1731
  1323  000FA8  EFD8  F007         	goto	u1730
  1324  000FAC                     u1731:
  1325  000FAC  EF84  F008         	goto	l2209
  1326  000FB0                     u1730:
  1327  000FB0                     
  1328                           ;D:\XC8 compilador para el MPLAB\pic\sources\c99\common\doprnt.c: 703:         ++*fmt;
  1329  000FB0  C042  FFD9         	movff	vfpfcnvrt@fmt,fsr2l
  1330  000FB4  C043  FFDA         	movff	vfpfcnvrt@fmt+1,fsr2h
  1331  000FB8  2ADE               	incf	postinc2,f,c
  1332  000FBA  0E00               	movlw	0
  1333  000FBC  22DD               	addwfc	postdec2,f,c
  1334  000FBE                     
  1335                           ;D:\XC8 compilador para el MPLAB\pic\sources\c99\common\doprnt.c: 705:         flags = w
      +                          idth = 0;
  1336  000FBE  0E00               	movlw	0
  1337  000FC0  0100               	movlb	0	; () banked
  1338  000FC2  6F63               	movwf	(_width+1)& (0+255),b
  1339  000FC4  0E00               	movlw	0
  1340  000FC6  6F62               	movwf	_width& (0+255),b
  1341  000FC8  C062  F066         	movff	_width,_flags
  1342  000FCC  C063  F067         	movff	_width+1,_flags+1
  1343  000FD0                     
  1344                           ; BSR set to: 0
  1345                           ;D:\XC8 compilador para el MPLAB\pic\sources\c99\common\doprnt.c: 706:         prec = -1
      +                          ;
  1346  000FD0  6964               	setf	_prec& (0+255),b
  1347  000FD2  6965               	setf	(_prec+1)& (0+255),b
  1348  000FD4                     
  1349                           ; BSR set to: 0
  1350                           ;D:\XC8 compilador para el MPLAB\pic\sources\c99\common\doprnt.c: 847:         if ((*fmt
      +                          [0] == 'd') || (*fmt[0] == 'i')) {
  1351  000FD4  C042  FFD9         	movff	vfpfcnvrt@fmt,fsr2l
  1352  000FD8  C043  FFDA         	movff	vfpfcnvrt@fmt+1,fsr2h
  1353  000FDC  CFDE FFF6          	movff	postinc2,tblptrl
  1354  000FE0  CFDD FFF7          	movff	postdec2,tblptrh
  1355  000FE4                     	if	0	;tblptru may be non-zero
  1356  000FE4                     	endif
  1357  000FE4                     	if	0	;tblptru may be non-zero
  1358  000FE4                     	endif
  1359  000FE4  0008               	tblrd		*
  1360  000FE6  50F5               	movf	tablat,w,c
  1361  000FE8  0A64               	xorlw	100
  1362  000FEA  B4D8               	btfsc	status,2,c
  1363  000FEC  EFFA  F007         	goto	u1741
  1364  000FF0  EFFC  F007         	goto	u1740
  1365  000FF4                     u1741:
  1366  000FF4  EF0E  F008         	goto	l2187
  1367  000FF8                     u1740:
  1368  000FF8                     
  1369                           ; BSR set to: 0
  1370  000FF8  C042  FFD9         	movff	vfpfcnvrt@fmt,fsr2l
  1371  000FFC  C043  FFDA         	movff	vfpfcnvrt@fmt+1,fsr2h
  1372  001000  CFDE FFF6          	movff	postinc2,tblptrl
  1373  001004  CFDD FFF7          	movff	postdec2,tblptrh
  1374  001008                     	if	0	;tblptru may be non-zero
  1375  001008                     	endif
  1376  001008                     	if	0	;tblptru may be non-zero
  1377  001008                     	endif
  1378  001008  0008               	tblrd		*
  1379  00100A  50F5               	movf	tablat,w,c
  1380  00100C  0A69               	xorlw	105
  1381  00100E  A4D8               	btfss	status,2,c
  1382  001010  EF0C  F008         	goto	u1751
  1383  001014  EF0E  F008         	goto	u1750
  1384  001018                     u1751:
  1385  001018  EF4E  F008         	goto	l2193
  1386  00101C                     u1750:
  1387  00101C                     l2187:
  1388                           
  1389                           ; BSR set to: 0
  1390                           ;D:\XC8 compilador para el MPLAB\pic\sources\c99\common\doprnt.c: 849:             ++*fm
      +                          t;
  1391  00101C  C042  FFD9         	movff	vfpfcnvrt@fmt,fsr2l
  1392  001020  C043  FFDA         	movff	vfpfcnvrt@fmt+1,fsr2h
  1393  001024  2ADE               	incf	postinc2,f,c
  1394  001026  0E00               	movlw	0
  1395  001028  22DD               	addwfc	postdec2,f,c
  1396                           
  1397                           ;D:\XC8 compilador para el MPLAB\pic\sources\c99\common\doprnt.c: 850:             ll = 
      +                          (long long)(*(int *)__va_arg(*(int **)ap, (int)0));
  1398  00102A  C044  FFD9         	movff	vfpfcnvrt@ap,fsr2l
  1399  00102E  C045  FFDA         	movff	vfpfcnvrt@ap+1,fsr2h
  1400  001032  CFDF F046          	movff	indf2,??_vfpfcnvrt
  1401  001036  0E02               	movlw	2
  1402  001038  26DE               	addwf	postinc2,f,c
  1403  00103A  CFDF F047          	movff	indf2,??_vfpfcnvrt+1
  1404  00103E  0E00               	movlw	0
  1405  001040  22DD               	addwfc	postdec2,f,c
  1406  001042  C046  FFD9         	movff	??_vfpfcnvrt,fsr2l
  1407  001046  C047  FFDA         	movff	??_vfpfcnvrt+1,fsr2h
  1408  00104A  CFDE F048          	movff	postinc2,vfpfcnvrt@ll
  1409  00104E  CFDD F049          	movff	postdec2,vfpfcnvrt@ll+1
  1410  001052  0E00               	movlw	0
  1411  001054  BE49               	btfsc	(vfpfcnvrt@ll+1)^0,7,c
  1412  001056  0EFF               	movlw	-1
  1413  001058  6E4A               	movwf	(vfpfcnvrt@ll+2)^0,c
  1414  00105A  6E4B               	movwf	(vfpfcnvrt@ll+3)^0,c
  1415  00105C  6E4C               	movwf	(vfpfcnvrt@ll+4)^0,c
  1416  00105E  6E4D               	movwf	(vfpfcnvrt@ll+5)^0,c
  1417  001060  6E4E               	movwf	(vfpfcnvrt@ll+6)^0,c
  1418  001062  6E4F               	movwf	(vfpfcnvrt@ll+7)^0,c
  1419  001064                     
  1420                           ; BSR set to: 0
  1421                           ;D:\XC8 compilador para el MPLAB\pic\sources\c99\common\doprnt.c: 852:             retur
      +                          n dtoa(fp, ll);
  1422  001064  C040  F01C         	movff	vfpfcnvrt@fp,dtoa@fp
  1423  001068  C041  F01D         	movff	vfpfcnvrt@fp+1,dtoa@fp+1
  1424  00106C  C048  F01E         	movff	vfpfcnvrt@ll,dtoa@d
  1425  001070  C049  F01F         	movff	vfpfcnvrt@ll+1,dtoa@d+1
  1426  001074  C04A  F020         	movff	vfpfcnvrt@ll+2,dtoa@d+2
  1427  001078  C04B  F021         	movff	vfpfcnvrt@ll+3,dtoa@d+3
  1428  00107C  C04C  F022         	movff	vfpfcnvrt@ll+4,dtoa@d+4
  1429  001080  C04D  F023         	movff	vfpfcnvrt@ll+5,dtoa@d+5
  1430  001084  C04E  F024         	movff	vfpfcnvrt@ll+6,dtoa@d+6
  1431  001088  C04F  F025         	movff	vfpfcnvrt@ll+7,dtoa@d+7
  1432  00108C  EC19  F004         	call	_dtoa	;wreg free
  1433  001090  C01C  F040         	movff	?_dtoa,?_vfpfcnvrt
  1434  001094  C01D  F041         	movff	?_dtoa+1,?_vfpfcnvrt+1
  1435  001098  EF9F  F008         	goto	l1140
  1436  00109C                     l2193:
  1437                           
  1438                           ; BSR set to: 0
  1439                           ;D:\XC8 compilador para el MPLAB\pic\sources\c99\common\doprnt.c: 1372:         if ((*fm
      +                          t)[0] == '%') {
  1440  00109C  C042  FFD9         	movff	vfpfcnvrt@fmt,fsr2l
  1441  0010A0  C043  FFDA         	movff	vfpfcnvrt@fmt+1,fsr2h
  1442  0010A4  CFDE FFF6          	movff	postinc2,tblptrl
  1443  0010A8  CFDD FFF7          	movff	postdec2,tblptrh
  1444  0010AC                     	if	0	;tblptru may be non-zero
  1445  0010AC                     	endif
  1446  0010AC                     	if	0	;tblptru may be non-zero
  1447  0010AC                     	endif
  1448  0010AC  0008               	tblrd		*
  1449  0010AE  50F5               	movf	tablat,w,c
  1450  0010B0  0A25               	xorlw	37
  1451  0010B2  A4D8               	btfss	status,2,c
  1452  0010B4  EF5E  F008         	goto	u1761
  1453  0010B8  EF60  F008         	goto	u1760
  1454  0010BC                     u1761:
  1455  0010BC  EF77  F008         	goto	l2203
  1456  0010C0                     u1760:
  1457  0010C0                     
  1458                           ; BSR set to: 0
  1459                           ;D:\XC8 compilador para el MPLAB\pic\sources\c99\common\doprnt.c: 1373:             ++*f
      +                          mt;
  1460  0010C0  C042  FFD9         	movff	vfpfcnvrt@fmt,fsr2l
  1461  0010C4  C043  FFDA         	movff	vfpfcnvrt@fmt+1,fsr2h
  1462  0010C8  2ADE               	incf	postinc2,f,c
  1463  0010CA  0E00               	movlw	0
  1464  0010CC  22DD               	addwfc	postdec2,f,c
  1465  0010CE                     
  1466                           ; BSR set to: 0
  1467                           ;D:\XC8 compilador para el MPLAB\pic\sources\c99\common\doprnt.c: 1374:             fput
      +                          c((int)'%', fp);
  1468  0010CE  0E00               	movlw	0
  1469  0010D0  6E02               	movwf	(fputc@c+1)^0,c
  1470  0010D2  0E25               	movlw	37
  1471  0010D4  6E01               	movwf	fputc@c^0,c
  1472  0010D6  C040  F003         	movff	vfpfcnvrt@fp,fputc@fp
  1473  0010DA  C041  F004         	movff	vfpfcnvrt@fp+1,fputc@fp+1
  1474  0010DE  ECA0  F00A         	call	_fputc	;wreg free
  1475  0010E2                     l2199:
  1476                           
  1477                           ;D:\XC8 compilador para el MPLAB\pic\sources\c99\common\doprnt.c: 1375:             retu
      +                          rn 1;
  1478  0010E2  0E00               	movlw	0
  1479  0010E4  6E41               	movwf	(?_vfpfcnvrt+1)^0,c
  1480  0010E6  0E01               	movlw	1
  1481  0010E8  6E40               	movwf	?_vfpfcnvrt^0,c
  1482  0010EA  EF9F  F008         	goto	l1140
  1483  0010EE                     l2203:
  1484                           
  1485                           ; BSR set to: 0
  1486                           ;D:\XC8 compilador para el MPLAB\pic\sources\c99\common\doprnt.c: 1379:         ++*fmt;
  1487  0010EE  C042  FFD9         	movff	vfpfcnvrt@fmt,fsr2l
  1488  0010F2  C043  FFDA         	movff	vfpfcnvrt@fmt+1,fsr2h
  1489  0010F6  2ADE               	incf	postinc2,f,c
  1490  0010F8  0E00               	movlw	0
  1491  0010FA  22DD               	addwfc	postdec2,f,c
  1492  0010FC                     
  1493                           ; BSR set to: 0
  1494                           ;D:\XC8 compilador para el MPLAB\pic\sources\c99\common\doprnt.c: 1380:         return 0
      +                          ;
  1495  0010FC  0E00               	movlw	0
  1496  0010FE  6E41               	movwf	(?_vfpfcnvrt+1)^0,c
  1497  001100  0E00               	movlw	0
  1498  001102  6E40               	movwf	?_vfpfcnvrt^0,c
  1499  001104  EF9F  F008         	goto	l1140
  1500  001108                     l2209:
  1501                           
  1502                           ;D:\XC8 compilador para el MPLAB\pic\sources\c99\common\doprnt.c: 1384:     fputc((int)(
      +                          *fmt)[0], fp);
  1503  001108  C042  FFD9         	movff	vfpfcnvrt@fmt,fsr2l
  1504  00110C  C043  FFDA         	movff	vfpfcnvrt@fmt+1,fsr2h
  1505  001110  CFDE FFF6          	movff	postinc2,tblptrl
  1506  001114  CFDD FFF7          	movff	postdec2,tblptrh
  1507  001118                     	if	0	;tblptru may be non-zero
  1508  001118                     	endif
  1509  001118                     	if	0	;tblptru may be non-zero
  1510  001118                     	endif
  1511  001118  0008               	tblrd		*
  1512  00111A  50F5               	movf	tablat,w,c
  1513  00111C  6E01               	movwf	fputc@c^0,c
  1514  00111E  6A02               	clrf	(fputc@c+1)^0,c
  1515  001120  C040  F003         	movff	vfpfcnvrt@fp,fputc@fp
  1516  001124  C041  F004         	movff	vfpfcnvrt@fp+1,fputc@fp+1
  1517  001128  ECA0  F00A         	call	_fputc	;wreg free
  1518  00112C                     
  1519                           ;D:\XC8 compilador para el MPLAB\pic\sources\c99\common\doprnt.c: 1385:     ++*fmt;
  1520  00112C  C042  FFD9         	movff	vfpfcnvrt@fmt,fsr2l
  1521  001130  C043  FFDA         	movff	vfpfcnvrt@fmt+1,fsr2h
  1522  001134  2ADE               	incf	postinc2,f,c
  1523  001136  0E00               	movlw	0
  1524  001138  22DD               	addwfc	postdec2,f,c
  1525  00113A  EF71  F008         	goto	l2199
  1526  00113E                     l1140:
  1527  00113E  0012               	return		;funcret
  1528  001140                     __end_of_vfpfcnvrt:
  1529                           	callstack 0
  1530                           
  1531 ;; *************** function _dtoa *****************
  1532 ;; Defined at:
  1533 ;;		line 287 in file "D:\XC8 compilador para el MPLAB\pic\sources\c99\common\doprnt.c"
  1534 ;; Parameters:    Size  Location     Type
  1535 ;;  fp              2   27[COMRAM] PTR struct _IO_FILE
  1536 ;;		 -> sprintf@f(6), 
  1537 ;;  d               8   29[COMRAM] long long 
  1538 ;; Auto vars:     Size  Location     Type
  1539 ;;  n               8   53[COMRAM] long long 
  1540 ;;  i               2   61[COMRAM] int 
  1541 ;;  s               2   51[COMRAM] int 
  1542 ;;  w               2   49[COMRAM] int 
  1543 ;;  p               2   47[COMRAM] int 
  1544 ;; Return value:  Size  Location     Type
  1545 ;;                  2   27[COMRAM] int 
  1546 ;; Registers used:
  1547 ;;		wreg, fsr1l, fsr1h, fsr2l, fsr2h, status,2, status,0, cstack
  1548 ;; Tracked objects:
  1549 ;;		On entry : 0/0
  1550 ;;		On exit  : 0/0
  1551 ;;		Unchanged: 0/0
  1552 ;; Data sizes:     COMRAM   BANK0   BANK1   BANK2   BANK3   BANK4   BANK5   BANK6   BANK7
  1553 ;;      Params:        10       0       0       0       0       0       0       0       0
  1554 ;;      Locals:        18       0       0       0       0       0       0       0       0
  1555 ;;      Temps:          8       0       0       0       0       0       0       0       0
  1556 ;;      Totals:        36       0       0       0       0       0       0       0       0
  1557 ;;Total ram usage:       36 bytes
  1558 ;; Hardware stack levels used: 1
  1559 ;; Hardware stack levels required when called: 4
  1560 ;; This function calls:
  1561 ;;		___aodiv
  1562 ;;		___aomod
  1563 ;;		_abs
  1564 ;;		_pad
  1565 ;; This function is called by:
  1566 ;;		_vfpfcnvrt
  1567 ;; This function uses a non-reentrant model
  1568 ;;
  1569                           
  1570                           	psect	text4
  1571  000832                     __ptext4:
  1572                           	callstack 0
  1573  000832                     _dtoa:
  1574                           	callstack 23
  1575  000832                     
  1576                           ;D:\XC8 compilador para el MPLAB\pic\sources\c99\common\doprnt.c: 287: static int dtoa(F
      +                          ILE *fp, long long d);D:\XC8 compilador para el MPLAB\pic\sources\c99\common\doprnt.c: 2
      +                          88: {;D:\XC8 compilador para el MPLAB\pic\sources\c99\common\doprnt.c: 289:     int i, p
      +                          , s, w;;D:\XC8 compilador para el MPLAB\pic\sources\c99\common\doprnt.c: 290:     long l
      +                          ong n;;D:\XC8 compilador para el MPLAB\pic\sources\c99\common\doprnt.c: 293:     n = d;
  1577  000832  C01E  F036         	movff	dtoa@d,dtoa@n
  1578  000836  C01F  F037         	movff	dtoa@d+1,dtoa@n+1
  1579  00083A  C020  F038         	movff	dtoa@d+2,dtoa@n+2
  1580  00083E  C021  F039         	movff	dtoa@d+3,dtoa@n+3
  1581  000842  C022  F03A         	movff	dtoa@d+4,dtoa@n+4
  1582  000846  C023  F03B         	movff	dtoa@d+5,dtoa@n+5
  1583  00084A  C024  F03C         	movff	dtoa@d+6,dtoa@n+6
  1584  00084E  C025  F03D         	movff	dtoa@d+7,dtoa@n+7
  1585  000852                     
  1586                           ;D:\XC8 compilador para el MPLAB\pic\sources\c99\common\doprnt.c: 294:     s = n < 0 ? 1
      +                           : 0;
  1587  000852  BE3D               	btfsc	(dtoa@n+7)^0,7,c
  1588  000854  EF2E  F004         	goto	u1551
  1589  000858  EF31  F004         	goto	u1550
  1590  00085C                     u1551:
  1591  00085C  0E01               	movlw	1
  1592  00085E  EF32  F004         	goto	u1560
  1593  000862                     u1550:
  1594  000862  0E00               	movlw	0
  1595  000864                     u1560:
  1596  000864  6E34               	movwf	dtoa@s^0,c
  1597  000866  6A35               	clrf	(dtoa@s+1)^0,c
  1598                           
  1599                           ;D:\XC8 compilador para el MPLAB\pic\sources\c99\common\doprnt.c: 295:     if (s) {
  1600  000868  5034               	movf	dtoa@s^0,w,c
  1601  00086A  1035               	iorwf	(dtoa@s+1)^0,w,c
  1602  00086C  B4D8               	btfsc	status,2,c
  1603  00086E  EF3B  F004         	goto	u1571
  1604  000872  EF3D  F004         	goto	u1570
  1605  000876                     u1571:
  1606  000876  EF4D  F004         	goto	l2089
  1607  00087A                     u1570:
  1608  00087A                     
  1609                           ;D:\XC8 compilador para el MPLAB\pic\sources\c99\common\doprnt.c: 296:         n = -n;
  1610  00087A  1E3D               	comf	(dtoa@n+7)^0,f,c
  1611  00087C  1E3C               	comf	(dtoa@n+6)^0,f,c
  1612  00087E  1E3B               	comf	(dtoa@n+5)^0,f,c
  1613  000880  1E3A               	comf	(dtoa@n+4)^0,f,c
  1614  000882  1E39               	comf	(dtoa@n+3)^0,f,c
  1615  000884  1E38               	comf	(dtoa@n+2)^0,f,c
  1616  000886  1E37               	comf	(dtoa@n+1)^0,f,c
  1617  000888  6C36               	negf	dtoa@n^0,c
  1618  00088A  0E00               	movlw	0
  1619  00088C  2237               	addwfc	(dtoa@n+1)^0,f,c
  1620  00088E  2238               	addwfc	(dtoa@n+2)^0,f,c
  1621  000890  2239               	addwfc	(dtoa@n+3)^0,f,c
  1622  000892  223A               	addwfc	(dtoa@n+4)^0,f,c
  1623  000894  223B               	addwfc	(dtoa@n+5)^0,f,c
  1624  000896  223C               	addwfc	(dtoa@n+6)^0,f,c
  1625  000898  223D               	addwfc	(dtoa@n+7)^0,f,c
  1626  00089A                     l2089:
  1627                           
  1628                           ;D:\XC8 compilador para el MPLAB\pic\sources\c99\common\doprnt.c: 300:     if (!(prec < 
      +                          0)) {
  1629  00089A  0100               	movlb	0	; () banked
  1630  00089C  BF65               	btfsc	(_prec+1)& (0+255),7,b
  1631  00089E  EF53  F004         	goto	u1581
  1632  0008A2  EF55  F004         	goto	u1580
  1633  0008A6                     u1581:
  1634  0008A6  EF56  F004         	goto	l2093
  1635  0008AA                     u1580:
  1636  0008AA                     
  1637                           ; BSR set to: 0
  1638                           ;D:\XC8 compilador para el MPLAB\pic\sources\c99\common\doprnt.c: 301:         flags &= 
      +                          ~(1 << 1);
  1639  0008AA  9366               	bcf	_flags& (0+255),1,b
  1640  0008AC                     l2093:
  1641                           
  1642                           ; BSR set to: 0
  1643                           ;D:\XC8 compilador para el MPLAB\pic\sources\c99\common\doprnt.c: 303:     p = (0 < prec
      +                          ) ? prec : 1;
  1644  0008AC  BF65               	btfsc	(_prec+1)& (0+255),7,b
  1645  0008AE  EF63  F004         	goto	u1590
  1646  0008B2  5165               	movf	(_prec+1)& (0+255),w,b
  1647  0008B4  E106               	bnz	u1591
  1648  0008B6  0564               	decf	_prec& (0+255),w,b
  1649  0008B8  B0D8               	btfsc	status,0,c
  1650  0008BA  EF61  F004         	goto	u1591
  1651  0008BE  EF63  F004         	goto	u1590
  1652  0008C2                     u1591:
  1653  0008C2  EF69  F004         	goto	l1113
  1654  0008C6                     u1590:
  1655  0008C6                     
  1656                           ; BSR set to: 0
  1657  0008C6  0E00               	movlw	0
  1658  0008C8  6E31               	movwf	(dtoa@p+1)^0,c
  1659  0008CA  0E01               	movlw	1
  1660  0008CC  6E30               	movwf	dtoa@p^0,c
  1661  0008CE  EF6D  F004         	goto	l1115
  1662  0008D2                     l1113:
  1663                           
  1664                           ; BSR set to: 0
  1665  0008D2  C064  F030         	movff	_prec,dtoa@p
  1666  0008D6  C065  F031         	movff	_prec+1,dtoa@p+1
  1667  0008DA                     l1115:
  1668                           
  1669                           ; BSR set to: 0
  1670                           ;D:\XC8 compilador para el MPLAB\pic\sources\c99\common\doprnt.c: 304:     w = width;
  1671  0008DA  C062  F032         	movff	_width,dtoa@w
  1672  0008DE  C063  F033         	movff	_width+1,dtoa@w+1
  1673  0008E2                     
  1674                           ; BSR set to: 0
  1675                           ;D:\XC8 compilador para el MPLAB\pic\sources\c99\common\doprnt.c: 305:     if (s || (fla
      +                          gs & (1 << 2))) {
  1676  0008E2  5034               	movf	dtoa@s^0,w,c
  1677  0008E4  1035               	iorwf	(dtoa@s+1)^0,w,c
  1678  0008E6  A4D8               	btfss	status,2,c
  1679  0008E8  EF78  F004         	goto	u1601
  1680  0008EC  EF7A  F004         	goto	u1600
  1681  0008F0                     u1601:
  1682  0008F0  EF81  F004         	goto	l2101
  1683  0008F4                     u1600:
  1684  0008F4                     
  1685                           ; BSR set to: 0
  1686  0008F4  A566               	btfss	_flags& (0+255),2,b
  1687  0008F6  EF7F  F004         	goto	u1611
  1688  0008FA  EF81  F004         	goto	u1610
  1689  0008FE                     u1611:
  1690  0008FE  EF84  F004         	goto	l2103
  1691  000902                     u1610:
  1692  000902                     l2101:
  1693                           
  1694                           ; BSR set to: 0
  1695                           ;D:\XC8 compilador para el MPLAB\pic\sources\c99\common\doprnt.c: 306:         --w;
  1696  000902  0632               	decf	dtoa@w^0,f,c
  1697  000904  A0D8               	btfss	status,0,c
  1698  000906  0633               	decf	(dtoa@w+1)^0,f,c
  1699  000908                     l2103:
  1700                           
  1701                           ; BSR set to: 0
  1702                           ;D:\XC8 compilador para el MPLAB\pic\sources\c99\common\doprnt.c: 310:     i = sizeof(db
      +                          uf) - 1;
  1703  000908  0E00               	movlw	0
  1704  00090A  6E3F               	movwf	(dtoa@i+1)^0,c
  1705  00090C  0E1F               	movlw	31
  1706  00090E  6E3E               	movwf	dtoa@i^0,c
  1707  000910                     
  1708                           ; BSR set to: 0
  1709                           ;D:\XC8 compilador para el MPLAB\pic\sources\c99\common\doprnt.c: 311:     dbuf[i] = '\0
      +                          ';
  1710  000910  0E00               	movlw	0
  1711  000912  6F8A               	movwf	(_dbuf+31)& (0+255),b
  1712                           
  1713                           ;D:\XC8 compilador para el MPLAB\pic\sources\c99\common\doprnt.c: 312:     while (!(i < 
      +                          1) && (n || (0 < p) || ((0 < w) && (flags & (1 << 1))))) {
  1714  000914  EF08  F005         	goto	l2117
  1715  000918                     l2107:
  1716                           
  1717                           ;D:\XC8 compilador para el MPLAB\pic\sources\c99\common\doprnt.c: 313:         --i;
  1718  000918  063E               	decf	dtoa@i^0,f,c
  1719  00091A  A0D8               	btfss	status,0,c
  1720  00091C  063F               	decf	(dtoa@i+1)^0,f,c
  1721  00091E                     
  1722                           ;D:\XC8 compilador para el MPLAB\pic\sources\c99\common\doprnt.c: 314:         dbuf[i] =
      +                           (char)((int)'0' + abs(n % 10));
  1723  00091E  0E6B               	movlw	low _dbuf
  1724  000920  243E               	addwf	dtoa@i^0,w,c
  1725  000922  6ED9               	movwf	fsr2l,c
  1726  000924  0E00               	movlw	high _dbuf
  1727  000926  203F               	addwfc	(dtoa@i+1)^0,w,c
  1728  000928  6EDA               	movwf	fsr2h,c
  1729  00092A  C036  F001         	movff	dtoa@n,___aomod@dividend
  1730  00092E  C037  F002         	movff	dtoa@n+1,___aomod@dividend+1
  1731  000932  C038  F003         	movff	dtoa@n+2,___aomod@dividend+2
  1732  000936  C039  F004         	movff	dtoa@n+3,___aomod@dividend+3
  1733  00093A  C03A  F005         	movff	dtoa@n+4,___aomod@dividend+4
  1734  00093E  C03B  F006         	movff	dtoa@n+5,___aomod@dividend+5
  1735  000942  C03C  F007         	movff	dtoa@n+6,___aomod@dividend+6
  1736  000946  C03D  F008         	movff	dtoa@n+7,___aomod@dividend+7
  1737  00094A  0E0A               	movlw	10
  1738  00094C  6E09               	movwf	___aomod@divisor^0,c
  1739  00094E  0E00               	movlw	0
  1740  000950  6E0A               	movwf	(___aomod@divisor+1)^0,c
  1741  000952  0E00               	movlw	0
  1742  000954  6E0B               	movwf	(___aomod@divisor+2)^0,c
  1743  000956  0E00               	movlw	0
  1744  000958  6E0C               	movwf	(___aomod@divisor+3)^0,c
  1745  00095A  0E00               	movlw	0
  1746  00095C  6E0D               	movwf	(___aomod@divisor+4)^0,c
  1747  00095E  0E00               	movlw	0
  1748  000960  6E0E               	movwf	(___aomod@divisor+5)^0,c
  1749  000962  0E00               	movlw	0
  1750  000964  6E0F               	movwf	(___aomod@divisor+6)^0,c
  1751  000966  0E00               	movlw	0
  1752  000968  6E10               	movwf	(___aomod@divisor+7)^0,c
  1753  00096A  EC64  F009         	call	___aomod	;wreg free
  1754  00096E  C001  F026         	movff	?___aomod,??_dtoa
  1755  000972  C002  F027         	movff	?___aomod+1,??_dtoa+1
  1756  000976  C003  F028         	movff	?___aomod+2,??_dtoa+2
  1757  00097A  C004  F029         	movff	?___aomod+3,??_dtoa+3
  1758  00097E  C005  F02A         	movff	?___aomod+4,??_dtoa+4
  1759  000982  C006  F02B         	movff	?___aomod+5,??_dtoa+5
  1760  000986  C007  F02C         	movff	?___aomod+6,??_dtoa+6
  1761  00098A  C008  F02D         	movff	?___aomod+7,??_dtoa+7
  1762  00098E  C026  F013         	movff	??_dtoa,abs@a
  1763  000992  C028  F014         	movff	??_dtoa+2,abs@a+1
  1764  000996  EC82  F00D         	call	_abs	;wreg free
  1765  00099A  5013               	movf	?_abs^0,w,c
  1766  00099C  0F30               	addlw	48
  1767  00099E  6EDF               	movwf	indf2,c
  1768  0009A0                     
  1769                           ;D:\XC8 compilador para el MPLAB\pic\sources\c99\common\doprnt.c: 315:         --p;
  1770  0009A0  0630               	decf	dtoa@p^0,f,c
  1771  0009A2  A0D8               	btfss	status,0,c
  1772  0009A4  0631               	decf	(dtoa@p+1)^0,f,c
  1773  0009A6                     
  1774                           ;D:\XC8 compilador para el MPLAB\pic\sources\c99\common\doprnt.c: 316:         --w;
  1775  0009A6  0632               	decf	dtoa@w^0,f,c
  1776  0009A8  A0D8               	btfss	status,0,c
  1777  0009AA  0633               	decf	(dtoa@w+1)^0,f,c
  1778  0009AC                     
  1779                           ;D:\XC8 compilador para el MPLAB\pic\sources\c99\common\doprnt.c: 317:         n = n / 1
      +                          0;
  1780  0009AC  C036  F001         	movff	dtoa@n,___aodiv@dividend
  1781  0009B0  C037  F002         	movff	dtoa@n+1,___aodiv@dividend+1
  1782  0009B4  C038  F003         	movff	dtoa@n+2,___aodiv@dividend+2
  1783  0009B8  C039  F004         	movff	dtoa@n+3,___aodiv@dividend+3
  1784  0009BC  C03A  F005         	movff	dtoa@n+4,___aodiv@dividend+4
  1785  0009C0  C03B  F006         	movff	dtoa@n+5,___aodiv@dividend+5
  1786  0009C4  C03C  F007         	movff	dtoa@n+6,___aodiv@dividend+6
  1787  0009C8  C03D  F008         	movff	dtoa@n+7,___aodiv@dividend+7
  1788  0009CC  0E0A               	movlw	10
  1789  0009CE  6E09               	movwf	___aodiv@divisor^0,c
  1790  0009D0  0E00               	movlw	0
  1791  0009D2  6E0A               	movwf	(___aodiv@divisor+1)^0,c
  1792  0009D4  0E00               	movlw	0
  1793  0009D6  6E0B               	movwf	(___aodiv@divisor+2)^0,c
  1794  0009D8  0E00               	movlw	0
  1795  0009DA  6E0C               	movwf	(___aodiv@divisor+3)^0,c
  1796  0009DC  0E00               	movlw	0
  1797  0009DE  6E0D               	movwf	(___aodiv@divisor+4)^0,c
  1798  0009E0  0E00               	movlw	0
  1799  0009E2  6E0E               	movwf	(___aodiv@divisor+5)^0,c
  1800  0009E4  0E00               	movlw	0
  1801  0009E6  6E0F               	movwf	(___aodiv@divisor+6)^0,c
  1802  0009E8  0E00               	movlw	0
  1803  0009EA  6E10               	movwf	(___aodiv@divisor+7)^0,c
  1804  0009EC  ECA0  F008         	call	___aodiv	;wreg free
  1805  0009F0  C001  F036         	movff	?___aodiv,dtoa@n
  1806  0009F4  C002  F037         	movff	?___aodiv+1,dtoa@n+1
  1807  0009F8  C003  F038         	movff	?___aodiv+2,dtoa@n+2
  1808  0009FC  C004  F039         	movff	?___aodiv+3,dtoa@n+3
  1809  000A00  C005  F03A         	movff	?___aodiv+4,dtoa@n+4
  1810  000A04  C006  F03B         	movff	?___aodiv+5,dtoa@n+5
  1811  000A08  C007  F03C         	movff	?___aodiv+6,dtoa@n+6
  1812  000A0C  C008  F03D         	movff	?___aodiv+7,dtoa@n+7
  1813  000A10                     l2117:
  1814                           
  1815                           ;D:\XC8 compilador para el MPLAB\pic\sources\c99\common\doprnt.c: 312:     while (!(i < 
      +                          1) && (n || (0 < p) || ((0 < w) && (flags & (1 << 1))))) {
  1816  000A10  BE3F               	btfsc	(dtoa@i+1)^0,7,c
  1817  000A12  EF13  F005         	goto	u1621
  1818  000A16  503F               	movf	(dtoa@i+1)^0,w,c
  1819  000A18  E108               	bnz	u1620
  1820  000A1A  043E               	decf	dtoa@i^0,w,c
  1821  000A1C  A0D8               	btfss	status,0,c
  1822  000A1E  EF13  F005         	goto	u1621
  1823  000A22  EF15  F005         	goto	u1620
  1824  000A26                     u1621:
  1825  000A26  EF46  F005         	goto	l2127
  1826  000A2A                     u1620:
  1827  000A2A  5036               	movf	dtoa@n^0,w,c
  1828  000A2C  1037               	iorwf	(dtoa@n+1)^0,w,c
  1829  000A2E  1038               	iorwf	(dtoa@n+2)^0,w,c
  1830  000A30  1039               	iorwf	(dtoa@n+3)^0,w,c
  1831  000A32  103A               	iorwf	(dtoa@n+4)^0,w,c
  1832  000A34  103B               	iorwf	(dtoa@n+5)^0,w,c
  1833  000A36  103C               	iorwf	(dtoa@n+6)^0,w,c
  1834  000A38  103D               	iorwf	(dtoa@n+7)^0,w,c
  1835  000A3A  A4D8               	btfss	status,2,c
  1836  000A3C  EF22  F005         	goto	u1631
  1837  000A40  EF24  F005         	goto	u1630
  1838  000A44                     u1631:
  1839  000A44  EF8C  F004         	goto	l2107
  1840  000A48                     u1630:
  1841  000A48  BE31               	btfsc	(dtoa@p+1)^0,7,c
  1842  000A4A  EF31  F005         	goto	u1640
  1843  000A4E  5031               	movf	(dtoa@p+1)^0,w,c
  1844  000A50  E106               	bnz	u1641
  1845  000A52  0430               	decf	dtoa@p^0,w,c
  1846  000A54  B0D8               	btfsc	status,0,c
  1847  000A56  EF2F  F005         	goto	u1641
  1848  000A5A  EF31  F005         	goto	u1640
  1849  000A5E                     u1641:
  1850  000A5E  EF8C  F004         	goto	l2107
  1851  000A62                     u1640:
  1852  000A62  BE33               	btfsc	(dtoa@w+1)^0,7,c
  1853  000A64  EF3C  F005         	goto	u1651
  1854  000A68  5033               	movf	(dtoa@w+1)^0,w,c
  1855  000A6A  E108               	bnz	u1650
  1856  000A6C  0432               	decf	dtoa@w^0,w,c
  1857  000A6E  A0D8               	btfss	status,0,c
  1858  000A70  EF3C  F005         	goto	u1651
  1859  000A74  EF3E  F005         	goto	u1650
  1860  000A78                     u1651:
  1861  000A78  EF46  F005         	goto	l2127
  1862  000A7C                     u1650:
  1863  000A7C  0100               	movlb	0	; () banked
  1864  000A7E  B366               	btfsc	_flags& (0+255),1,b
  1865  000A80  EF44  F005         	goto	u1661
  1866  000A84  EF46  F005         	goto	u1660
  1867  000A88                     u1661:
  1868  000A88  EF8C  F004         	goto	l2107
  1869  000A8C                     u1660:
  1870  000A8C                     l2127:
  1871                           
  1872                           ;D:\XC8 compilador para el MPLAB\pic\sources\c99\common\doprnt.c: 321:     if (s || (fla
      +                          gs & (1 << 2))) {
  1873  000A8C  5034               	movf	dtoa@s^0,w,c
  1874  000A8E  1035               	iorwf	(dtoa@s+1)^0,w,c
  1875  000A90  A4D8               	btfss	status,2,c
  1876  000A92  EF4D  F005         	goto	u1671
  1877  000A96  EF4F  F005         	goto	u1670
  1878  000A9A                     u1671:
  1879  000A9A  EF57  F005         	goto	l2131
  1880  000A9E                     u1670:
  1881  000A9E  0100               	movlb	0	; () banked
  1882  000AA0  A566               	btfss	_flags& (0+255),2,b
  1883  000AA2  EF55  F005         	goto	u1681
  1884  000AA6  EF57  F005         	goto	u1680
  1885  000AAA                     u1681:
  1886  000AAA  EF75  F005         	goto	l2141
  1887  000AAE                     u1680:
  1888  000AAE                     l2131:
  1889                           
  1890                           ;D:\XC8 compilador para el MPLAB\pic\sources\c99\common\doprnt.c: 322:         --i;
  1891  000AAE  063E               	decf	dtoa@i^0,f,c
  1892  000AB0  A0D8               	btfss	status,0,c
  1893  000AB2  063F               	decf	(dtoa@i+1)^0,f,c
  1894  000AB4                     
  1895                           ;D:\XC8 compilador para el MPLAB\pic\sources\c99\common\doprnt.c: 323:         dbuf[i] =
      +                           s ? '-' : '+';
  1896  000AB4  5034               	movf	dtoa@s^0,w,c
  1897  000AB6  1035               	iorwf	(dtoa@s+1)^0,w,c
  1898  000AB8  A4D8               	btfss	status,2,c
  1899  000ABA  EF61  F005         	goto	u1691
  1900  000ABE  EF63  F005         	goto	u1690
  1901  000AC2                     u1691:
  1902  000AC2  EF69  F005         	goto	l2137
  1903  000AC6                     u1690:
  1904  000AC6  0E00               	movlw	0
  1905  000AC8  6E2F               	movwf	(_dtoa$1016+1)^0,c
  1906  000ACA  0E2B               	movlw	43
  1907  000ACC  6E2E               	movwf	_dtoa$1016^0,c
  1908  000ACE  EF6D  F005         	goto	l2139
  1909  000AD2                     l2137:
  1910  000AD2  0E00               	movlw	0
  1911  000AD4  6E2F               	movwf	(_dtoa$1016+1)^0,c
  1912  000AD6  0E2D               	movlw	45
  1913  000AD8  6E2E               	movwf	_dtoa$1016^0,c
  1914  000ADA                     l2139:
  1915  000ADA  0E6B               	movlw	low _dbuf
  1916  000ADC  243E               	addwf	dtoa@i^0,w,c
  1917  000ADE  6ED9               	movwf	fsr2l,c
  1918  000AE0  0E00               	movlw	high _dbuf
  1919  000AE2  203F               	addwfc	(dtoa@i+1)^0,w,c
  1920  000AE4  6EDA               	movwf	fsr2h,c
  1921  000AE6  C02E  FFDF         	movff	_dtoa$1016,indf2
  1922  000AEA                     l2141:
  1923                           
  1924                           ;D:\XC8 compilador para el MPLAB\pic\sources\c99\common\doprnt.c: 327:     return pad(fp
      +                          , &dbuf[i], w);
  1925  000AEA  C01C  F011         	movff	dtoa@fp,pad@fp
  1926  000AEE  C01D  F012         	movff	dtoa@fp+1,pad@fp+1
  1927  000AF2  0E6B               	movlw	low _dbuf
  1928  000AF4  243E               	addwf	dtoa@i^0,w,c
  1929  000AF6  6E13               	movwf	pad@buf^0,c
  1930  000AF8  0E00               	movlw	high _dbuf
  1931  000AFA  203F               	addwfc	(dtoa@i+1)^0,w,c
  1932  000AFC  6E14               	movwf	(pad@buf+1)^0,c
  1933  000AFE  C032  F015         	movff	dtoa@w,pad@p
  1934  000B02  C033  F016         	movff	dtoa@w+1,pad@p+1
  1935  000B06  EC05  F00B         	call	_pad	;wreg free
  1936  000B0A  C011  F01C         	movff	?_pad,?_dtoa
  1937  000B0E  C012  F01D         	movff	?_pad+1,?_dtoa+1
  1938  000B12  0012               	return		;funcret
  1939  000B14                     __end_of_dtoa:
  1940                           	callstack 0
  1941                           
  1942 ;; *************** function _pad *****************
  1943 ;; Defined at:
  1944 ;;		line 72 in file "D:\XC8 compilador para el MPLAB\pic\sources\c99\common\doprnt.c"
  1945 ;; Parameters:    Size  Location     Type
  1946 ;;  fp              2   16[COMRAM] PTR struct _IO_FILE
  1947 ;;		 -> sprintf@f(6), 
  1948 ;;  buf             2   18[COMRAM] PTR unsigned char 
  1949 ;;		 -> dbuf(32), 
  1950 ;;  p               2   20[COMRAM] int 
  1951 ;; Auto vars:     Size  Location     Type
  1952 ;;  w               2   25[COMRAM] int 
  1953 ;;  i               2   23[COMRAM] int 
  1954 ;; Return value:  Size  Location     Type
  1955 ;;                  2   16[COMRAM] int 
  1956 ;; Registers used:
  1957 ;;		wreg, fsr1l, fsr1h, fsr2l, fsr2h, status,2, status,0, cstack
  1958 ;; Tracked objects:
  1959 ;;		On entry : 0/0
  1960 ;;		On exit  : 0/0
  1961 ;;		Unchanged: 0/0
  1962 ;; Data sizes:     COMRAM   BANK0   BANK1   BANK2   BANK3   BANK4   BANK5   BANK6   BANK7
  1963 ;;      Params:         6       0       0       0       0       0       0       0       0
  1964 ;;      Locals:         4       0       0       0       0       0       0       0       0
  1965 ;;      Temps:          1       0       0       0       0       0       0       0       0
  1966 ;;      Totals:        11       0       0       0       0       0       0       0       0
  1967 ;;Total ram usage:       11 bytes
  1968 ;; Hardware stack levels used: 1
  1969 ;; Hardware stack levels required when called: 3
  1970 ;; This function calls:
  1971 ;;		_fputc
  1972 ;;		_fputs
  1973 ;;		_strlen
  1974 ;; This function is called by:
  1975 ;;		_dtoa
  1976 ;; This function uses a non-reentrant model
  1977 ;;
  1978                           
  1979                           	psect	text5
  1980  00160A                     __ptext5:
  1981                           	callstack 0
  1982  00160A                     _pad:
  1983                           	callstack 23
  1984  00160A                     
  1985                           ;D:\XC8 compilador para el MPLAB\pic\sources\c99\common\doprnt.c: 72: static int pad(FIL
      +                          E *fp, char *buf, int p);D:\XC8 compilador para el MPLAB\pic\sources\c99\common\doprnt.c
      +                          : 73: {;D:\XC8 compilador para el MPLAB\pic\sources\c99\common\doprnt.c: 74:     int i, 
      +                          w;;D:\XC8 compilador para el MPLAB\pic\sources\c99\common\doprnt.c: 77:     if (flags & 
      +                          (1 << 0)) {
  1986  00160A  0100               	movlb	0	; () banked
  1987  00160C  A166               	btfss	_flags& (0+255),0,b
  1988  00160E  EF0B  F00B         	goto	u1501
  1989  001612  EF0D  F00B         	goto	u1500
  1990  001616                     u1501:
  1991  001616  EF17  F00B         	goto	l2041
  1992  00161A                     u1500:
  1993  00161A                     
  1994                           ; BSR set to: 0
  1995                           ;D:\XC8 compilador para el MPLAB\pic\sources\c99\common\doprnt.c: 78:         fputs((con
      +                          st char *)buf, fp);
  1996  00161A  C013  F00A         	movff	pad@buf,fputs@s
  1997  00161E  C014  F00B         	movff	pad@buf+1,fputs@s+1
  1998  001622  C011  F00C         	movff	pad@fp,fputs@fp
  1999  001626  C012  F00D         	movff	pad@fp+1,fputs@fp+1
  2000  00162A  EC60  F00D         	call	_fputs	;wreg free
  2001  00162E                     l2041:
  2002                           
  2003                           ;D:\XC8 compilador para el MPLAB\pic\sources\c99\common\doprnt.c: 82:     w = (p < 0) ? 
      +                          0 : p;
  2004  00162E  BE16               	btfsc	(pad@p+1)^0,7,c
  2005  001630  EF1C  F00B         	goto	u1511
  2006  001634  EF1E  F00B         	goto	u1510
  2007  001638                     u1511:
  2008  001638  EF24  F00B         	goto	l2045
  2009  00163C                     u1510:
  2010  00163C  C015  F01A         	movff	pad@p,pad@w
  2011  001640  C016  F01B         	movff	pad@p+1,pad@w+1
  2012  001644  EF28  F00B         	goto	l1102
  2013  001648                     l2045:
  2014  001648  0E00               	movlw	0
  2015  00164A  6E1B               	movwf	(pad@w+1)^0,c
  2016  00164C  0E00               	movlw	0
  2017  00164E  6E1A               	movwf	pad@w^0,c
  2018  001650                     l1102:
  2019                           
  2020                           ;D:\XC8 compilador para el MPLAB\pic\sources\c99\common\doprnt.c: 83:     i = 0;
  2021  001650  0E00               	movlw	0
  2022  001652  6E19               	movwf	(pad@i+1)^0,c
  2023  001654  0E00               	movlw	0
  2024  001656  6E18               	movwf	pad@i^0,c
  2025                           
  2026                           ;D:\XC8 compilador para el MPLAB\pic\sources\c99\common\doprnt.c: 84:     while (i < w) 
      +                          {
  2027  001658  EF3A  F00B         	goto	l2051
  2028  00165C                     l2047:
  2029                           
  2030                           ;D:\XC8 compilador para el MPLAB\pic\sources\c99\common\doprnt.c: 85:         fputc(' ',
      +                           fp);
  2031  00165C  0E00               	movlw	0
  2032  00165E  6E02               	movwf	(fputc@c+1)^0,c
  2033  001660  0E20               	movlw	32
  2034  001662  6E01               	movwf	fputc@c^0,c
  2035  001664  C011  F003         	movff	pad@fp,fputc@fp
  2036  001668  C012  F004         	movff	pad@fp+1,fputc@fp+1
  2037  00166C  ECA0  F00A         	call	_fputc	;wreg free
  2038  001670                     
  2039                           ;D:\XC8 compilador para el MPLAB\pic\sources\c99\common\doprnt.c: 86:         ++i;
  2040  001670  4A18               	infsnz	pad@i^0,f,c
  2041  001672  2A19               	incf	(pad@i+1)^0,f,c
  2042  001674                     l2051:
  2043                           
  2044                           ;D:\XC8 compilador para el MPLAB\pic\sources\c99\common\doprnt.c: 84:     while (i < w) 
      +                          {
  2045  001674  501A               	movf	pad@w^0,w,c
  2046  001676  5C18               	subwf	pad@i^0,w,c
  2047  001678  5019               	movf	(pad@i+1)^0,w,c
  2048  00167A  0A80               	xorlw	128
  2049  00167C  6E17               	movwf	??_pad^0,c
  2050  00167E  501B               	movf	(pad@w+1)^0,w,c
  2051  001680  0A80               	xorlw	128
  2052  001682  5817               	subwfb	??_pad^0,w,c
  2053  001684  A0D8               	btfss	status,0,c
  2054  001686  EF47  F00B         	goto	u1521
  2055  00168A  EF49  F00B         	goto	u1520
  2056  00168E                     u1521:
  2057  00168E  EF2E  F00B         	goto	l2047
  2058  001692                     u1520:
  2059  001692                     
  2060                           ;D:\XC8 compilador para el MPLAB\pic\sources\c99\common\doprnt.c: 90:     if (!(flags & 
      +                          (1 << 0))) {
  2061  001692  0100               	movlb	0	; () banked
  2062  001694  B166               	btfsc	_flags& (0+255),0,b
  2063  001696  EF4F  F00B         	goto	u1531
  2064  00169A  EF51  F00B         	goto	u1530
  2065  00169E                     u1531:
  2066  00169E  EF5B  F00B         	goto	l2055
  2067  0016A2                     u1530:
  2068  0016A2                     
  2069                           ; BSR set to: 0
  2070                           ;D:\XC8 compilador para el MPLAB\pic\sources\c99\common\doprnt.c: 91:         fputs((con
      +                          st char *)buf, fp);
  2071  0016A2  C013  F00A         	movff	pad@buf,fputs@s
  2072  0016A6  C014  F00B         	movff	pad@buf+1,fputs@s+1
  2073  0016AA  C011  F00C         	movff	pad@fp,fputs@fp
  2074  0016AE  C012  F00D         	movff	pad@fp+1,fputs@fp+1
  2075  0016B2  EC60  F00D         	call	_fputs	;wreg free
  2076  0016B6                     l2055:
  2077                           
  2078                           ;D:\XC8 compilador para el MPLAB\pic\sources\c99\common\doprnt.c: 94:     return (int)(s
      +                          trlen(buf) + (size_t)w);
  2079  0016B6  C013  F001         	movff	pad@buf,strlen@s
  2080  0016BA  C014  F002         	movff	pad@buf+1,strlen@s+1
  2081  0016BE  ECFC  F00D         	call	_strlen	;wreg free
  2082  0016C2  501A               	movf	pad@w^0,w,c
  2083  0016C4  2401               	addwf	?_strlen^0,w,c
  2084  0016C6  6E11               	movwf	?_pad^0,c
  2085  0016C8  501B               	movf	(pad@w+1)^0,w,c
  2086  0016CA  2002               	addwfc	(?_strlen+1)^0,w,c
  2087  0016CC  6E12               	movwf	(?_pad+1)^0,c
  2088  0016CE  0012               	return		;funcret
  2089  0016D0                     __end_of_pad:
  2090                           	callstack 0
  2091                           
  2092 ;; *************** function _strlen *****************
  2093 ;; Defined at:
  2094 ;;		line 5 in file "D:\XC8 compilador para el MPLAB\pic\sources\c99\common\strlen.c"
  2095 ;; Parameters:    Size  Location     Type
  2096 ;;  s               2    0[COMRAM] PTR const unsigned char 
  2097 ;;		 -> dbuf(32), 
  2098 ;; Auto vars:     Size  Location     Type
  2099 ;;  a               2    2[COMRAM] PTR const unsigned char 
  2100 ;;		 -> dbuf(32), 
  2101 ;; Return value:  Size  Location     Type
  2102 ;;                  2    0[COMRAM] unsigned int 
  2103 ;; Registers used:
  2104 ;;		wreg, fsr2l, fsr2h, status,2, status,0
  2105 ;; Tracked objects:
  2106 ;;		On entry : 0/0
  2107 ;;		On exit  : 0/0
  2108 ;;		Unchanged: 0/0
  2109 ;; Data sizes:     COMRAM   BANK0   BANK1   BANK2   BANK3   BANK4   BANK5   BANK6   BANK7
  2110 ;;      Params:         2       0       0       0       0       0       0       0       0
  2111 ;;      Locals:         2       0       0       0       0       0       0       0       0
  2112 ;;      Temps:          0       0       0       0       0       0       0       0       0
  2113 ;;      Totals:         4       0       0       0       0       0       0       0       0
  2114 ;;Total ram usage:        4 bytes
  2115 ;; Hardware stack levels used: 1
  2116 ;; This function calls:
  2117 ;;		Nothing
  2118 ;; This function is called by:
  2119 ;;		_pad
  2120 ;; This function uses a non-reentrant model
  2121 ;;
  2122                           
  2123                           	psect	text6
  2124  001BF8                     __ptext6:
  2125                           	callstack 0
  2126  001BF8                     _strlen:
  2127                           	callstack 25
  2128  001BF8  C001  F003         	movff	strlen@s,strlen@a
  2129  001BFC  C002  F004         	movff	strlen@s+1,strlen@a+1
  2130  001C00  EF04  F00E         	goto	l1951
  2131  001C04                     l1949:
  2132  001C04  4A01               	infsnz	strlen@s^0,f,c
  2133  001C06  2A02               	incf	(strlen@s+1)^0,f,c
  2134  001C08                     l1951:
  2135  001C08  C001  FFD9         	movff	strlen@s,fsr2l
  2136  001C0C  C002  FFDA         	movff	strlen@s+1,fsr2h
  2137  001C10  50DF               	movf	indf2,w,c
  2138  001C12  A4D8               	btfss	status,2,c
  2139  001C14  EF0E  F00E         	goto	u1361
  2140  001C18  EF10  F00E         	goto	u1360
  2141  001C1C                     u1361:
  2142  001C1C  EF02  F00E         	goto	l1949
  2143  001C20                     u1360:
  2144  001C20  5003               	movf	strlen@a^0,w,c
  2145  001C22  5C01               	subwf	strlen@s^0,w,c
  2146  001C24  6E01               	movwf	?_strlen^0,c
  2147  001C26  5004               	movf	(strlen@a+1)^0,w,c
  2148  001C28  5802               	subwfb	(strlen@s+1)^0,w,c
  2149  001C2A  6E02               	movwf	(?_strlen+1)^0,c
  2150  001C2C  0012               	return		;funcret
  2151  001C2E                     __end_of_strlen:
  2152                           	callstack 0
  2153                           
  2154 ;; *************** function _fputs *****************
  2155 ;; Defined at:
  2156 ;;		line 8 in file "D:\XC8 compilador para el MPLAB\pic\sources\c99\common\nf_fputs.c"
  2157 ;; Parameters:    Size  Location     Type
  2158 ;;  s               2    9[COMRAM] PTR const unsigned char 
  2159 ;;		 -> dbuf(32), 
  2160 ;;  fp              2   11[COMRAM] PTR struct _IO_FILE
  2161 ;;		 -> sprintf@f(6), 
  2162 ;; Auto vars:     Size  Location     Type
  2163 ;;  i               2   14[COMRAM] int 
  2164 ;;  c               1   13[COMRAM] unsigned char 
  2165 ;; Return value:  Size  Location     Type
  2166 ;;                  2    9[COMRAM] int 
  2167 ;; Registers used:
  2168 ;;		wreg, fsr1l, fsr1h, fsr2l, fsr2h, status,2, status,0, cstack
  2169 ;; Tracked objects:
  2170 ;;		On entry : 0/0
  2171 ;;		On exit  : 0/0
  2172 ;;		Unchanged: 0/0
  2173 ;; Data sizes:     COMRAM   BANK0   BANK1   BANK2   BANK3   BANK4   BANK5   BANK6   BANK7
  2174 ;;      Params:         4       0       0       0       0       0       0       0       0
  2175 ;;      Locals:         3       0       0       0       0       0       0       0       0
  2176 ;;      Temps:          0       0       0       0       0       0       0       0       0
  2177 ;;      Totals:         7       0       0       0       0       0       0       0       0
  2178 ;;Total ram usage:        7 bytes
  2179 ;; Hardware stack levels used: 1
  2180 ;; Hardware stack levels required when called: 2
  2181 ;; This function calls:
  2182 ;;		_fputc
  2183 ;; This function is called by:
  2184 ;;		_pad
  2185 ;; This function uses a non-reentrant model
  2186 ;;
  2187                           
  2188                           	psect	text7
  2189  001AC0                     __ptext7:
  2190                           	callstack 0
  2191  001AC0                     _fputs:
  2192                           	callstack 23
  2193  001AC0  0E00               	movlw	0
  2194  001AC2  6E10               	movwf	(fputs@i+1)^0,c
  2195  001AC4  0E00               	movlw	0
  2196  001AC6  6E0F               	movwf	fputs@i^0,c
  2197  001AC8  EF71  F00D         	goto	l1945
  2198  001ACC                     l1941:
  2199  001ACC  C00E  F001         	movff	fputs@c,fputc@c
  2200  001AD0  6A02               	clrf	(fputc@c+1)^0,c
  2201  001AD2  C00C  F003         	movff	fputs@fp,fputc@fp
  2202  001AD6  C00D  F004         	movff	fputs@fp+1,fputc@fp+1
  2203  001ADA  ECA0  F00A         	call	_fputc	;wreg free
  2204  001ADE  4A0F               	infsnz	fputs@i^0,f,c
  2205  001AE0  2A10               	incf	(fputs@i+1)^0,f,c
  2206  001AE2                     l1945:
  2207  001AE2  500F               	movf	fputs@i^0,w,c
  2208  001AE4  240A               	addwf	fputs@s^0,w,c
  2209  001AE6  6ED9               	movwf	fsr2l,c
  2210  001AE8  5010               	movf	(fputs@i+1)^0,w,c
  2211  001AEA  200B               	addwfc	(fputs@s+1)^0,w,c
  2212  001AEC  6EDA               	movwf	fsr2h,c
  2213  001AEE  50DF               	movf	indf2,w,c
  2214  001AF0  6E0E               	movwf	fputs@c^0,c
  2215  001AF2  500E               	movf	fputs@c^0,w,c
  2216  001AF4  A4D8               	btfss	status,2,c
  2217  001AF6  EF7F  F00D         	goto	u1351
  2218  001AFA  EF81  F00D         	goto	u1350
  2219  001AFE                     u1351:
  2220  001AFE  EF66  F00D         	goto	l1941
  2221  001B02                     u1350:
  2222  001B02  0012               	return		;funcret
  2223  001B04                     __end_of_fputs:
  2224                           	callstack 0
  2225                           
  2226 ;; *************** function _fputc *****************
  2227 ;; Defined at:
  2228 ;;		line 8 in file "D:\XC8 compilador para el MPLAB\pic\sources\c99\common\nf_fputc.c"
  2229 ;; Parameters:    Size  Location     Type
  2230 ;;  c               2    0[COMRAM] int 
  2231 ;;  fp              2    2[COMRAM] PTR struct _IO_FILE
  2232 ;;		 -> sprintf@f(6), 
  2233 ;; Auto vars:     Size  Location     Type
  2234 ;;		None
  2235 ;; Return value:  Size  Location     Type
  2236 ;;                  2    0[COMRAM] int 
  2237 ;; Registers used:
  2238 ;;		wreg, fsr1l, fsr1h, fsr2l, fsr2h, status,2, status,0, cstack
  2239 ;; Tracked objects:
  2240 ;;		On entry : 0/0
  2241 ;;		On exit  : 0/0
  2242 ;;		Unchanged: 0/0
  2243 ;; Data sizes:     COMRAM   BANK0   BANK1   BANK2   BANK3   BANK4   BANK5   BANK6   BANK7
  2244 ;;      Params:         4       0       0       0       0       0       0       0       0
  2245 ;;      Locals:         0       0       0       0       0       0       0       0       0
  2246 ;;      Temps:          5       0       0       0       0       0       0       0       0
  2247 ;;      Totals:         9       0       0       0       0       0       0       0       0
  2248 ;;Total ram usage:        9 bytes
  2249 ;; Hardware stack levels used: 1
  2250 ;; Hardware stack levels required when called: 1
  2251 ;; This function calls:
  2252 ;;		_putch
  2253 ;; This function is called by:
  2254 ;;		_pad
  2255 ;;		_vfpfcnvrt
  2256 ;;		_fputs
  2257 ;; This function uses a non-reentrant model
  2258 ;;
  2259                           
  2260                           	psect	text8
  2261  001540                     __ptext8:
  2262                           	callstack 0
  2263  001540                     _fputc:
  2264                           	callstack 26
  2265  001540  5003               	movf	fputc@fp^0,w,c
  2266  001542  1004               	iorwf	(fputc@fp+1)^0,w,c
  2267  001544  B4D8               	btfsc	status,2,c
  2268  001546  EFA7  F00A         	goto	u1311
  2269  00154A  EFA9  F00A         	goto	u1310
  2270  00154E                     u1311:
  2271  00154E  EFB2  F00A         	goto	l1929
  2272  001552                     u1310:
  2273  001552  5003               	movf	fputc@fp^0,w,c
  2274  001554  1004               	iorwf	(fputc@fp+1)^0,w,c
  2275  001556  A4D8               	btfss	status,2,c
  2276  001558  EFB0  F00A         	goto	u1321
  2277  00155C  EFB2  F00A         	goto	u1320
  2278  001560                     u1321:
  2279  001560  EFB7  F00A         	goto	l1931
  2280  001564                     u1320:
  2281  001564                     l1929:
  2282  001564  5001               	movf	fputc@c^0,w,c
  2283  001566  EC93  F00E         	call	_putch
  2284  00156A  EF04  F00B         	goto	l1166
  2285  00156E                     l1931:
  2286  00156E  EE20 F004          	lfsr	2,4
  2287  001572  5003               	movf	fputc@fp^0,w,c
  2288  001574  26D9               	addwf	fsr2l,f,c
  2289  001576  5004               	movf	(fputc@fp+1)^0,w,c
  2290  001578  22DA               	addwfc	fsr2h,f,c
  2291  00157A  50DE               	movf	postinc2,w,c
  2292  00157C  10DE               	iorwf	postinc2,w,c
  2293  00157E  B4D8               	btfsc	status,2,c
  2294  001580  EFC4  F00A         	goto	u1331
  2295  001584  EFC6  F00A         	goto	u1330
  2296  001588                     u1331:
  2297  001588  EFE1  F00A         	goto	l1935
  2298  00158C                     u1330:
  2299  00158C  EE20 F004          	lfsr	2,4
  2300  001590  5003               	movf	fputc@fp^0,w,c
  2301  001592  26D9               	addwf	fsr2l,f,c
  2302  001594  5004               	movf	(fputc@fp+1)^0,w,c
  2303  001596  22DA               	addwfc	fsr2h,f,c
  2304  001598  EE10 F002          	lfsr	1,2
  2305  00159C  5003               	movf	fputc@fp^0,w,c
  2306  00159E  26E1               	addwf	fsr1l,f,c
  2307  0015A0  5004               	movf	(fputc@fp+1)^0,w,c
  2308  0015A2  22E2               	addwfc	fsr1h,f,c
  2309  0015A4  50DE               	movf	postinc2,w,c
  2310  0015A6  5CE6               	subwf	postinc1,w,c
  2311  0015A8  50E6               	movf	postinc1,w,c
  2312  0015AA  0A80               	xorlw	128
  2313  0015AC  6E09               	movwf	(??_fputc+4)^0,c
  2314  0015AE  50DE               	movf	postinc2,w,c
  2315  0015B0  0A80               	xorlw	128
  2316  0015B2  5809               	subwfb	(??_fputc+4)^0,w,c
  2317  0015B4  B0D8               	btfsc	status,0,c
  2318  0015B6  EFDF  F00A         	goto	u1341
  2319  0015BA  EFE1  F00A         	goto	u1340
  2320  0015BE                     u1341:
  2321  0015BE  EF04  F00B         	goto	l1166
  2322  0015C2                     u1340:
  2323  0015C2                     l1935:
  2324  0015C2  EE20 F002          	lfsr	2,2
  2325  0015C6  5003               	movf	fputc@fp^0,w,c
  2326  0015C8  26D9               	addwf	fsr2l,f,c
  2327  0015CA  5004               	movf	(fputc@fp+1)^0,w,c
  2328  0015CC  22DA               	addwfc	fsr2h,f,c
  2329  0015CE  CFDE F005          	movff	postinc2,??_fputc
  2330  0015D2  CFDD F006          	movff	postdec2,??_fputc+1
  2331  0015D6  C003  FFD9         	movff	fputc@fp,fsr2l
  2332  0015DA  C004  FFDA         	movff	fputc@fp+1,fsr2h
  2333  0015DE  CFDE F007          	movff	postinc2,??_fputc+2
  2334  0015E2  CFDD F008          	movff	postdec2,??_fputc+3
  2335  0015E6  5005               	movf	??_fputc^0,w,c
  2336  0015E8  2407               	addwf	(??_fputc+2)^0,w,c
  2337  0015EA  6ED9               	movwf	fsr2l,c
  2338  0015EC  5006               	movf	(??_fputc+1)^0,w,c
  2339  0015EE  2008               	addwfc	(??_fputc+3)^0,w,c
  2340  0015F0  6EDA               	movwf	fsr2h,c
  2341  0015F2  C001  FFDF         	movff	fputc@c,indf2
  2342  0015F6  EE20 F002          	lfsr	2,2
  2343  0015FA  5003               	movf	fputc@fp^0,w,c
  2344  0015FC  26D9               	addwf	fsr2l,f,c
  2345  0015FE  5004               	movf	(fputc@fp+1)^0,w,c
  2346  001600  22DA               	addwfc	fsr2h,f,c
  2347  001602  2ADE               	incf	postinc2,f,c
  2348  001604  0E00               	movlw	0
  2349  001606  22DD               	addwfc	postdec2,f,c
  2350  001608                     l1166:
  2351  001608  0012               	return		;funcret
  2352  00160A                     __end_of_fputc:
  2353                           	callstack 0
  2354                           
  2355 ;; *************** function _putch *****************
  2356 ;; Defined at:
  2357 ;;		line 7 in file "D:\XC8 compilador para el MPLAB\pic\sources\c99\common\putch.c"
  2358 ;; Parameters:    Size  Location     Type
  2359 ;;  c               1    wreg     unsigned char 
  2360 ;; Auto vars:     Size  Location     Type
  2361 ;;  c               1    0[COMRAM] unsigned char 
  2362 ;; Return value:  Size  Location     Type
  2363 ;;                  1    wreg      void 
  2364 ;; Registers used:
  2365 ;;		wreg
  2366 ;; Tracked objects:
  2367 ;;		On entry : 0/0
  2368 ;;		On exit  : 0/0
  2369 ;;		Unchanged: 0/0
  2370 ;; Data sizes:     COMRAM   BANK0   BANK1   BANK2   BANK3   BANK4   BANK5   BANK6   BANK7
  2371 ;;      Params:         0       0       0       0       0       0       0       0       0
  2372 ;;      Locals:         0       0       0       0       0       0       0       0       0
  2373 ;;      Temps:          0       0       0       0       0       0       0       0       0
  2374 ;;      Totals:         0       0       0       0       0       0       0       0       0
  2375 ;;Total ram usage:        0 bytes
  2376 ;; Hardware stack levels used: 1
  2377 ;; This function calls:
  2378 ;;		Nothing
  2379 ;; This function is called by:
  2380 ;;		_fputc
  2381 ;; This function uses a non-reentrant model
  2382 ;;
  2383                           
  2384                           	psect	text9
  2385  001D26                     __ptext9:
  2386                           	callstack 0
  2387  001D26                     _putch:
  2388                           	callstack 26
  2389  001D26  0012               	return		;funcret
  2390  001D28                     __end_of_putch:
  2391                           	callstack 0
  2392                           
  2393 ;; *************** function _abs *****************
  2394 ;; Defined at:
  2395 ;;		line 1 in file "D:\XC8 compilador para el MPLAB\pic\sources\c99\common\abs.c"
  2396 ;; Parameters:    Size  Location     Type
  2397 ;;  a               2   18[COMRAM] int 
  2398 ;; Auto vars:     Size  Location     Type
  2399 ;;		None
  2400 ;; Return value:  Size  Location     Type
  2401 ;;                  2   18[COMRAM] int 
  2402 ;; Registers used:
  2403 ;;		wreg, status,2, status,0
  2404 ;; Tracked objects:
  2405 ;;		On entry : 0/0
  2406 ;;		On exit  : 0/0
  2407 ;;		Unchanged: 0/0
  2408 ;; Data sizes:     COMRAM   BANK0   BANK1   BANK2   BANK3   BANK4   BANK5   BANK6   BANK7
  2409 ;;      Params:         2       0       0       0       0       0       0       0       0
  2410 ;;      Locals:         0       0       0       0       0       0       0       0       0
  2411 ;;      Temps:          2       0       0       0       0       0       0       0       0
  2412 ;;      Totals:         4       0       0       0       0       0       0       0       0
  2413 ;;Total ram usage:        4 bytes
  2414 ;; Hardware stack levels used: 1
  2415 ;; This function calls:
  2416 ;;		Nothing
  2417 ;; This function is called by:
  2418 ;;		_dtoa
  2419 ;; This function uses a non-reentrant model
  2420 ;;
  2421                           
  2422                           	psect	text10
  2423  001B04                     __ptext10:
  2424                           	callstack 0
  2425  001B04                     _abs:
  2426                           	callstack 26
  2427  001B04  BE14               	btfsc	(abs@a+1)^0,7,c
  2428  001B06  EF8F  F00D         	goto	u1540
  2429  001B0A  5014               	movf	(abs@a+1)^0,w,c
  2430  001B0C  E106               	bnz	u1541
  2431  001B0E  0413               	decf	abs@a^0,w,c
  2432  001B10  B0D8               	btfsc	status,0,c
  2433  001B12  EF8D  F00D         	goto	u1541
  2434  001B16  EF8F  F00D         	goto	u1540
  2435  001B1A                     u1541:
  2436  001B1A  EF9D  F00D         	goto	l1151
  2437  001B1E                     u1540:
  2438  001B1E  C013  F015         	movff	abs@a,??_abs
  2439  001B22  C014  F016         	movff	abs@a+1,??_abs+1
  2440  001B26  1E15               	comf	??_abs^0,f,c
  2441  001B28  1E16               	comf	(??_abs+1)^0,f,c
  2442  001B2A  4A15               	infsnz	??_abs^0,f,c
  2443  001B2C  2A16               	incf	(??_abs+1)^0,f,c
  2444  001B2E  C015  F013         	movff	??_abs,?_abs
  2445  001B32  C016  F014         	movff	??_abs+1,?_abs+1
  2446  001B36  EFA1  F00D         	goto	l1154
  2447  001B3A                     l1151:
  2448  001B3A  C013  F013         	movff	abs@a,?_abs
  2449  001B3E  C014  F014         	movff	abs@a+1,?_abs+1
  2450  001B42                     l1154:
  2451  001B42  0012               	return		;funcret
  2452  001B44                     __end_of_abs:
  2453                           	callstack 0
  2454                           
  2455 ;; *************** function ___aomod *****************
  2456 ;; Defined at:
  2457 ;;		line 9 in file "D:\XC8 compilador para el MPLAB\pic\sources\c99\common\aomod.c"
  2458 ;; Parameters:    Size  Location     Type
  2459 ;;  dividend        8    0[COMRAM] long long 
  2460 ;;  divisor         8    8[COMRAM] long long 
  2461 ;; Auto vars:     Size  Location     Type
  2462 ;;  sign            1   17[COMRAM] unsigned char 
  2463 ;;  counter         1   16[COMRAM] unsigned char 
  2464 ;; Return value:  Size  Location     Type
  2465 ;;                  8    0[COMRAM] long long 
  2466 ;; Registers used:
  2467 ;;		wreg, status,2, status,0
  2468 ;; Tracked objects:
  2469 ;;		On entry : 0/0
  2470 ;;		On exit  : 0/0
  2471 ;;		Unchanged: 0/0
  2472 ;; Data sizes:     COMRAM   BANK0   BANK1   BANK2   BANK3   BANK4   BANK5   BANK6   BANK7
  2473 ;;      Params:        16       0       0       0       0       0       0       0       0
  2474 ;;      Locals:         2       0       0       0       0       0       0       0       0
  2475 ;;      Temps:          0       0       0       0       0       0       0       0       0
  2476 ;;      Totals:        18       0       0       0       0       0       0       0       0
  2477 ;;Total ram usage:       18 bytes
  2478 ;; Hardware stack levels used: 1
  2479 ;; This function calls:
  2480 ;;		Nothing
  2481 ;; This function is called by:
  2482 ;;		_dtoa
  2483 ;; This function uses a non-reentrant model
  2484 ;;
  2485                           
  2486                           	psect	text11
  2487  0012C8                     __ptext11:
  2488                           	callstack 0
  2489  0012C8                     ___aomod:
  2490                           	callstack 26
  2491  0012C8  0E00               	movlw	0
  2492  0012CA  6E12               	movwf	___aomod@sign^0,c
  2493  0012CC  BE08               	btfsc	(___aomod@dividend+7)^0,7,c
  2494  0012CE  EF6D  F009         	goto	u1440
  2495  0012D2  EF6B  F009         	goto	u1441
  2496  0012D6                     u1441:
  2497  0012D6  EF7F  F009         	goto	l2009
  2498  0012DA                     u1440:
  2499  0012DA  1E08               	comf	(___aomod@dividend+7)^0,f,c
  2500  0012DC  1E07               	comf	(___aomod@dividend+6)^0,f,c
  2501  0012DE  1E06               	comf	(___aomod@dividend+5)^0,f,c
  2502  0012E0  1E05               	comf	(___aomod@dividend+4)^0,f,c
  2503  0012E2  1E04               	comf	(___aomod@dividend+3)^0,f,c
  2504  0012E4  1E03               	comf	(___aomod@dividend+2)^0,f,c
  2505  0012E6  1E02               	comf	(___aomod@dividend+1)^0,f,c
  2506  0012E8  6C01               	negf	___aomod@dividend^0,c
  2507  0012EA  0E00               	movlw	0
  2508  0012EC  2202               	addwfc	(___aomod@dividend+1)^0,f,c
  2509  0012EE  2203               	addwfc	(___aomod@dividend+2)^0,f,c
  2510  0012F0  2204               	addwfc	(___aomod@dividend+3)^0,f,c
  2511  0012F2  2205               	addwfc	(___aomod@dividend+4)^0,f,c
  2512  0012F4  2206               	addwfc	(___aomod@dividend+5)^0,f,c
  2513  0012F6  2207               	addwfc	(___aomod@dividend+6)^0,f,c
  2514  0012F8  2208               	addwfc	(___aomod@dividend+7)^0,f,c
  2515  0012FA  0E01               	movlw	1
  2516  0012FC  6E12               	movwf	___aomod@sign^0,c
  2517  0012FE                     l2009:
  2518  0012FE  BE10               	btfsc	(___aomod@divisor+7)^0,7,c
  2519  001300  EF86  F009         	goto	u1450
  2520  001304  EF84  F009         	goto	u1451
  2521  001308                     u1451:
  2522  001308  EF96  F009         	goto	l2013
  2523  00130C                     u1450:
  2524  00130C  1E10               	comf	(___aomod@divisor+7)^0,f,c
  2525  00130E  1E0F               	comf	(___aomod@divisor+6)^0,f,c
  2526  001310  1E0E               	comf	(___aomod@divisor+5)^0,f,c
  2527  001312  1E0D               	comf	(___aomod@divisor+4)^0,f,c
  2528  001314  1E0C               	comf	(___aomod@divisor+3)^0,f,c
  2529  001316  1E0B               	comf	(___aomod@divisor+2)^0,f,c
  2530  001318  1E0A               	comf	(___aomod@divisor+1)^0,f,c
  2531  00131A  6C09               	negf	___aomod@divisor^0,c
  2532  00131C  0E00               	movlw	0
  2533  00131E  220A               	addwfc	(___aomod@divisor+1)^0,f,c
  2534  001320  220B               	addwfc	(___aomod@divisor+2)^0,f,c
  2535  001322  220C               	addwfc	(___aomod@divisor+3)^0,f,c
  2536  001324  220D               	addwfc	(___aomod@divisor+4)^0,f,c
  2537  001326  220E               	addwfc	(___aomod@divisor+5)^0,f,c
  2538  001328  220F               	addwfc	(___aomod@divisor+6)^0,f,c
  2539  00132A  2210               	addwfc	(___aomod@divisor+7)^0,f,c
  2540  00132C                     l2013:
  2541  00132C  5009               	movf	___aomod@divisor^0,w,c
  2542  00132E  100A               	iorwf	(___aomod@divisor+1)^0,w,c
  2543  001330  100B               	iorwf	(___aomod@divisor+2)^0,w,c
  2544  001332  100C               	iorwf	(___aomod@divisor+3)^0,w,c
  2545  001334  100D               	iorwf	(___aomod@divisor+4)^0,w,c
  2546  001336  100E               	iorwf	(___aomod@divisor+5)^0,w,c
  2547  001338  100F               	iorwf	(___aomod@divisor+6)^0,w,c
  2548  00133A  1010               	iorwf	(___aomod@divisor+7)^0,w,c
  2549  00133C  B4D8               	btfsc	status,2,c
  2550  00133E  EFA3  F009         	goto	u1461
  2551  001342  EFA5  F009         	goto	u1460
  2552  001346                     u1461:
  2553  001346  EFED  F009         	goto	l2029
  2554  00134A                     u1460:
  2555  00134A  0E01               	movlw	1
  2556  00134C  6E11               	movwf	___aomod@counter^0,c
  2557  00134E  EFB3  F009         	goto	l2019
  2558  001352                     l2017:
  2559  001352  90D8               	bcf	status,0,c
  2560  001354  3609               	rlcf	___aomod@divisor^0,f,c
  2561  001356  360A               	rlcf	(___aomod@divisor+1)^0,f,c
  2562  001358  360B               	rlcf	(___aomod@divisor+2)^0,f,c
  2563  00135A  360C               	rlcf	(___aomod@divisor+3)^0,f,c
  2564  00135C  360D               	rlcf	(___aomod@divisor+4)^0,f,c
  2565  00135E  360E               	rlcf	(___aomod@divisor+5)^0,f,c
  2566  001360  360F               	rlcf	(___aomod@divisor+6)^0,f,c
  2567  001362  3610               	rlcf	(___aomod@divisor+7)^0,f,c
  2568  001364  2A11               	incf	___aomod@counter^0,f,c
  2569  001366                     l2019:
  2570  001366  AE10               	btfss	(___aomod@divisor+7)^0,7,c
  2571  001368  EFB8  F009         	goto	u1471
  2572  00136C  EFBA  F009         	goto	u1470
  2573  001370                     u1471:
  2574  001370  EFA9  F009         	goto	l2017
  2575  001374                     u1470:
  2576  001374                     l2021:
  2577  001374  5009               	movf	___aomod@divisor^0,w,c
  2578  001376  5C01               	subwf	___aomod@dividend^0,w,c
  2579  001378  500A               	movf	(___aomod@divisor+1)^0,w,c
  2580  00137A  5802               	subwfb	(___aomod@dividend+1)^0,w,c
  2581  00137C  500B               	movf	(___aomod@divisor+2)^0,w,c
  2582  00137E  5803               	subwfb	(___aomod@dividend+2)^0,w,c
  2583  001380  500C               	movf	(___aomod@divisor+3)^0,w,c
  2584  001382  5804               	subwfb	(___aomod@dividend+3)^0,w,c
  2585  001384  500D               	movf	(___aomod@divisor+4)^0,w,c
  2586  001386  5805               	subwfb	(___aomod@dividend+4)^0,w,c
  2587  001388  500E               	movf	(___aomod@divisor+5)^0,w,c
  2588  00138A  5806               	subwfb	(___aomod@dividend+5)^0,w,c
  2589  00138C  500F               	movf	(___aomod@divisor+6)^0,w,c
  2590  00138E  5807               	subwfb	(___aomod@dividend+6)^0,w,c
  2591  001390  5010               	movf	(___aomod@divisor+7)^0,w,c
  2592  001392  5808               	subwfb	(___aomod@dividend+7)^0,w,c
  2593  001394  A0D8               	btfss	status,0,c
  2594  001396  EFCF  F009         	goto	u1481
  2595  00139A  EFD1  F009         	goto	u1480
  2596  00139E                     u1481:
  2597  00139E  EFE1  F009         	goto	l2025
  2598  0013A2                     u1480:
  2599  0013A2  5009               	movf	___aomod@divisor^0,w,c
  2600  0013A4  5E01               	subwf	___aomod@dividend^0,f,c
  2601  0013A6  500A               	movf	(___aomod@divisor+1)^0,w,c
  2602  0013A8  5A02               	subwfb	(___aomod@dividend+1)^0,f,c
  2603  0013AA  500B               	movf	(___aomod@divisor+2)^0,w,c
  2604  0013AC  5A03               	subwfb	(___aomod@dividend+2)^0,f,c
  2605  0013AE  500C               	movf	(___aomod@divisor+3)^0,w,c
  2606  0013B0  5A04               	subwfb	(___aomod@dividend+3)^0,f,c
  2607  0013B2  500D               	movf	(___aomod@divisor+4)^0,w,c
  2608  0013B4  5A05               	subwfb	(___aomod@dividend+4)^0,f,c
  2609  0013B6  500E               	movf	(___aomod@divisor+5)^0,w,c
  2610  0013B8  5A06               	subwfb	(___aomod@dividend+5)^0,f,c
  2611  0013BA  500F               	movf	(___aomod@divisor+6)^0,w,c
  2612  0013BC  5A07               	subwfb	(___aomod@dividend+6)^0,f,c
  2613  0013BE  5010               	movf	(___aomod@divisor+7)^0,w,c
  2614  0013C0  5A08               	subwfb	(___aomod@dividend+7)^0,f,c
  2615  0013C2                     l2025:
  2616  0013C2  90D8               	bcf	status,0,c
  2617  0013C4  3210               	rrcf	(___aomod@divisor+7)^0,f,c
  2618  0013C6  320F               	rrcf	(___aomod@divisor+6)^0,f,c
  2619  0013C8  320E               	rrcf	(___aomod@divisor+5)^0,f,c
  2620  0013CA  320D               	rrcf	(___aomod@divisor+4)^0,f,c
  2621  0013CC  320C               	rrcf	(___aomod@divisor+3)^0,f,c
  2622  0013CE  320B               	rrcf	(___aomod@divisor+2)^0,f,c
  2623  0013D0  320A               	rrcf	(___aomod@divisor+1)^0,f,c
  2624  0013D2  3209               	rrcf	___aomod@divisor^0,f,c
  2625  0013D4  2E11               	decfsz	___aomod@counter^0,f,c
  2626  0013D6  EFBA  F009         	goto	l2021
  2627  0013DA                     l2029:
  2628  0013DA  5012               	movf	___aomod@sign^0,w,c
  2629  0013DC  B4D8               	btfsc	status,2,c
  2630  0013DE  EFF3  F009         	goto	u1491
  2631  0013E2  EFF5  F009         	goto	u1490
  2632  0013E6                     u1491:
  2633  0013E6  EF05  F00A         	goto	l2033
  2634  0013EA                     u1490:
  2635  0013EA  1E08               	comf	(___aomod@dividend+7)^0,f,c
  2636  0013EC  1E07               	comf	(___aomod@dividend+6)^0,f,c
  2637  0013EE  1E06               	comf	(___aomod@dividend+5)^0,f,c
  2638  0013F0  1E05               	comf	(___aomod@dividend+4)^0,f,c
  2639  0013F2  1E04               	comf	(___aomod@dividend+3)^0,f,c
  2640  0013F4  1E03               	comf	(___aomod@dividend+2)^0,f,c
  2641  0013F6  1E02               	comf	(___aomod@dividend+1)^0,f,c
  2642  0013F8  6C01               	negf	___aomod@dividend^0,c
  2643  0013FA  0E00               	movlw	0
  2644  0013FC  2202               	addwfc	(___aomod@dividend+1)^0,f,c
  2645  0013FE  2203               	addwfc	(___aomod@dividend+2)^0,f,c
  2646  001400  2204               	addwfc	(___aomod@dividend+3)^0,f,c
  2647  001402  2205               	addwfc	(___aomod@dividend+4)^0,f,c
  2648  001404  2206               	addwfc	(___aomod@dividend+5)^0,f,c
  2649  001406  2207               	addwfc	(___aomod@dividend+6)^0,f,c
  2650  001408  2208               	addwfc	(___aomod@dividend+7)^0,f,c
  2651  00140A                     l2033:
  2652  00140A  C001  F001         	movff	___aomod@dividend,?___aomod
  2653  00140E  C002  F002         	movff	___aomod@dividend+1,?___aomod+1
  2654  001412  C003  F003         	movff	___aomod@dividend+2,?___aomod+2
  2655  001416  C004  F004         	movff	___aomod@dividend+3,?___aomod+3
  2656  00141A  C005  F005         	movff	___aomod@dividend+4,?___aomod+4
  2657  00141E  C006  F006         	movff	___aomod@dividend+5,?___aomod+5
  2658  001422  C007  F007         	movff	___aomod@dividend+6,?___aomod+6
  2659  001426  C008  F008         	movff	___aomod@dividend+7,?___aomod+7
  2660  00142A  0012               	return		;funcret
  2661  00142C                     __end_of___aomod:
  2662                           	callstack 0
  2663                           
  2664 ;; *************** function ___aodiv *****************
  2665 ;; Defined at:
  2666 ;;		line 9 in file "D:\XC8 compilador para el MPLAB\pic\sources\c99\common\aodiv.c"
  2667 ;; Parameters:    Size  Location     Type
  2668 ;;  dividend        8    0[COMRAM] long long 
  2669 ;;  divisor         8    8[COMRAM] long long 
  2670 ;; Auto vars:     Size  Location     Type
  2671 ;;  quotient        8   18[COMRAM] long long 
  2672 ;;  sign            1   17[COMRAM] unsigned char 
  2673 ;;  counter         1   16[COMRAM] unsigned char 
  2674 ;; Return value:  Size  Location     Type
  2675 ;;                  8    0[COMRAM] long long 
  2676 ;; Registers used:
  2677 ;;		wreg, fsr2l, fsr2h, status,2, status,0
  2678 ;; Tracked objects:
  2679 ;;		On entry : 0/0
  2680 ;;		On exit  : 0/0
  2681 ;;		Unchanged: 0/0
  2682 ;; Data sizes:     COMRAM   BANK0   BANK1   BANK2   BANK3   BANK4   BANK5   BANK6   BANK7
  2683 ;;      Params:        16       0       0       0       0       0       0       0       0
  2684 ;;      Locals:        10       0       0       0       0       0       0       0       0
  2685 ;;      Temps:          0       0       0       0       0       0       0       0       0
  2686 ;;      Totals:        26       0       0       0       0       0       0       0       0
  2687 ;;Total ram usage:       26 bytes
  2688 ;; Hardware stack levels used: 1
  2689 ;; This function calls:
  2690 ;;		Nothing
  2691 ;; This function is called by:
  2692 ;;		_dtoa
  2693 ;; This function uses a non-reentrant model
  2694 ;;
  2695                           
  2696                           	psect	text12
  2697  001140                     __ptext12:
  2698                           	callstack 0
  2699  001140                     ___aodiv:
  2700                           	callstack 26
  2701  001140  0E00               	movlw	0
  2702  001142  6E12               	movwf	___aodiv@sign^0,c
  2703  001144  BE10               	btfsc	(___aodiv@divisor+7)^0,7,c
  2704  001146  EFA9  F008         	goto	u1370
  2705  00114A  EFA7  F008         	goto	u1371
  2706  00114E                     u1371:
  2707  00114E  EFBB  F008         	goto	l1965
  2708  001152                     u1370:
  2709  001152  1E10               	comf	(___aodiv@divisor+7)^0,f,c
  2710  001154  1E0F               	comf	(___aodiv@divisor+6)^0,f,c
  2711  001156  1E0E               	comf	(___aodiv@divisor+5)^0,f,c
  2712  001158  1E0D               	comf	(___aodiv@divisor+4)^0,f,c
  2713  00115A  1E0C               	comf	(___aodiv@divisor+3)^0,f,c
  2714  00115C  1E0B               	comf	(___aodiv@divisor+2)^0,f,c
  2715  00115E  1E0A               	comf	(___aodiv@divisor+1)^0,f,c
  2716  001160  6C09               	negf	___aodiv@divisor^0,c
  2717  001162  0E00               	movlw	0
  2718  001164  220A               	addwfc	(___aodiv@divisor+1)^0,f,c
  2719  001166  220B               	addwfc	(___aodiv@divisor+2)^0,f,c
  2720  001168  220C               	addwfc	(___aodiv@divisor+3)^0,f,c
  2721  00116A  220D               	addwfc	(___aodiv@divisor+4)^0,f,c
  2722  00116C  220E               	addwfc	(___aodiv@divisor+5)^0,f,c
  2723  00116E  220F               	addwfc	(___aodiv@divisor+6)^0,f,c
  2724  001170  2210               	addwfc	(___aodiv@divisor+7)^0,f,c
  2725  001172  0E01               	movlw	1
  2726  001174  6E12               	movwf	___aodiv@sign^0,c
  2727  001176                     l1965:
  2728  001176  BE08               	btfsc	(___aodiv@dividend+7)^0,7,c
  2729  001178  EFC2  F008         	goto	u1380
  2730  00117C  EFC0  F008         	goto	u1381
  2731  001180                     u1381:
  2732  001180  EFD4  F008         	goto	l1971
  2733  001184                     u1380:
  2734  001184  1E08               	comf	(___aodiv@dividend+7)^0,f,c
  2735  001186  1E07               	comf	(___aodiv@dividend+6)^0,f,c
  2736  001188  1E06               	comf	(___aodiv@dividend+5)^0,f,c
  2737  00118A  1E05               	comf	(___aodiv@dividend+4)^0,f,c
  2738  00118C  1E04               	comf	(___aodiv@dividend+3)^0,f,c
  2739  00118E  1E03               	comf	(___aodiv@dividend+2)^0,f,c
  2740  001190  1E02               	comf	(___aodiv@dividend+1)^0,f,c
  2741  001192  6C01               	negf	___aodiv@dividend^0,c
  2742  001194  0E00               	movlw	0
  2743  001196  2202               	addwfc	(___aodiv@dividend+1)^0,f,c
  2744  001198  2203               	addwfc	(___aodiv@dividend+2)^0,f,c
  2745  00119A  2204               	addwfc	(___aodiv@dividend+3)^0,f,c
  2746  00119C  2205               	addwfc	(___aodiv@dividend+4)^0,f,c
  2747  00119E  2206               	addwfc	(___aodiv@dividend+5)^0,f,c
  2748  0011A0  2207               	addwfc	(___aodiv@dividend+6)^0,f,c
  2749  0011A2  2208               	addwfc	(___aodiv@dividend+7)^0,f,c
  2750  0011A4  0E01               	movlw	1
  2751  0011A6  1A12               	xorwf	___aodiv@sign^0,f,c
  2752  0011A8                     l1971:
  2753  0011A8  EE20  F013         	lfsr	2,___aodiv@quotient
  2754  0011AC  0E07               	movlw	7
  2755  0011AE                     u1391:
  2756  0011AE  6ADE               	clrf	postinc2,c
  2757  0011B0  06E8               	decf	wreg,f,c
  2758  0011B2  E2FD               	bc	u1391
  2759  0011B4  5009               	movf	___aodiv@divisor^0,w,c
  2760  0011B6  100A               	iorwf	(___aodiv@divisor+1)^0,w,c
  2761  0011B8  100B               	iorwf	(___aodiv@divisor+2)^0,w,c
  2762  0011BA  100C               	iorwf	(___aodiv@divisor+3)^0,w,c
  2763  0011BC  100D               	iorwf	(___aodiv@divisor+4)^0,w,c
  2764  0011BE  100E               	iorwf	(___aodiv@divisor+5)^0,w,c
  2765  0011C0  100F               	iorwf	(___aodiv@divisor+6)^0,w,c
  2766  0011C2  1010               	iorwf	(___aodiv@divisor+7)^0,w,c
  2767  0011C4  B4D8               	btfsc	status,2,c
  2768  0011C6  EFE7  F008         	goto	u1401
  2769  0011CA  EFE9  F008         	goto	u1400
  2770  0011CE                     u1401:
  2771  0011CE  EF3B  F009         	goto	l1993
  2772  0011D2                     u1400:
  2773  0011D2  0E01               	movlw	1
  2774  0011D4  6E11               	movwf	___aodiv@counter^0,c
  2775  0011D6  EFF7  F008         	goto	l1979
  2776  0011DA                     l1977:
  2777  0011DA  90D8               	bcf	status,0,c
  2778  0011DC  3609               	rlcf	___aodiv@divisor^0,f,c
  2779  0011DE  360A               	rlcf	(___aodiv@divisor+1)^0,f,c
  2780  0011E0  360B               	rlcf	(___aodiv@divisor+2)^0,f,c
  2781  0011E2  360C               	rlcf	(___aodiv@divisor+3)^0,f,c
  2782  0011E4  360D               	rlcf	(___aodiv@divisor+4)^0,f,c
  2783  0011E6  360E               	rlcf	(___aodiv@divisor+5)^0,f,c
  2784  0011E8  360F               	rlcf	(___aodiv@divisor+6)^0,f,c
  2785  0011EA  3610               	rlcf	(___aodiv@divisor+7)^0,f,c
  2786  0011EC  2A11               	incf	___aodiv@counter^0,f,c
  2787  0011EE                     l1979:
  2788  0011EE  AE10               	btfss	(___aodiv@divisor+7)^0,7,c
  2789  0011F0  EFFC  F008         	goto	u1411
  2790  0011F4  EFFE  F008         	goto	u1410
  2791  0011F8                     u1411:
  2792  0011F8  EFED  F008         	goto	l1977
  2793  0011FC                     u1410:
  2794  0011FC                     l1981:
  2795  0011FC  90D8               	bcf	status,0,c
  2796  0011FE  3613               	rlcf	___aodiv@quotient^0,f,c
  2797  001200  3614               	rlcf	(___aodiv@quotient+1)^0,f,c
  2798  001202  3615               	rlcf	(___aodiv@quotient+2)^0,f,c
  2799  001204  3616               	rlcf	(___aodiv@quotient+3)^0,f,c
  2800  001206  3617               	rlcf	(___aodiv@quotient+4)^0,f,c
  2801  001208  3618               	rlcf	(___aodiv@quotient+5)^0,f,c
  2802  00120A  3619               	rlcf	(___aodiv@quotient+6)^0,f,c
  2803  00120C  361A               	rlcf	(___aodiv@quotient+7)^0,f,c
  2804  00120E  5009               	movf	___aodiv@divisor^0,w,c
  2805  001210  5C01               	subwf	___aodiv@dividend^0,w,c
  2806  001212  500A               	movf	(___aodiv@divisor+1)^0,w,c
  2807  001214  5802               	subwfb	(___aodiv@dividend+1)^0,w,c
  2808  001216  500B               	movf	(___aodiv@divisor+2)^0,w,c
  2809  001218  5803               	subwfb	(___aodiv@dividend+2)^0,w,c
  2810  00121A  500C               	movf	(___aodiv@divisor+3)^0,w,c
  2811  00121C  5804               	subwfb	(___aodiv@dividend+3)^0,w,c
  2812  00121E  500D               	movf	(___aodiv@divisor+4)^0,w,c
  2813  001220  5805               	subwfb	(___aodiv@dividend+4)^0,w,c
  2814  001222  500E               	movf	(___aodiv@divisor+5)^0,w,c
  2815  001224  5806               	subwfb	(___aodiv@dividend+5)^0,w,c
  2816  001226  500F               	movf	(___aodiv@divisor+6)^0,w,c
  2817  001228  5807               	subwfb	(___aodiv@dividend+6)^0,w,c
  2818  00122A  5010               	movf	(___aodiv@divisor+7)^0,w,c
  2819  00122C  5808               	subwfb	(___aodiv@dividend+7)^0,w,c
  2820  00122E  A0D8               	btfss	status,0,c
  2821  001230  EF1C  F009         	goto	u1421
  2822  001234  EF1E  F009         	goto	u1420
  2823  001238                     u1421:
  2824  001238  EF2F  F009         	goto	l1989
  2825  00123C                     u1420:
  2826  00123C  5009               	movf	___aodiv@divisor^0,w,c
  2827  00123E  5E01               	subwf	___aodiv@dividend^0,f,c
  2828  001240  500A               	movf	(___aodiv@divisor+1)^0,w,c
  2829  001242  5A02               	subwfb	(___aodiv@dividend+1)^0,f,c
  2830  001244  500B               	movf	(___aodiv@divisor+2)^0,w,c
  2831  001246  5A03               	subwfb	(___aodiv@dividend+2)^0,f,c
  2832  001248  500C               	movf	(___aodiv@divisor+3)^0,w,c
  2833  00124A  5A04               	subwfb	(___aodiv@dividend+3)^0,f,c
  2834  00124C  500D               	movf	(___aodiv@divisor+4)^0,w,c
  2835  00124E  5A05               	subwfb	(___aodiv@dividend+4)^0,f,c
  2836  001250  500E               	movf	(___aodiv@divisor+5)^0,w,c
  2837  001252  5A06               	subwfb	(___aodiv@dividend+5)^0,f,c
  2838  001254  500F               	movf	(___aodiv@divisor+6)^0,w,c
  2839  001256  5A07               	subwfb	(___aodiv@dividend+6)^0,f,c
  2840  001258  5010               	movf	(___aodiv@divisor+7)^0,w,c
  2841  00125A  5A08               	subwfb	(___aodiv@dividend+7)^0,f,c
  2842  00125C  8013               	bsf	___aodiv@quotient^0,0,c
  2843  00125E                     l1989:
  2844  00125E  90D8               	bcf	status,0,c
  2845  001260  3210               	rrcf	(___aodiv@divisor+7)^0,f,c
  2846  001262  320F               	rrcf	(___aodiv@divisor+6)^0,f,c
  2847  001264  320E               	rrcf	(___aodiv@divisor+5)^0,f,c
  2848  001266  320D               	rrcf	(___aodiv@divisor+4)^0,f,c
  2849  001268  320C               	rrcf	(___aodiv@divisor+3)^0,f,c
  2850  00126A  320B               	rrcf	(___aodiv@divisor+2)^0,f,c
  2851  00126C  320A               	rrcf	(___aodiv@divisor+1)^0,f,c
  2852  00126E  3209               	rrcf	___aodiv@divisor^0,f,c
  2853  001270  2E11               	decfsz	___aodiv@counter^0,f,c
  2854  001272  EFFE  F008         	goto	l1981
  2855  001276                     l1993:
  2856  001276  5012               	movf	___aodiv@sign^0,w,c
  2857  001278  B4D8               	btfsc	status,2,c
  2858  00127A  EF41  F009         	goto	u1431
  2859  00127E  EF43  F009         	goto	u1430
  2860  001282                     u1431:
  2861  001282  EF53  F009         	goto	l1997
  2862  001286                     u1430:
  2863  001286  1E1A               	comf	(___aodiv@quotient+7)^0,f,c
  2864  001288  1E19               	comf	(___aodiv@quotient+6)^0,f,c
  2865  00128A  1E18               	comf	(___aodiv@quotient+5)^0,f,c
  2866  00128C  1E17               	comf	(___aodiv@quotient+4)^0,f,c
  2867  00128E  1E16               	comf	(___aodiv@quotient+3)^0,f,c
  2868  001290  1E15               	comf	(___aodiv@quotient+2)^0,f,c
  2869  001292  1E14               	comf	(___aodiv@quotient+1)^0,f,c
  2870  001294  6C13               	negf	___aodiv@quotient^0,c
  2871  001296  0E00               	movlw	0
  2872  001298  2214               	addwfc	(___aodiv@quotient+1)^0,f,c
  2873  00129A  2215               	addwfc	(___aodiv@quotient+2)^0,f,c
  2874  00129C  2216               	addwfc	(___aodiv@quotient+3)^0,f,c
  2875  00129E  2217               	addwfc	(___aodiv@quotient+4)^0,f,c
  2876  0012A0  2218               	addwfc	(___aodiv@quotient+5)^0,f,c
  2877  0012A2  2219               	addwfc	(___aodiv@quotient+6)^0,f,c
  2878  0012A4  221A               	addwfc	(___aodiv@quotient+7)^0,f,c
  2879  0012A6                     l1997:
  2880  0012A6  C013  F001         	movff	___aodiv@quotient,?___aodiv
  2881  0012AA  C014  F002         	movff	___aodiv@quotient+1,?___aodiv+1
  2882  0012AE  C015  F003         	movff	___aodiv@quotient+2,?___aodiv+2
  2883  0012B2  C016  F004         	movff	___aodiv@quotient+3,?___aodiv+3
  2884  0012B6  C017  F005         	movff	___aodiv@quotient+4,?___aodiv+4
  2885  0012BA  C018  F006         	movff	___aodiv@quotient+5,?___aodiv+5
  2886  0012BE  C019  F007         	movff	___aodiv@quotient+6,?___aodiv+6
  2887  0012C2  C01A  F008         	movff	___aodiv@quotient+7,?___aodiv+7
  2888  0012C6  0012               	return		;funcret
  2889  0012C8                     __end_of___aodiv:
  2890                           	callstack 0
  2891                           
  2892 ;; *************** function _TemperaturaDigitada *****************
  2893 ;; Defined at:
  2894 ;;		line 102 in file "Main_Invernadero.c"
  2895 ;; Parameters:    Size  Location     Type
  2896 ;;  prmTemperatu    2    6[COMRAM] PTR unsigned char 
  2897 ;;		 -> main@Humedad(2), main@Temperatura(2), 
  2898 ;; Auto vars:     Size  Location     Type
  2899 ;;  Decena          2   13[COMRAM] int 
  2900 ;;  Resultado       2   11[COMRAM] int 
  2901 ;;  Unidad          2    9[COMRAM] int 
  2902 ;; Return value:  Size  Location     Type
  2903 ;;                  2    6[COMRAM] int 
  2904 ;; Registers used:
  2905 ;;		wreg, fsr2l, fsr2h, status,2, status,0, prodl, prodh, cstack
  2906 ;; Tracked objects:
  2907 ;;		On entry : 0/0
  2908 ;;		On exit  : 0/0
  2909 ;;		Unchanged: 0/0
  2910 ;; Data sizes:     COMRAM   BANK0   BANK1   BANK2   BANK3   BANK4   BANK5   BANK6   BANK7
  2911 ;;      Params:         2       0       0       0       0       0       0       0       0
  2912 ;;      Locals:         6       0       0       0       0       0       0       0       0
  2913 ;;      Temps:          1       0       0       0       0       0       0       0       0
  2914 ;;      Totals:         9       0       0       0       0       0       0       0       0
  2915 ;;Total ram usage:        9 bytes
  2916 ;; Hardware stack levels used: 1
  2917 ;; Hardware stack levels required when called: 1
  2918 ;; This function calls:
  2919 ;;		___wmul
  2920 ;; This function is called by:
  2921 ;;		_main
  2922 ;; This function uses a non-reentrant model
  2923 ;;
  2924                           
  2925                           	psect	text13
  2926  00174E                     __ptext13:
  2927                           	callstack 0
  2928  00174E                     _TemperaturaDigitada:
  2929                           	callstack 29
  2930  00174E                     
  2931                           ;Main_Invernadero.c: 104:     int Unidad = 0;
  2932  00174E  0E00               	movlw	0
  2933  001750  6E0B               	movwf	(TemperaturaDigitada@Unidad+1)^0,c
  2934  001752  0E00               	movlw	0
  2935  001754  6E0A               	movwf	TemperaturaDigitada@Unidad^0,c
  2936                           
  2937                           ;Main_Invernadero.c: 106:     int Resultado=0;
  2938  001756  0E00               	movlw	0
  2939  001758  6E0D               	movwf	(TemperaturaDigitada@Resultado+1)^0,c
  2940  00175A  0E00               	movlw	0
  2941  00175C  6E0C               	movwf	TemperaturaDigitada@Resultado^0,c
  2942  00175E                     
  2943                           ;Main_Invernadero.c: 108:     Decena = prmTemperatura[0]-'0';
  2944  00175E  C007  FFD9         	movff	TemperaturaDigitada@prmTemperatura,fsr2l
  2945  001762  C008  FFDA         	movff	TemperaturaDigitada@prmTemperatura+1,fsr2h
  2946  001766  50DF               	movf	indf2,w,c
  2947  001768  6E09               	movwf	??_TemperaturaDigitada^0,c
  2948  00176A  0ED0               	movlw	208
  2949  00176C  2409               	addwf	??_TemperaturaDigitada^0,w,c
  2950  00176E  6E0E               	movwf	TemperaturaDigitada@Decena^0,c
  2951  001770  6A0F               	clrf	(TemperaturaDigitada@Decena+1)^0,c
  2952  001772  0EFF               	movlw	255
  2953  001774  220F               	addwfc	(TemperaturaDigitada@Decena+1)^0,f,c
  2954  001776                     
  2955                           ;Main_Invernadero.c: 109:     Unidad = prmTemperatura[1]-'0';
  2956  001776  EE20 F001          	lfsr	2,1
  2957  00177A  5007               	movf	TemperaturaDigitada@prmTemperatura^0,w,c
  2958  00177C  26D9               	addwf	fsr2l,f,c
  2959  00177E  5008               	movf	(TemperaturaDigitada@prmTemperatura+1)^0,w,c
  2960  001780  22DA               	addwfc	fsr2h,f,c
  2961  001782  50DF               	movf	indf2,w,c
  2962  001784  6E09               	movwf	??_TemperaturaDigitada^0,c
  2963  001786  0ED0               	movlw	208
  2964  001788  2409               	addwf	??_TemperaturaDigitada^0,w,c
  2965  00178A  6E0A               	movwf	TemperaturaDigitada@Unidad^0,c
  2966  00178C  6A0B               	clrf	(TemperaturaDigitada@Unidad+1)^0,c
  2967  00178E  0EFF               	movlw	255
  2968  001790  220B               	addwfc	(TemperaturaDigitada@Unidad+1)^0,f,c
  2969  001792                     
  2970                           ;Main_Invernadero.c: 111:     Decena = Decena * 10;
  2971  001792  C00E  F001         	movff	TemperaturaDigitada@Decena,___wmul@multiplier
  2972  001796  C00F  F002         	movff	TemperaturaDigitada@Decena+1,___wmul@multiplier+1
  2973  00179A  0E00               	movlw	0
  2974  00179C  6E04               	movwf	(___wmul@multiplicand+1)^0,c
  2975  00179E  0E0A               	movlw	10
  2976  0017A0  6E03               	movwf	___wmul@multiplicand^0,c
  2977  0017A2  EC5C  F00E         	call	___wmul	;wreg free
  2978  0017A6  C001  F00E         	movff	?___wmul,TemperaturaDigitada@Decena
  2979  0017AA  C002  F00F         	movff	?___wmul+1,TemperaturaDigitada@Decena+1
  2980  0017AE                     
  2981                           ;Main_Invernadero.c: 112:     Resultado = Decena + Unidad;
  2982  0017AE  500A               	movf	TemperaturaDigitada@Unidad^0,w,c
  2983  0017B0  240E               	addwf	TemperaturaDigitada@Decena^0,w,c
  2984  0017B2  6E0C               	movwf	TemperaturaDigitada@Resultado^0,c
  2985  0017B4  500B               	movf	(TemperaturaDigitada@Unidad+1)^0,w,c
  2986  0017B6  200F               	addwfc	(TemperaturaDigitada@Decena+1)^0,w,c
  2987  0017B8  6E0D               	movwf	(TemperaturaDigitada@Resultado+1)^0,c
  2988  0017BA                     
  2989                           ;Main_Invernadero.c: 114:     return Resultado;
  2990  0017BA  C00C  F007         	movff	TemperaturaDigitada@Resultado,?_TemperaturaDigitada
  2991  0017BE  C00D  F008         	movff	TemperaturaDigitada@Resultado+1,?_TemperaturaDigitada+1
  2992  0017C2  0012               	return		;funcret
  2993  0017C4                     __end_of_TemperaturaDigitada:
  2994                           	callstack 0
  2995                           
  2996 ;; *************** function ___wmul *****************
  2997 ;; Defined at:
  2998 ;;		line 15 in file "D:\XC8 compilador para el MPLAB\pic\sources\c99\common\Umul16.c"
  2999 ;; Parameters:    Size  Location     Type
  3000 ;;  multiplier      2    0[COMRAM] unsigned int 
  3001 ;;  multiplicand    2    2[COMRAM] unsigned int 
  3002 ;; Auto vars:     Size  Location     Type
  3003 ;;  product         2    4[COMRAM] unsigned int 
  3004 ;; Return value:  Size  Location     Type
  3005 ;;                  2    0[COMRAM] unsigned int 
  3006 ;; Registers used:
  3007 ;;		wreg, status,2, status,0, prodl, prodh
  3008 ;; Tracked objects:
  3009 ;;		On entry : 0/0
  3010 ;;		On exit  : 0/0
  3011 ;;		Unchanged: 0/0
  3012 ;; Data sizes:     COMRAM   BANK0   BANK1   BANK2   BANK3   BANK4   BANK5   BANK6   BANK7
  3013 ;;      Params:         4       0       0       0       0       0       0       0       0
  3014 ;;      Locals:         2       0       0       0       0       0       0       0       0
  3015 ;;      Temps:          0       0       0       0       0       0       0       0       0
  3016 ;;      Totals:         6       0       0       0       0       0       0       0       0
  3017 ;;Total ram usage:        6 bytes
  3018 ;; Hardware stack levels used: 1
  3019 ;; This function calls:
  3020 ;;		Nothing
  3021 ;; This function is called by:
  3022 ;;		_TemperaturaDigitada
  3023 ;; This function uses a non-reentrant model
  3024 ;;
  3025                           
  3026                           	psect	text14
  3027  001CB8                     __ptext14:
  3028                           	callstack 0
  3029  001CB8                     ___wmul:
  3030                           	callstack 29
  3031  001CB8  5001               	movf	___wmul@multiplier^0,w,c
  3032  001CBA  0203               	mulwf	___wmul@multiplicand^0,c
  3033  001CBC  CFF3 F005          	movff	prodl,___wmul@product
  3034  001CC0  CFF4 F006          	movff	prodh,___wmul@product+1
  3035  001CC4  5001               	movf	___wmul@multiplier^0,w,c
  3036  001CC6  0204               	mulwf	(___wmul@multiplicand+1)^0,c
  3037  001CC8  50F3               	movf	243,w,c
  3038  001CCA  2606               	addwf	(___wmul@product+1)^0,f,c
  3039  001CCC  5002               	movf	(___wmul@multiplier+1)^0,w,c
  3040  001CCE  0203               	mulwf	___wmul@multiplicand^0,c
  3041  001CD0  50F3               	movf	243,w,c
  3042  001CD2  2606               	addwf	(___wmul@product+1)^0,f,c
  3043  001CD4  C005  F001         	movff	___wmul@product,?___wmul
  3044  001CD8  C006  F002         	movff	___wmul@product+1,?___wmul+1
  3045  001CDC  0012               	return		;funcret
  3046  001CDE                     __end_of___wmul:
  3047                           	callstack 0
  3048                           
  3049 ;; *************** function _PedirDato *****************
  3050 ;; Defined at:
  3051 ;;		line 131 in file "Main_Invernadero.c"
  3052 ;; Parameters:    Size  Location     Type
  3053 ;;  Etiqueta        2    9[COMRAM] PTR unsigned char 
  3054 ;;		 -> STR_2(14), STR_1(15), 
  3055 ;;  vecLlenar       2   11[COMRAM] PTR unsigned char 
  3056 ;;		 -> main@Humedad(2), main@Temperatura(2), 
  3057 ;; Auto vars:     Size  Location     Type
  3058 ;;  i               2   16[COMRAM] int 
  3059 ;;  tecla           1   15[COMRAM] unsigned char 
  3060 ;; Return value:  Size  Location     Type
  3061 ;;                  1    wreg      void 
  3062 ;; Registers used:
  3063 ;;		wreg, fsr1l, fsr1h, fsr2l, fsr2h, status,2, status,0, tblptrl, tblptrh, tblptru, prodl, prodh, cstack
  3064 ;; Tracked objects:
  3065 ;;		On entry : 0/0
  3066 ;;		On exit  : 0/0
  3067 ;;		Unchanged: 0/0
  3068 ;; Data sizes:     COMRAM   BANK0   BANK1   BANK2   BANK3   BANK4   BANK5   BANK6   BANK7
  3069 ;;      Params:         4       0       0       0       0       0       0       0       0
  3070 ;;      Locals:         3       0       0       0       0       0       0       0       0
  3071 ;;      Temps:          2       0       0       0       0       0       0       0       0
  3072 ;;      Totals:         9       0       0       0       0       0       0       0       0
  3073 ;;Total ram usage:        9 bytes
  3074 ;; Hardware stack levels used: 1
  3075 ;; Hardware stack levels required when called: 3
  3076 ;; This function calls:
  3077 ;;		_LCD_Char
  3078 ;;		_LCD_Clear
  3079 ;;		_LCD_Command
  3080 ;;		_LCD_String_xy
  3081 ;;		_keyfind
  3082 ;; This function is called by:
  3083 ;;		_main
  3084 ;; This function uses a non-reentrant model
  3085 ;;
  3086                           
  3087                           	psect	text15
  3088  0016D0                     __ptext15:
  3089                           	callstack 0
  3090  0016D0                     _PedirDato:
  3091                           	callstack 27
  3092  0016D0                     
  3093                           ;Main_Invernadero.c: 132:      LCD_Clear();
  3094  0016D0  EC47  F00E         	call	_LCD_Clear	;wreg free
  3095  0016D4                     
  3096                           ;Main_Invernadero.c: 134:      unsigned char tecla;;Main_Invernadero.c: 135:      LCD_St
      +                          ring_xy(0,0,Etiqueta);
  3097  0016D4  0E00               	movlw	0
  3098  0016D6  6E05               	movwf	LCD_String_xy@pos^0,c
  3099  0016D8  C00A  F006         	movff	PedirDato@Etiqueta,LCD_String_xy@msg
  3100  0016DC  C00B  F007         	movff	PedirDato@Etiqueta+1,LCD_String_xy@msg+1
  3101  0016E0  0E00               	movlw	0
  3102  0016E2  ECA2  F00D         	call	_LCD_String_xy
  3103  0016E6                     
  3104                           ;Main_Invernadero.c: 136:      LCD_Command(0xC0);
  3105  0016E6  0EC0               	movlw	192
  3106  0016E8  EC15  F00D         	call	_LCD_Command
  3107  0016EC                     
  3108                           ;Main_Invernadero.c: 138:      for(int i=0 ; i < 2 ; i++){
  3109  0016EC  0E00               	movlw	0
  3110  0016EE  6E12               	movwf	(PedirDato@i+1)^0,c
  3111  0016F0  0E00               	movlw	0
  3112  0016F2  6E11               	movwf	PedirDato@i^0,c
  3113  0016F4                     l2421:
  3114                           
  3115                           ;Main_Invernadero.c: 139:      tecla=keyfind();
  3116  0016F4  ECAE  F006         	call	_keyfind	;wreg free
  3117  0016F8  6E10               	movwf	PedirDato@tecla^0,c
  3118  0016FA                     
  3119                           ;Main_Invernadero.c: 140:      LCD_Char(tecla);
  3120  0016FA  5010               	movf	PedirDato@tecla^0,w,c
  3121  0016FC  ECED  F00C         	call	_LCD_Char
  3122  001700                     
  3123                           ;Main_Invernadero.c: 141:      vecLlenar[i] = tecla;
  3124  001700  5011               	movf	PedirDato@i^0,w,c
  3125  001702  240C               	addwf	PedirDato@vecLlenar^0,w,c
  3126  001704  6ED9               	movwf	fsr2l,c
  3127  001706  5012               	movf	(PedirDato@i+1)^0,w,c
  3128  001708  200D               	addwfc	(PedirDato@vecLlenar+1)^0,w,c
  3129  00170A  6EDA               	movwf	fsr2h,c
  3130  00170C  C010  FFDF         	movff	PedirDato@tecla,indf2
  3131  001710                     
  3132                           ;Main_Invernadero.c: 142:      }
  3133  001710  4A11               	infsnz	PedirDato@i^0,f,c
  3134  001712  2A12               	incf	(PedirDato@i+1)^0,f,c
  3135  001714  BE12               	btfsc	(PedirDato@i+1)^0,7,c
  3136  001716  EF96  F00B         	goto	u2051
  3137  00171A  5012               	movf	(PedirDato@i+1)^0,w,c
  3138  00171C  E109               	bnz	u2050
  3139  00171E  0E02               	movlw	2
  3140  001720  5C11               	subwf	PedirDato@i^0,w,c
  3141  001722  A0D8               	btfss	status,0,c
  3142  001724  EF96  F00B         	goto	u2051
  3143  001728  EF98  F00B         	goto	u2050
  3144  00172C                     u2051:
  3145  00172C  EF7A  F00B         	goto	l2421
  3146  001730                     u2050:
  3147  001730                     
  3148                           ;Main_Invernadero.c: 143:      _delay((unsigned long)((100)*(8000000/4000.0)));
  3149  001730  0E02               	movlw	2
  3150  001732  6E0F               	movwf	(??_PedirDato+1)^0,c
  3151  001734  0E04               	movlw	4
  3152  001736  6E0E               	movwf	??_PedirDato^0,c
  3153  001738  0EBA               	movlw	186
  3154  00173A                     u2397:
  3155  00173A  2EE8               	decfsz	wreg,f,c
  3156  00173C  D7FE               	bra	u2397
  3157  00173E  2E0E               	decfsz	??_PedirDato^0,f,c
  3158  001740  D7FC               	bra	u2397
  3159  001742  2E0F               	decfsz	(??_PedirDato+1)^0,f,c
  3160  001744  D7FA               	bra	u2397
  3161  001746  D000               	nop2	
  3162  001748                     
  3163                           ;Main_Invernadero.c: 144:      LCD_Clear();
  3164  001748  EC47  F00E         	call	_LCD_Clear	;wreg free
  3165  00174C  0012               	return		;funcret
  3166  00174E                     __end_of_PedirDato:
  3167                           	callstack 0
  3168                           
  3169 ;; *************** function _keyfind *****************
  3170 ;; Defined at:
  3171 ;;		line 174 in file "keypad.c"
  3172 ;; Parameters:    Size  Location     Type
  3173 ;;		None
  3174 ;; Auto vars:     Size  Location     Type
  3175 ;;  temp1           1    0        unsigned char 
  3176 ;; Return value:  Size  Location     Type
  3177 ;;                  1    wreg      unsigned char 
  3178 ;; Registers used:
  3179 ;;		wreg, fsr2l, fsr2h, status,2, status,0, prodl, prodh
  3180 ;; Tracked objects:
  3181 ;;		On entry : 0/0
  3182 ;;		On exit  : 0/0
  3183 ;;		Unchanged: 0/0
  3184 ;; Data sizes:     COMRAM   BANK0   BANK1   BANK2   BANK3   BANK4   BANK5   BANK6   BANK7
  3185 ;;      Params:         0       0       0       0       0       0       0       0       0
  3186 ;;      Locals:         0       0       0       0       0       0       0       0       0
  3187 ;;      Temps:          1       0       0       0       0       0       0       0       0
  3188 ;;      Totals:         1       0       0       0       0       0       0       0       0
  3189 ;;Total ram usage:        1 bytes
  3190 ;; Hardware stack levels used: 1
  3191 ;; This function calls:
  3192 ;;		Nothing
  3193 ;; This function is called by:
  3194 ;;		_PedirDato
  3195 ;; This function uses a non-reentrant model
  3196 ;;
  3197                           
  3198                           	psect	text16
  3199  000D5C                     __ptext16:
  3200                           	callstack 0
  3201  000D5C                     _keyfind:
  3202                           	callstack 29
  3203  000D5C                     
  3204                           ;keypad.c: 177:     TRISB = 0xf0;
  3205  000D5C  0EF0               	movlw	240
  3206  000D5E  6E93               	movwf	147,c	;volatile
  3207                           
  3208                           ;keypad.c: 178:     unsigned char temp1;;keypad.c: 180:         LATB = 0xf0;
  3209  000D60  0EF0               	movlw	240
  3210  000D62  6E8A               	movwf	138,c	;volatile
  3211  000D64                     l2251:
  3212                           
  3213                           ;keypad.c: 184:         {;keypad.c: 186:             col_loc = PORTB & 0xf0;
  3214  000D64  5081               	movf	129,w,c	;volatile
  3215  000D66  0BF0               	andlw	240
  3216  000D68  0100               	movlb	0	; () banked
  3217  000D6A  6F6A               	movwf	_col_loc& (0+255),b
  3218  000D6C                     
  3219                           ; BSR set to: 0
  3220                           ;keypad.c: 188:         }while(col_loc!=0xf0);
  3221  000D6C  0EF0               	movlw	240
  3222  000D6E  196A               	xorwf	_col_loc& (0+255),w,b
  3223  000D70  A4D8               	btfss	status,2,c
  3224  000D72  EFBD  F006         	goto	u1821
  3225  000D76  EFBF  F006         	goto	u1820
  3226  000D7A                     u1821:
  3227  000D7A  EFB2  F006         	goto	l2251
  3228  000D7E                     u1820:
  3229  000D7E                     
  3230                           ; BSR set to: 0
  3231                           ;keypad.c: 189:          col_loc = PORTB & 0xf0;
  3232  000D7E  5081               	movf	129,w,c	;volatile
  3233  000D80  0BF0               	andlw	240
  3234  000D82  6F6A               	movwf	_col_loc& (0+255),b
  3235                           
  3236                           ;keypad.c: 190:       }while(col_loc!=0xf0);
  3237  000D84  0EF0               	movlw	240
  3238  000D86  196A               	xorwf	_col_loc& (0+255),w,b
  3239  000D88  A4D8               	btfss	status,2,c
  3240  000D8A  EFC9  F006         	goto	u1831
  3241  000D8E  EFCB  F006         	goto	u1830
  3242  000D92                     u1831:
  3243  000D92  EFB2  F006         	goto	l2251
  3244  000D96                     u1830:
  3245  000D96                     
  3246                           ; BSR set to: 0
  3247                           ;keypad.c: 192:       _delay((unsigned long)((30)*(8000000/4000.0)));
  3248  000D96  0E4E               	movlw	78
  3249  000D98  6E01               	movwf	??_keyfind^0,c
  3250  000D9A  0EEB               	movlw	235
  3251  000D9C                     u2407:
  3252  000D9C  2EE8               	decfsz	wreg,f,c
  3253  000D9E  D7FE               	bra	u2407
  3254  000DA0  2E01               	decfsz	??_keyfind^0,f,c
  3255  000DA2  D7FC               	bra	u2407
  3256  000DA4  F000               	nop	
  3257  000DA6                     
  3258                           ;keypad.c: 193:         LATB = 0xf0;
  3259  000DA6  0EF0               	movlw	240
  3260  000DA8  6E8A               	movwf	138,c	;volatile
  3261  000DAA                     l2261:
  3262                           
  3263                           ;keypad.c: 197:             {;keypad.c: 199:                 col_loc = PORTB & 0xf0;
  3264  000DAA  5081               	movf	129,w,c	;volatile
  3265  000DAC  0BF0               	andlw	240
  3266  000DAE  0100               	movlb	0	; () banked
  3267  000DB0  6F6A               	movwf	_col_loc& (0+255),b
  3268  000DB2                     
  3269                           ; BSR set to: 0
  3270                           ;keypad.c: 200:             }while(col_loc==0xf0);
  3271  000DB2  0EF0               	movlw	240
  3272  000DB4  196A               	xorwf	_col_loc& (0+255),w,b
  3273  000DB6  B4D8               	btfsc	status,2,c
  3274  000DB8  EFE0  F006         	goto	u1841
  3275  000DBC  EFE2  F006         	goto	u1840
  3276  000DC0                     u1841:
  3277  000DC0  EFD5  F006         	goto	l2261
  3278  000DC4                     u1840:
  3279  000DC4                     
  3280                           ; BSR set to: 0
  3281                           ;keypad.c: 201:          col_loc = PORTB & 0xf0;
  3282  000DC4  5081               	movf	129,w,c	;volatile
  3283  000DC6  0BF0               	andlw	240
  3284  000DC8  6F6A               	movwf	_col_loc& (0+255),b
  3285                           
  3286                           ;keypad.c: 202:         }while(col_loc==0xf0);
  3287  000DCA  0EF0               	movlw	240
  3288  000DCC  196A               	xorwf	_col_loc& (0+255),w,b
  3289  000DCE  B4D8               	btfsc	status,2,c
  3290  000DD0  EFEC  F006         	goto	u1851
  3291  000DD4  EFEE  F006         	goto	u1850
  3292  000DD8                     u1851:
  3293  000DD8  EFD5  F006         	goto	l2261
  3294  000DDC                     u1850:
  3295  000DDC                     
  3296                           ; BSR set to: 0
  3297                           ;keypad.c: 204:         _delay((unsigned long)((30)*(8000000/4000.0)));
  3298  000DDC  0E4E               	movlw	78
  3299  000DDE  6E01               	movwf	??_keyfind^0,c
  3300  000DE0  0EEB               	movlw	235
  3301  000DE2                     u2417:
  3302  000DE2  2EE8               	decfsz	wreg,f,c
  3303  000DE4  D7FE               	bra	u2417
  3304  000DE6  2E01               	decfsz	??_keyfind^0,f,c
  3305  000DE8  D7FC               	bra	u2417
  3306  000DEA  F000               	nop	
  3307  000DEC                     
  3308                           ;keypad.c: 206:         col_loc = PORTB & 0xf0;
  3309  000DEC  5081               	movf	129,w,c	;volatile
  3310  000DEE  0BF0               	andlw	240
  3311  000DF0  0100               	movlb	0	; () banked
  3312  000DF2  6F6A               	movwf	_col_loc& (0+255),b
  3313  000DF4                     l2271:
  3314                           
  3315                           ; BSR set to: 0
  3316                           ;keypad.c: 211:     {;keypad.c: 212:         LATB = 0xfe;
  3317  000DF4  0EFE               	movlw	254
  3318  000DF6  6E8A               	movwf	138,c	;volatile
  3319  000DF8                     
  3320                           ; BSR set to: 0
  3321                           ;keypad.c: 213:         col_loc = PORTB & 0xf0;
  3322  000DF8  5081               	movf	129,w,c	;volatile
  3323  000DFA  0BF0               	andlw	240
  3324  000DFC  6F6A               	movwf	_col_loc& (0+255),b
  3325  000DFE                     
  3326                           ; BSR set to: 0
  3327                           ;keypad.c: 214:         temp_col=col_loc;
  3328  000DFE  C06A  F068         	movff	_col_loc,_temp_col
  3329  000E02                     
  3330                           ; BSR set to: 0
  3331                           ;keypad.c: 215:         if(col_loc!=0xf0)
  3332  000E02  0EF0               	movlw	240
  3333  000E04  196A               	xorwf	_col_loc& (0+255),w,b
  3334  000E06  B4D8               	btfsc	status,2,c
  3335  000E08  EF08  F007         	goto	u1861
  3336  000E0C  EF0A  F007         	goto	u1860
  3337  000E10                     u1861:
  3338  000E10  EF1C  F007         	goto	l2283
  3339  000E14                     u1860:
  3340  000E14                     
  3341                           ; BSR set to: 0
  3342                           ;keypad.c: 216:         {;keypad.c: 217:             rowloc=0;
  3343  000E14  0E00               	movlw	0
  3344  000E16  6F69               	movwf	_rowloc& (0+255),b
  3345                           
  3346                           ;keypad.c: 218:             while(temp_col!=0xf0)
  3347  000E18  EF11  F007         	goto	l332
  3348  000E1C                     l2281:
  3349                           
  3350                           ; BSR set to: 0
  3351                           ;keypad.c: 219:             {;keypad.c: 220:                 temp_col = PORTB & 0xf0;
  3352  000E1C  5081               	movf	129,w,c	;volatile
  3353  000E1E  0BF0               	andlw	240
  3354  000E20  6F68               	movwf	_temp_col& (0+255),b
  3355  000E22                     l332:
  3356                           
  3357                           ; BSR set to: 0
  3358                           ;keypad.c: 218:             while(temp_col!=0xf0)
  3359  000E22  0EF0               	movlw	240
  3360  000E24  1968               	xorwf	_temp_col& (0+255),w,b
  3361  000E26  A4D8               	btfss	status,2,c
  3362  000E28  EF18  F007         	goto	u1871
  3363  000E2C  EF1A  F007         	goto	u1870
  3364  000E30                     u1871:
  3365  000E30  EF0E  F007         	goto	l2281
  3366  000E34                     u1870:
  3367  000E34  EF80  F007         	goto	l2319
  3368  000E38                     l2283:
  3369                           
  3370                           ; BSR set to: 0
  3371                           ;keypad.c: 225:         LATB = 0xfd;
  3372  000E38  0EFD               	movlw	253
  3373  000E3A  6E8A               	movwf	138,c	;volatile
  3374  000E3C                     
  3375                           ; BSR set to: 0
  3376                           ;keypad.c: 226:         col_loc = PORTB & 0xf0;
  3377  000E3C  5081               	movf	129,w,c	;volatile
  3378  000E3E  0BF0               	andlw	240
  3379  000E40  6F6A               	movwf	_col_loc& (0+255),b
  3380  000E42                     
  3381                           ; BSR set to: 0
  3382                           ;keypad.c: 227:         temp_col=col_loc;
  3383  000E42  C06A  F068         	movff	_col_loc,_temp_col
  3384  000E46                     
  3385                           ; BSR set to: 0
  3386                           ;keypad.c: 228:         if(col_loc!=0xf0)
  3387  000E46  0EF0               	movlw	240
  3388  000E48  196A               	xorwf	_col_loc& (0+255),w,b
  3389  000E4A  B4D8               	btfsc	status,2,c
  3390  000E4C  EF2A  F007         	goto	u1881
  3391  000E50  EF2C  F007         	goto	u1880
  3392  000E54                     u1881:
  3393  000E54  EF3E  F007         	goto	l2295
  3394  000E58                     u1880:
  3395  000E58                     
  3396                           ; BSR set to: 0
  3397                           ;keypad.c: 229:         {;keypad.c: 230:             rowloc=1;
  3398  000E58  0E01               	movlw	1
  3399  000E5A  6F69               	movwf	_rowloc& (0+255),b
  3400                           
  3401                           ;keypad.c: 231:             while(temp_col!=0xf0)
  3402  000E5C  EF33  F007         	goto	l337
  3403  000E60                     l2293:
  3404                           
  3405                           ; BSR set to: 0
  3406                           ;keypad.c: 232:             {;keypad.c: 233:                 temp_col = PORTB & 0xf0;
  3407  000E60  5081               	movf	129,w,c	;volatile
  3408  000E62  0BF0               	andlw	240
  3409  000E64  6F68               	movwf	_temp_col& (0+255),b
  3410  000E66                     l337:
  3411                           
  3412                           ; BSR set to: 0
  3413                           ;keypad.c: 231:             while(temp_col!=0xf0)
  3414  000E66  0EF0               	movlw	240
  3415  000E68  1968               	xorwf	_temp_col& (0+255),w,b
  3416  000E6A  A4D8               	btfss	status,2,c
  3417  000E6C  EF3A  F007         	goto	u1891
  3418  000E70  EF3C  F007         	goto	u1890
  3419  000E74                     u1891:
  3420  000E74  EF30  F007         	goto	l2293
  3421  000E78                     u1890:
  3422  000E78  EF80  F007         	goto	l2319
  3423  000E7C                     l2295:
  3424                           
  3425                           ; BSR set to: 0
  3426                           ;keypad.c: 238:         LATB = 0xfb;
  3427  000E7C  0EFB               	movlw	251
  3428  000E7E  6E8A               	movwf	138,c	;volatile
  3429  000E80                     
  3430                           ; BSR set to: 0
  3431                           ;keypad.c: 239:         col_loc = PORTB & 0xf0;
  3432  000E80  5081               	movf	129,w,c	;volatile
  3433  000E82  0BF0               	andlw	240
  3434  000E84  6F6A               	movwf	_col_loc& (0+255),b
  3435  000E86                     
  3436                           ; BSR set to: 0
  3437                           ;keypad.c: 240:         temp_col=col_loc;
  3438  000E86  C06A  F068         	movff	_col_loc,_temp_col
  3439  000E8A                     
  3440                           ; BSR set to: 0
  3441                           ;keypad.c: 241:         if(col_loc!=0xf0)
  3442  000E8A  0EF0               	movlw	240
  3443  000E8C  196A               	xorwf	_col_loc& (0+255),w,b
  3444  000E8E  B4D8               	btfsc	status,2,c
  3445  000E90  EF4C  F007         	goto	u1901
  3446  000E94  EF4E  F007         	goto	u1900
  3447  000E98                     u1901:
  3448  000E98  EF60  F007         	goto	l2307
  3449  000E9C                     u1900:
  3450  000E9C                     
  3451                           ; BSR set to: 0
  3452                           ;keypad.c: 242:         {;keypad.c: 243:             rowloc=2;
  3453  000E9C  0E02               	movlw	2
  3454  000E9E  6F69               	movwf	_rowloc& (0+255),b
  3455                           
  3456                           ;keypad.c: 244:             while(temp_col!=0xf0)
  3457  000EA0  EF55  F007         	goto	l341
  3458  000EA4                     l2305:
  3459                           
  3460                           ; BSR set to: 0
  3461                           ;keypad.c: 245:             {;keypad.c: 246:                 temp_col = PORTB & 0xf0;
  3462  000EA4  5081               	movf	129,w,c	;volatile
  3463  000EA6  0BF0               	andlw	240
  3464  000EA8  6F68               	movwf	_temp_col& (0+255),b
  3465  000EAA                     l341:
  3466                           
  3467                           ; BSR set to: 0
  3468                           ;keypad.c: 244:             while(temp_col!=0xf0)
  3469  000EAA  0EF0               	movlw	240
  3470  000EAC  1968               	xorwf	_temp_col& (0+255),w,b
  3471  000EAE  A4D8               	btfss	status,2,c
  3472  000EB0  EF5C  F007         	goto	u1911
  3473  000EB4  EF5E  F007         	goto	u1910
  3474  000EB8                     u1911:
  3475  000EB8  EF52  F007         	goto	l2305
  3476  000EBC                     u1910:
  3477  000EBC  EF80  F007         	goto	l2319
  3478  000EC0                     l2307:
  3479                           
  3480                           ; BSR set to: 0
  3481                           ;keypad.c: 251:         LATB = 0xf7;
  3482  000EC0  0EF7               	movlw	247
  3483  000EC2  6E8A               	movwf	138,c	;volatile
  3484  000EC4                     
  3485                           ; BSR set to: 0
  3486                           ;keypad.c: 252:         col_loc = PORTB & 0xf0;
  3487  000EC4  5081               	movf	129,w,c	;volatile
  3488  000EC6  0BF0               	andlw	240
  3489  000EC8  6F6A               	movwf	_col_loc& (0+255),b
  3490  000ECA                     
  3491                           ; BSR set to: 0
  3492                           ;keypad.c: 253:         temp_col=col_loc;
  3493  000ECA  C06A  F068         	movff	_col_loc,_temp_col
  3494  000ECE                     
  3495                           ; BSR set to: 0
  3496                           ;keypad.c: 254:         if(col_loc!=0xf0)
  3497  000ECE  0EF0               	movlw	240
  3498  000ED0  196A               	xorwf	_col_loc& (0+255),w,b
  3499  000ED2  B4D8               	btfsc	status,2,c
  3500  000ED4  EF6E  F007         	goto	u1921
  3501  000ED8  EF70  F007         	goto	u1920
  3502  000EDC                     u1921:
  3503  000EDC  EFFA  F006         	goto	l2271
  3504  000EE0                     u1920:
  3505  000EE0                     
  3506                           ; BSR set to: 0
  3507                           ;keypad.c: 255:         {;keypad.c: 256:             rowloc=3;
  3508  000EE0  0E03               	movlw	3
  3509  000EE2  6F69               	movwf	_rowloc& (0+255),b
  3510                           
  3511                           ;keypad.c: 257:             while(temp_col!=0xf0)
  3512  000EE4  EF77  F007         	goto	l345
  3513  000EE8                     l2317:
  3514                           
  3515                           ; BSR set to: 0
  3516                           ;keypad.c: 258:             {;keypad.c: 259:                 temp_col = PORTB & 0xf0;
  3517  000EE8  5081               	movf	129,w,c	;volatile
  3518  000EEA  0BF0               	andlw	240
  3519  000EEC  6F68               	movwf	_temp_col& (0+255),b
  3520  000EEE                     l345:
  3521                           
  3522                           ; BSR set to: 0
  3523                           ;keypad.c: 257:             while(temp_col!=0xf0)
  3524  000EEE  0EF0               	movlw	240
  3525  000EF0  1968               	xorwf	_temp_col& (0+255),w,b
  3526  000EF2  A4D8               	btfss	status,2,c
  3527  000EF4  EF7E  F007         	goto	u1931
  3528  000EF8  EF80  F007         	goto	u1930
  3529  000EFC                     u1931:
  3530  000EFC  EF74  F007         	goto	l2317
  3531  000F00                     u1930:
  3532  000F00                     l2319:
  3533                           
  3534                           ; BSR set to: 0
  3535                           ;keypad.c: 268:     {;keypad.c: 270:         if(col_loc==0xe0)
  3536  000F00  0EE0               	movlw	224
  3537  000F02  196A               	xorwf	_col_loc& (0+255),w,b
  3538  000F04  A4D8               	btfss	status,2,c
  3539  000F06  EF87  F007         	goto	u1941
  3540  000F0A  EF89  F007         	goto	u1940
  3541  000F0E                     u1941:
  3542  000F0E  EF94  F007         	goto	l2327
  3543  000F12                     u1940:
  3544  000F12                     
  3545                           ; BSR set to: 0
  3546                           ;keypad.c: 271:         {;keypad.c: 272:              return keypad[rowloc][0];
  3547  000F12  5169               	movf	_rowloc& (0+255),w,b
  3548  000F14  0D04               	mullw	4
  3549  000F16  0E8B               	movlw	low _keypad
  3550  000F18  24F3               	addwf	243,w,c
  3551  000F1A  6ED9               	movwf	fsr2l,c
  3552  000F1C  0E00               	movlw	high _keypad
  3553  000F1E  20F4               	addwfc	prodh,w,c
  3554  000F20  6EDA               	movwf	fsr2h,c
  3555  000F22  50DF               	movf	indf2,w,c
  3556  000F24  EFC5  F007         	goto	l351
  3557  000F28                     l2327:
  3558                           
  3559                           ; BSR set to: 0
  3560                           ;keypad.c: 275:             if(col_loc==0xd0)
  3561  000F28  0ED0               	movlw	208
  3562  000F2A  196A               	xorwf	_col_loc& (0+255),w,b
  3563  000F2C  A4D8               	btfss	status,2,c
  3564  000F2E  EF9B  F007         	goto	u1951
  3565  000F32  EF9D  F007         	goto	u1950
  3566  000F36                     u1951:
  3567  000F36  EFA8  F007         	goto	l2335
  3568  000F3A                     u1950:
  3569  000F3A                     
  3570                           ; BSR set to: 0
  3571                           ;keypad.c: 276:         {;keypad.c: 277:             return keypad[rowloc][1];
  3572  000F3A  5169               	movf	_rowloc& (0+255),w,b
  3573  000F3C  0D04               	mullw	4
  3574  000F3E  0E8C               	movlw	low (_keypad+1)
  3575  000F40  24F3               	addwf	243,w,c
  3576  000F42  6ED9               	movwf	fsr2l,c
  3577  000F44  0E00               	movlw	high (_keypad+1)
  3578  000F46  20F4               	addwfc	prodh,w,c
  3579  000F48  6EDA               	movwf	fsr2h,c
  3580  000F4A  50DF               	movf	indf2,w,c
  3581  000F4C  EFC5  F007         	goto	l351
  3582  000F50                     l2335:
  3583                           
  3584                           ; BSR set to: 0
  3585                           ;keypad.c: 280:             if(col_loc==0xb0)
  3586  000F50  0EB0               	movlw	176
  3587  000F52  196A               	xorwf	_col_loc& (0+255),w,b
  3588  000F54  A4D8               	btfss	status,2,c
  3589  000F56  EFAF  F007         	goto	u1961
  3590  000F5A  EFB1  F007         	goto	u1960
  3591  000F5E                     u1961:
  3592  000F5E  EFBC  F007         	goto	l2343
  3593  000F62                     u1960:
  3594  000F62                     
  3595                           ; BSR set to: 0
  3596                           ;keypad.c: 281:         {;keypad.c: 282:             return keypad[rowloc][2];
  3597  000F62  5169               	movf	_rowloc& (0+255),w,b
  3598  000F64  0D04               	mullw	4
  3599  000F66  0E8D               	movlw	low (_keypad+2)
  3600  000F68  24F3               	addwf	243,w,c
  3601  000F6A  6ED9               	movwf	fsr2l,c
  3602  000F6C  0E00               	movlw	high (_keypad+2)
  3603  000F6E  20F4               	addwfc	prodh,w,c
  3604  000F70  6EDA               	movwf	fsr2h,c
  3605  000F72  50DF               	movf	indf2,w,c
  3606  000F74  EFC5  F007         	goto	l351
  3607  000F78                     l2343:
  3608                           
  3609                           ; BSR set to: 0
  3610                           ;keypad.c: 286:         {;keypad.c: 287:             return keypad[rowloc][3];
  3611  000F78  5169               	movf	_rowloc& (0+255),w,b
  3612  000F7A  0D04               	mullw	4
  3613  000F7C  0E8E               	movlw	low (_keypad+3)
  3614  000F7E  24F3               	addwf	243,w,c
  3615  000F80  6ED9               	movwf	fsr2l,c
  3616  000F82  0E00               	movlw	high (_keypad+3)
  3617  000F84  20F4               	addwfc	prodh,w,c
  3618  000F86  6EDA               	movwf	fsr2h,c
  3619  000F88  50DF               	movf	indf2,w,c
  3620  000F8A                     l351:
  3621                           
  3622                           ; BSR set to: 0
  3623  000F8A  0012               	return		;funcret
  3624  000F8C                     __end_of_keyfind:
  3625                           	callstack 0
  3626                           
  3627 ;; *************** function _LCD_String_xy *****************
  3628 ;; Defined at:
  3629 ;;		line 81 in file "LCD.c"
  3630 ;; Parameters:    Size  Location     Type
  3631 ;;  row             1    wreg     unsigned char 
  3632 ;;  pos             1    4[COMRAM] unsigned char 
  3633 ;;  msg             2    5[COMRAM] PTR const unsigned char 
  3634 ;;		 -> main@Cadena(10), STR_2(14), STR_1(15), 
  3635 ;; Auto vars:     Size  Location     Type
  3636 ;;  row             1    7[COMRAM] unsigned char 
  3637 ;;  location        1    8[COMRAM] unsigned char 
  3638 ;; Return value:  Size  Location     Type
  3639 ;;                  1    wreg      void 
  3640 ;; Registers used:
  3641 ;;		wreg, fsr1l, fsr1h, status,2, status,0, tblptrl, tblptrh, tblptru, cstack
  3642 ;; Tracked objects:
  3643 ;;		On entry : 0/0
  3644 ;;		On exit  : 0/0
  3645 ;;		Unchanged: 0/0
  3646 ;; Data sizes:     COMRAM   BANK0   BANK1   BANK2   BANK3   BANK4   BANK5   BANK6   BANK7
  3647 ;;      Params:         3       0       0       0       0       0       0       0       0
  3648 ;;      Locals:         2       0       0       0       0       0       0       0       0
  3649 ;;      Temps:          0       0       0       0       0       0       0       0       0
  3650 ;;      Totals:         5       0       0       0       0       0       0       0       0
  3651 ;;Total ram usage:        5 bytes
  3652 ;; Hardware stack levels used: 1
  3653 ;; Hardware stack levels required when called: 2
  3654 ;; This function calls:
  3655 ;;		_LCD_Command
  3656 ;;		_LCD_String
  3657 ;; This function is called by:
  3658 ;;		_main
  3659 ;;		_PedirDato
  3660 ;; This function uses a non-reentrant model
  3661 ;;
  3662                           
  3663                           	psect	text17
  3664  001B44                     __ptext17:
  3665                           	callstack 0
  3666  001B44                     _LCD_String_xy:
  3667                           	callstack 27
  3668                           
  3669                           ; BSR set to: 0
  3670                           ;incstack = 0
  3671                           ;LCD_String_xy@row stored from wreg
  3672  001B44  6E08               	movwf	LCD_String_xy@row^0,c
  3673  001B46                     
  3674                           ;LCD.c: 84:     if(row<=1)
  3675  001B46  0E02               	movlw	2
  3676  001B48  6008               	cpfslt	LCD_String_xy@row^0,c
  3677  001B4A  EFA9  F00D         	goto	u1771
  3678  001B4E  EFAB  F00D         	goto	u1770
  3679  001B52                     u1771:
  3680  001B52  EFB4  F00D         	goto	l2225
  3681  001B56                     u1770:
  3682  001B56                     
  3683                           ;LCD.c: 85:     {;LCD.c: 86:         location = (0x80) | ((pos) & 0x0f);
  3684  001B56  5005               	movf	LCD_String_xy@pos^0,w,c
  3685  001B58  0B0F               	andlw	15
  3686  001B5A  0980               	iorlw	128
  3687  001B5C  6E09               	movwf	LCD_String_xy@location^0,c
  3688  001B5E                     
  3689                           ;LCD.c: 87:         LCD_Command(location);
  3690  001B5E  5009               	movf	LCD_String_xy@location^0,w,c
  3691  001B60  EC15  F00D         	call	_LCD_Command
  3692                           
  3693                           ;LCD.c: 88:     }
  3694  001B64  EFBB  F00D         	goto	l2229
  3695  001B68                     l2225:
  3696                           
  3697                           ;LCD.c: 90:     {;LCD.c: 91:         location = (0xC0) | ((pos) & 0x0f);
  3698  001B68  5005               	movf	LCD_String_xy@pos^0,w,c
  3699  001B6A  0B0F               	andlw	15
  3700  001B6C  09C0               	iorlw	192
  3701  001B6E  6E09               	movwf	LCD_String_xy@location^0,c
  3702  001B70                     
  3703                           ;LCD.c: 92:         LCD_Command(location);
  3704  001B70  5009               	movf	LCD_String_xy@location^0,w,c
  3705  001B72  EC15  F00D         	call	_LCD_Command
  3706  001B76                     l2229:
  3707                           
  3708                           ;LCD.c: 96:     LCD_String(msg);
  3709  001B76  C006  F003         	movff	LCD_String_xy@msg,LCD_String@msg
  3710  001B7A  C007  F004         	movff	LCD_String_xy@msg+1,LCD_String@msg+1
  3711  001B7E  EC13  F00C         	call	_LCD_String	;wreg free
  3712  001B82  0012               	return		;funcret
  3713  001B84                     __end_of_LCD_String_xy:
  3714                           	callstack 0
  3715                           
  3716 ;; *************** function _LCD_String *****************
  3717 ;; Defined at:
  3718 ;;		line 71 in file "LCD.c"
  3719 ;; Parameters:    Size  Location     Type
  3720 ;;  msg             2    2[COMRAM] PTR const unsigned char 
  3721 ;;		 -> main@Cadena(10), STR_2(14), STR_1(15), 
  3722 ;; Auto vars:     Size  Location     Type
  3723 ;;		None
  3724 ;; Return value:  Size  Location     Type
  3725 ;;                  1    wreg      void 
  3726 ;; Registers used:
  3727 ;;		wreg, fsr1l, fsr1h, status,2, status,0, tblptrl, tblptrh, tblptru, cstack
  3728 ;; Tracked objects:
  3729 ;;		On entry : 0/0
  3730 ;;		On exit  : 0/0
  3731 ;;		Unchanged: 0/0
  3732 ;; Data sizes:     COMRAM   BANK0   BANK1   BANK2   BANK3   BANK4   BANK5   BANK6   BANK7
  3733 ;;      Params:         2       0       0       0       0       0       0       0       0
  3734 ;;      Locals:         0       0       0       0       0       0       0       0       0
  3735 ;;      Temps:          0       0       0       0       0       0       0       0       0
  3736 ;;      Totals:         2       0       0       0       0       0       0       0       0
  3737 ;;Total ram usage:        2 bytes
  3738 ;; Hardware stack levels used: 1
  3739 ;; Hardware stack levels required when called: 1
  3740 ;; This function calls:
  3741 ;;		_LCD_Char
  3742 ;; This function is called by:
  3743 ;;		_main
  3744 ;;		_LCD_String_xy
  3745 ;; This function uses a non-reentrant model
  3746 ;;
  3747                           
  3748                           	psect	text18
  3749  001826                     __ptext18:
  3750                           	callstack 0
  3751  001826                     _LCD_String:
  3752                           	callstack 27
  3753  001826                     
  3754                           ;LCD.c: 71: void LCD_String(const char *msg);LCD.c: 72: {;LCD.c: 73:  while((*msg)!=0)
  3755  001826  EF29  F00C         	goto	l2153
  3756  00182A                     l2149:
  3757                           
  3758                           ;LCD.c: 74:  {;LCD.c: 75:    LCD_Char(*msg);
  3759  00182A  C003  FFF6         	movff	LCD_String@msg,tblptrl
  3760  00182E  C004  FFF7         	movff	LCD_String@msg+1,tblptrh
  3761  001832  6AF8               	clrf	tblptru,c
  3762  001834  0E07               	movlw	(high __ramtop+-1)
  3763  001836  64F7               	cpfsgt	tblptrh,c
  3764  001838  D003               	bra	u1707
  3765  00183A  0008               	tblrd		*
  3766  00183C  50F5               	movf	tablat,w,c
  3767  00183E  D005               	bra	u1700
  3768  001840                     u1707:
  3769  001840  CFF6 FFE1          	movff	tblptrl,fsr1l
  3770  001844  CFF7 FFE2          	movff	tblptrh,fsr1h
  3771  001848  50E7               	movf	indf1,w,c
  3772  00184A                     u1700:
  3773  00184A  ECED  F00C         	call	_LCD_Char
  3774  00184E                     
  3775                           ;LCD.c: 76:    msg++;
  3776  00184E  4A03               	infsnz	LCD_String@msg^0,f,c
  3777  001850  2A04               	incf	(LCD_String@msg+1)^0,f,c
  3778  001852                     l2153:
  3779                           
  3780                           ;LCD.c: 73:  while((*msg)!=0)
  3781  001852  C003  FFF6         	movff	LCD_String@msg,tblptrl
  3782  001856  C004  FFF7         	movff	LCD_String@msg+1,tblptrh
  3783  00185A  6AF8               	clrf	tblptru,c
  3784  00185C  0E07               	movlw	(high __ramtop+-1)
  3785  00185E  64F7               	cpfsgt	tblptrh,c
  3786  001860  D003               	bra	u1717
  3787  001862  0008               	tblrd		*
  3788  001864  50F5               	movf	tablat,w,c
  3789  001866  D005               	bra	u1710
  3790  001868                     u1717:
  3791  001868  CFF6 FFE1          	movff	tblptrl,fsr1l
  3792  00186C  CFF7 FFE2          	movff	tblptrh,fsr1h
  3793  001870  50E7               	movf	indf1,w,c
  3794  001872                     u1710:
  3795  001872  0900               	iorlw	0
  3796  001874  A4D8               	btfss	status,2,c
  3797  001876  EF3F  F00C         	goto	u1721
  3798  00187A  EF41  F00C         	goto	u1720
  3799  00187E                     u1721:
  3800  00187E  EF15  F00C         	goto	l2149
  3801  001882                     u1720:
  3802  001882  0012               	return		;funcret
  3803  001884                     __end_of_LCD_String:
  3804                           	callstack 0
  3805                           
  3806 ;; *************** function _LCD_Char *****************
  3807 ;; Defined at:
  3808 ;;		line 57 in file "LCD.c"
  3809 ;; Parameters:    Size  Location     Type
  3810 ;;  dat             1    wreg     unsigned char 
  3811 ;; Auto vars:     Size  Location     Type
  3812 ;;  dat             1    1[COMRAM] unsigned char 
  3813 ;; Return value:  Size  Location     Type
  3814 ;;                  1    wreg      void 
  3815 ;; Registers used:
  3816 ;;		wreg, status,2, status,0
  3817 ;; Tracked objects:
  3818 ;;		On entry : 0/0
  3819 ;;		On exit  : 0/0
  3820 ;;		Unchanged: 0/0
  3821 ;; Data sizes:     COMRAM   BANK0   BANK1   BANK2   BANK3   BANK4   BANK5   BANK6   BANK7
  3822 ;;      Params:         0       0       0       0       0       0       0       0       0
  3823 ;;      Locals:         1       0       0       0       0       0       0       0       0
  3824 ;;      Temps:          1       0       0       0       0       0       0       0       0
  3825 ;;      Totals:         2       0       0       0       0       0       0       0       0
  3826 ;;Total ram usage:        2 bytes
  3827 ;; Hardware stack levels used: 1
  3828 ;; This function calls:
  3829 ;;		Nothing
  3830 ;; This function is called by:
  3831 ;;		_main
  3832 ;;		_PedirDato
  3833 ;;		_LCD_String
  3834 ;; This function uses a non-reentrant model
  3835 ;;
  3836                           
  3837                           	psect	text19
  3838  0019DA                     __ptext19:
  3839                           	callstack 0
  3840  0019DA                     _LCD_Char:
  3841                           	callstack 27
  3842                           
  3843                           ;incstack = 0
  3844                           ;LCD_Char@dat stored from wreg
  3845  0019DA  6E02               	movwf	LCD_Char@dat^0,c
  3846  0019DC                     
  3847                           ;LCD.c: 57: void LCD_Char(unsigned char dat);LCD.c: 58: {;LCD.c: 59:  LATD = (LATD & 0x0
      +                          f) | (0xF0 & dat);
  3848  0019DC  C002  F001         	movff	LCD_Char@dat,??_LCD_Char
  3849  0019E0  0EF0               	movlw	240
  3850  0019E2  1601               	andwf	??_LCD_Char^0,f,c
  3851  0019E4  508C               	movf	140,w,c	;volatile
  3852  0019E6  0B0F               	andlw	15
  3853  0019E8  1001               	iorwf	??_LCD_Char^0,w,c
  3854  0019EA  6E8C               	movwf	140,c	;volatile
  3855  0019EC                     
  3856                           ;LCD.c: 60:  LATD0 = 1;
  3857  0019EC  808C               	bsf	3980,0,c	;volatile
  3858  0019EE                     
  3859                           ;LCD.c: 61:  LATD1 = 1;
  3860  0019EE  828C               	bsf	3980,1,c	;volatile
  3861  0019F0                     
  3862                           ;LCD.c: 62:  __nop();
  3863  0019F0  F000               	nop	
  3864  0019F2                     
  3865                           ;LCD.c: 63:  LATD1 = 0;
  3866  0019F2  928C               	bcf	3980,1,c	;volatile
  3867  0019F4                     
  3868                           ;LCD.c: 64:  _delay((unsigned long)((1)*(8000000/4000.0)));
  3869  0019F4  0E03               	movlw	3
  3870  0019F6  6E01               	movwf	??_LCD_Char^0,c
  3871  0019F8  0E98               	movlw	152
  3872  0019FA                     u2427:
  3873  0019FA  2EE8               	decfsz	wreg,f,c
  3874  0019FC  D7FE               	bra	u2427
  3875  0019FE  2E01               	decfsz	??_LCD_Char^0,f,c
  3876  001A00  D7FC               	bra	u2427
  3877  001A02                     
  3878                           ;LCD.c: 65:     LATD = (LATD & 0x0f) | (dat<<4);
  3879  001A02  C002  F001         	movff	LCD_Char@dat,??_LCD_Char
  3880  001A06  3A01               	swapf	??_LCD_Char^0,f,c
  3881  001A08  0EF0               	movlw	240
  3882  001A0A  1601               	andwf	??_LCD_Char^0,f,c
  3883  001A0C  508C               	movf	140,w,c	;volatile
  3884  001A0E  0B0F               	andlw	15
  3885  001A10  1001               	iorwf	??_LCD_Char^0,w,c
  3886  001A12  6E8C               	movwf	140,c	;volatile
  3887  001A14                     
  3888                           ;LCD.c: 66:  LATD1 = 1;
  3889  001A14  828C               	bsf	3980,1,c	;volatile
  3890  001A16                     
  3891                           ;LCD.c: 67:  __nop();
  3892  001A16  F000               	nop	
  3893  001A18                     
  3894                           ;LCD.c: 68:  LATD1 = 0;
  3895  001A18  928C               	bcf	3980,1,c	;volatile
  3896                           
  3897                           ;LCD.c: 69:  _delay((unsigned long)((3)*(8000000/4000.0)));
  3898  001A1A  0E08               	movlw	8
  3899  001A1C  6E01               	movwf	??_LCD_Char^0,c
  3900  001A1E  0ECA               	movlw	202
  3901  001A20                     u2437:
  3902  001A20  2EE8               	decfsz	wreg,f,c
  3903  001A22  D7FE               	bra	u2437
  3904  001A24  2E01               	decfsz	??_LCD_Char^0,f,c
  3905  001A26  D7FC               	bra	u2437
  3906  001A28  0012               	return		;funcret
  3907  001A2A                     __end_of_LCD_Char:
  3908                           	callstack 0
  3909                           
  3910 ;; *************** function _LCD_Clear *****************
  3911 ;; Defined at:
  3912 ;;		line 100 in file "LCD.c"
  3913 ;; Parameters:    Size  Location     Type
  3914 ;;		None
  3915 ;; Auto vars:     Size  Location     Type
  3916 ;;		None
  3917 ;; Return value:  Size  Location     Type
  3918 ;;                  1    wreg      void 
  3919 ;; Registers used:
  3920 ;;		wreg, status,2, status,0, cstack
  3921 ;; Tracked objects:
  3922 ;;		On entry : 0/0
  3923 ;;		On exit  : 0/0
  3924 ;;		Unchanged: 0/0
  3925 ;; Data sizes:     COMRAM   BANK0   BANK1   BANK2   BANK3   BANK4   BANK5   BANK6   BANK7
  3926 ;;      Params:         0       0       0       0       0       0       0       0       0
  3927 ;;      Locals:         0       0       0       0       0       0       0       0       0
  3928 ;;      Temps:          1       0       0       0       0       0       0       0       0
  3929 ;;      Totals:         1       0       0       0       0       0       0       0       0
  3930 ;;Total ram usage:        1 bytes
  3931 ;; Hardware stack levels used: 1
  3932 ;; Hardware stack levels required when called: 1
  3933 ;; This function calls:
  3934 ;;		_LCD_Command
  3935 ;; This function is called by:
  3936 ;;		_PedirDato
  3937 ;; This function uses a non-reentrant model
  3938 ;;
  3939                           
  3940                           	psect	text20
  3941  001C8E                     __ptext20:
  3942                           	callstack 0
  3943  001C8E                     _LCD_Clear:
  3944                           	callstack 28
  3945  001C8E                     
  3946                           ;LCD.c: 102:     LCD_Command(0x01);
  3947  001C8E  0E01               	movlw	1
  3948  001C90  EC15  F00D         	call	_LCD_Command
  3949  001C94                     
  3950                           ;LCD.c: 103:     _delay((unsigned long)((3)*(8000000/4000.0)));
  3951  001C94  0E08               	movlw	8
  3952  001C96  6E03               	movwf	??_LCD_Clear^0,c
  3953  001C98  0ECA               	movlw	202
  3954  001C9A                     u2447:
  3955  001C9A  2EE8               	decfsz	wreg,f,c
  3956  001C9C  D7FE               	bra	u2447
  3957  001C9E  2E03               	decfsz	??_LCD_Clear^0,f,c
  3958  001CA0  D7FC               	bra	u2447
  3959  001CA2                     
  3960                           ;LCD.c: 104:     LCD_Command (0x80);
  3961  001CA2  0E80               	movlw	128
  3962  001CA4  EC15  F00D         	call	_LCD_Command
  3963                           
  3964                           ;LCD.c: 105:     _delay((unsigned long)((1)*(8000000/4000.0)));
  3965  001CA8  0E03               	movlw	3
  3966  001CAA  6E03               	movwf	??_LCD_Clear^0,c
  3967  001CAC  0E98               	movlw	152
  3968  001CAE                     u2457:
  3969  001CAE  2EE8               	decfsz	wreg,f,c
  3970  001CB0  D7FE               	bra	u2457
  3971  001CB2  2E03               	decfsz	??_LCD_Clear^0,f,c
  3972  001CB4  D7FC               	bra	u2457
  3973  001CB6  0012               	return		;funcret
  3974  001CB8                     __end_of_LCD_Clear:
  3975                           	callstack 0
  3976                           
  3977 ;; *************** function _LCD_Init *****************
  3978 ;; Defined at:
  3979 ;;		line 26 in file "LCD.c"
  3980 ;; Parameters:    Size  Location     Type
  3981 ;;		None
  3982 ;; Auto vars:     Size  Location     Type
  3983 ;;		None
  3984 ;; Return value:  Size  Location     Type
  3985 ;;                  1    wreg      void 
  3986 ;; Registers used:
  3987 ;;		wreg, status,2, status,0, cstack
  3988 ;; Tracked objects:
  3989 ;;		On entry : 0/0
  3990 ;;		On exit  : 0/0
  3991 ;;		Unchanged: 0/0
  3992 ;; Data sizes:     COMRAM   BANK0   BANK1   BANK2   BANK3   BANK4   BANK5   BANK6   BANK7
  3993 ;;      Params:         0       0       0       0       0       0       0       0       0
  3994 ;;      Locals:         0       0       0       0       0       0       0       0       0
  3995 ;;      Temps:          1       0       0       0       0       0       0       0       0
  3996 ;;      Totals:         1       0       0       0       0       0       0       0       0
  3997 ;;Total ram usage:        1 bytes
  3998 ;; Hardware stack levels used: 1
  3999 ;; Hardware stack levels required when called: 1
  4000 ;; This function calls:
  4001 ;;		_LCD_Command
  4002 ;; This function is called by:
  4003 ;;		_main
  4004 ;; This function uses a non-reentrant model
  4005 ;;
  4006                           
  4007                           	psect	text21
  4008  001C2E                     __ptext21:
  4009                           	callstack 0
  4010  001C2E                     _LCD_Init:
  4011                           	callstack 29
  4012  001C2E                     
  4013                           ;LCD.c: 28:     TRISD = 0;
  4014  001C2E  0E00               	movlw	0
  4015  001C30  6E95               	movwf	149,c	;volatile
  4016  001C32                     
  4017                           ;LCD.c: 29:     _delay((unsigned long)((15)*(8000000/4000.0)));
  4018  001C32  0E27               	movlw	39
  4019  001C34  6E03               	movwf	??_LCD_Init^0,c
  4020  001C36  0EF5               	movlw	245
  4021  001C38                     u2467:
  4022  001C38  2EE8               	decfsz	wreg,f,c
  4023  001C3A  D7FE               	bra	u2467
  4024  001C3C  2E03               	decfsz	??_LCD_Init^0,f,c
  4025  001C3E  D7FC               	bra	u2467
  4026  001C40  F000               	nop	
  4027  001C42                     
  4028                           ;LCD.c: 30:     LCD_Command(0x02);
  4029  001C42  0E02               	movlw	2
  4030  001C44  EC15  F00D         	call	_LCD_Command
  4031  001C48                     
  4032                           ;LCD.c: 32:     LCD_Command(0x28);
  4033  001C48  0E28               	movlw	40
  4034  001C4A  EC15  F00D         	call	_LCD_Command
  4035  001C4E                     
  4036                           ;LCD.c: 34:  LCD_Command(0x01);
  4037  001C4E  0E01               	movlw	1
  4038  001C50  EC15  F00D         	call	_LCD_Command
  4039  001C54                     
  4040                           ;LCD.c: 35:     LCD_Command(0x0c);
  4041  001C54  0E0C               	movlw	12
  4042  001C56  EC15  F00D         	call	_LCD_Command
  4043  001C5A                     
  4044                           ;LCD.c: 36:  LCD_Command(0x06);
  4045  001C5A  0E06               	movlw	6
  4046  001C5C  EC15  F00D         	call	_LCD_Command
  4047  001C60  0012               	return		;funcret
  4048  001C62                     __end_of_LCD_Init:
  4049                           	callstack 0
  4050                           
  4051 ;; *************** function _LCD_Command *****************
  4052 ;; Defined at:
  4053 ;;		line 39 in file "LCD.c"
  4054 ;; Parameters:    Size  Location     Type
  4055 ;;  cmd             1    wreg     unsigned char 
  4056 ;; Auto vars:     Size  Location     Type
  4057 ;;  cmd             1    1[COMRAM] unsigned char 
  4058 ;; Return value:  Size  Location     Type
  4059 ;;                  1    wreg      void 
  4060 ;; Registers used:
  4061 ;;		wreg, status,2, status,0
  4062 ;; Tracked objects:
  4063 ;;		On entry : 0/0
  4064 ;;		On exit  : 0/0
  4065 ;;		Unchanged: 0/0
  4066 ;; Data sizes:     COMRAM   BANK0   BANK1   BANK2   BANK3   BANK4   BANK5   BANK6   BANK7
  4067 ;;      Params:         0       0       0       0       0       0       0       0       0
  4068 ;;      Locals:         1       0       0       0       0       0       0       0       0
  4069 ;;      Temps:          1       0       0       0       0       0       0       0       0
  4070 ;;      Totals:         2       0       0       0       0       0       0       0       0
  4071 ;;Total ram usage:        2 bytes
  4072 ;; Hardware stack levels used: 1
  4073 ;; This function calls:
  4074 ;;		Nothing
  4075 ;; This function is called by:
  4076 ;;		_PedirDato
  4077 ;;		_LCD_Init
  4078 ;;		_LCD_String_xy
  4079 ;;		_LCD_Clear
  4080 ;; This function uses a non-reentrant model
  4081 ;;
  4082                           
  4083                           	psect	text22
  4084  001A2A                     __ptext22:
  4085                           	callstack 0
  4086  001A2A                     _LCD_Command:
  4087                           	callstack 28
  4088                           
  4089                           ;incstack = 0
  4090                           ;LCD_Command@cmd stored from wreg
  4091  001A2A  6E02               	movwf	LCD_Command@cmd^0,c
  4092  001A2C                     
  4093                           ;LCD.c: 39: void LCD_Command(unsigned char cmd );LCD.c: 40: {;LCD.c: 41:  LATD = (LATD &
      +                           0x0f) |(0xF0 & cmd);
  4094  001A2C  C002  F001         	movff	LCD_Command@cmd,??_LCD_Command
  4095  001A30  0EF0               	movlw	240
  4096  001A32  1601               	andwf	??_LCD_Command^0,f,c
  4097  001A34  508C               	movf	140,w,c	;volatile
  4098  001A36  0B0F               	andlw	15
  4099  001A38  1001               	iorwf	??_LCD_Command^0,w,c
  4100  001A3A  6E8C               	movwf	140,c	;volatile
  4101  001A3C                     
  4102                           ;LCD.c: 42:  LATD0 = 0;
  4103  001A3C  908C               	bcf	3980,0,c	;volatile
  4104  001A3E                     
  4105                           ;LCD.c: 43:  LATD1 = 1;
  4106  001A3E  828C               	bsf	3980,1,c	;volatile
  4107  001A40                     
  4108                           ;LCD.c: 44:  __nop();
  4109  001A40  F000               	nop	
  4110  001A42                     
  4111                           ;LCD.c: 45:  LATD1 = 0;
  4112  001A42  928C               	bcf	3980,1,c	;volatile
  4113  001A44                     
  4114                           ;LCD.c: 46:  _delay((unsigned long)((1)*(8000000/4000.0)));
  4115  001A44  0E03               	movlw	3
  4116  001A46  6E01               	movwf	??_LCD_Command^0,c
  4117  001A48  0E98               	movlw	152
  4118  001A4A                     u2477:
  4119  001A4A  2EE8               	decfsz	wreg,f,c
  4120  001A4C  D7FE               	bra	u2477
  4121  001A4E  2E01               	decfsz	??_LCD_Command^0,f,c
  4122  001A50  D7FC               	bra	u2477
  4123  001A52                     
  4124                           ;LCD.c: 47:     LATD = (LATD & 0x0f) | (cmd<<4);
  4125  001A52  C002  F001         	movff	LCD_Command@cmd,??_LCD_Command
  4126  001A56  3A01               	swapf	??_LCD_Command^0,f,c
  4127  001A58  0EF0               	movlw	240
  4128  001A5A  1601               	andwf	??_LCD_Command^0,f,c
  4129  001A5C  508C               	movf	140,w,c	;volatile
  4130  001A5E  0B0F               	andlw	15
  4131  001A60  1001               	iorwf	??_LCD_Command^0,w,c
  4132  001A62  6E8C               	movwf	140,c	;volatile
  4133  001A64                     
  4134                           ;LCD.c: 48:  LATD1 = 1;
  4135  001A64  828C               	bsf	3980,1,c	;volatile
  4136  001A66                     
  4137                           ;LCD.c: 49:  __nop();
  4138  001A66  F000               	nop	
  4139  001A68                     
  4140                           ;LCD.c: 50:  LATD1 = 0;
  4141  001A68  928C               	bcf	3980,1,c	;volatile
  4142                           
  4143                           ;LCD.c: 51:  _delay((unsigned long)((3)*(8000000/4000.0)));
  4144  001A6A  0E08               	movlw	8
  4145  001A6C  6E01               	movwf	??_LCD_Command^0,c
  4146  001A6E  0ECA               	movlw	202
  4147  001A70                     u2487:
  4148  001A70  2EE8               	decfsz	wreg,f,c
  4149  001A72  D7FE               	bra	u2487
  4150  001A74  2E01               	decfsz	??_LCD_Command^0,f,c
  4151  001A76  D7FC               	bra	u2487
  4152  001A78  0012               	return		;funcret
  4153  001A7A                     __end_of_LCD_Command:
  4154                           	callstack 0
  4155                           
  4156 ;; *************** function _DatosSensorTH *****************
  4157 ;; Defined at:
  4158 ;;		line 147 in file "Main_Invernadero.c"
  4159 ;; Parameters:    Size  Location     Type
  4160 ;;  Datos           2    2[COMRAM] PTR unsigned char 
  4161 ;;		 -> main@Datos(2), 
  4162 ;; Auto vars:     Size  Location     Type
  4163 ;;  T_Integral      1    5[COMRAM] unsigned char 
  4164 ;;  RH_Integral     1    4[COMRAM] unsigned char 
  4165 ;;  Checksum        1    0        unsigned char 
  4166 ;;  T_Decimal       1    0        unsigned char 
  4167 ;;  RH_Decimal      1    0        unsigned char 
  4168 ;; Return value:  Size  Location     Type
  4169 ;;                  1    wreg      void 
  4170 ;; Registers used:
  4171 ;;		wreg, fsr2l, fsr2h, status,2, status,0, cstack
  4172 ;; Tracked objects:
  4173 ;;		On entry : 0/0
  4174 ;;		On exit  : 0/0
  4175 ;;		Unchanged: 0/0
  4176 ;; Data sizes:     COMRAM   BANK0   BANK1   BANK2   BANK3   BANK4   BANK5   BANK6   BANK7
  4177 ;;      Params:         2       0       0       0       0       0       0       0       0
  4178 ;;      Locals:         2       0       0       0       0       0       0       0       0
  4179 ;;      Temps:          0       0       0       0       0       0       0       0       0
  4180 ;;      Totals:         4       0       0       0       0       0       0       0       0
  4181 ;;Total ram usage:        4 bytes
  4182 ;; Hardware stack levels used: 1
  4183 ;; Hardware stack levels required when called: 1
  4184 ;; This function calls:
  4185 ;;		_DHT11_CheckResponse
  4186 ;;		_DHT11_ReadData
  4187 ;;		_DHT11_Start
  4188 ;; This function is called by:
  4189 ;;		_main
  4190 ;; This function uses a non-reentrant model
  4191 ;;
  4192                           
  4193                           	psect	text23
  4194  001B84                     __ptext23:
  4195                           	callstack 0
  4196  001B84                     _DatosSensorTH:
  4197                           	callstack 29
  4198  001B84                     
  4199                           ;Main_Invernadero.c: 148:          char RH_Decimal,RH_Integral,T_Decimal,T_Integral;;Mai
      +                          n_Invernadero.c: 149:          char Checksum;;Main_Invernadero.c: 150:          DHT11_St
      +                          art();
  4200  001B84  EC7F  F00E         	call	_DHT11_Start	;wreg free
  4201  001B88                     
  4202                           ;Main_Invernadero.c: 151:          DHT11_CheckResponse();
  4203  001B88  EC31  F00E         	call	_DHT11_CheckResponse	;wreg free
  4204  001B8C                     
  4205                           ;Main_Invernadero.c: 154:          RH_Integral = DHT11_ReadData();
  4206  001B8C  EC42  F00C         	call	_DHT11_ReadData	;wreg free
  4207  001B90  6E05               	movwf	DatosSensorTH@RH_Integral^0,c
  4208  001B92  EC42  F00C         	call	_DHT11_ReadData	;wreg free
  4209  001B96                     
  4210                           ;Main_Invernadero.c: 156:          T_Integral = DHT11_ReadData();
  4211  001B96  EC42  F00C         	call	_DHT11_ReadData	;wreg free
  4212  001B9A  6E06               	movwf	DatosSensorTH@T_Integral^0,c
  4213  001B9C  EC42  F00C         	call	_DHT11_ReadData	;wreg free
  4214  001BA0  EC42  F00C         	call	_DHT11_ReadData	;wreg free
  4215  001BA4                     
  4216                           ;Main_Invernadero.c: 160:          Datos[0]=T_Integral;
  4217  001BA4  C003  FFD9         	movff	DatosSensorTH@Datos,fsr2l
  4218  001BA8  C004  FFDA         	movff	DatosSensorTH@Datos+1,fsr2h
  4219  001BAC  C006  FFDF         	movff	DatosSensorTH@T_Integral,indf2
  4220  001BB0                     
  4221                           ;Main_Invernadero.c: 161:          Datos[1]=RH_Integral;
  4222  001BB0  EE20 F001          	lfsr	2,1
  4223  001BB4  5003               	movf	DatosSensorTH@Datos^0,w,c
  4224  001BB6  26D9               	addwf	fsr2l,f,c
  4225  001BB8  5004               	movf	(DatosSensorTH@Datos+1)^0,w,c
  4226  001BBA  22DA               	addwfc	fsr2h,f,c
  4227  001BBC  C005  FFDF         	movff	DatosSensorTH@RH_Integral,indf2
  4228  001BC0  0012               	return		;funcret
  4229  001BC2                     __end_of_DatosSensorTH:
  4230                           	callstack 0
  4231                           
  4232 ;; *************** function _DHT11_Start *****************
  4233 ;; Defined at:
  4234 ;;		line 22 in file "DHT11.c"
  4235 ;; Parameters:    Size  Location     Type
  4236 ;;		None
  4237 ;; Auto vars:     Size  Location     Type
  4238 ;;		None
  4239 ;; Return value:  Size  Location     Type
  4240 ;;                  1    wreg      void 
  4241 ;; Registers used:
  4242 ;;		wreg
  4243 ;; Tracked objects:
  4244 ;;		On entry : 0/0
  4245 ;;		On exit  : 0/0
  4246 ;;		Unchanged: 0/0
  4247 ;; Data sizes:     COMRAM   BANK0   BANK1   BANK2   BANK3   BANK4   BANK5   BANK6   BANK7
  4248 ;;      Params:         0       0       0       0       0       0       0       0       0
  4249 ;;      Locals:         0       0       0       0       0       0       0       0       0
  4250 ;;      Temps:          1       0       0       0       0       0       0       0       0
  4251 ;;      Totals:         1       0       0       0       0       0       0       0       0
  4252 ;;Total ram usage:        1 bytes
  4253 ;; Hardware stack levels used: 1
  4254 ;; This function calls:
  4255 ;;		Nothing
  4256 ;; This function is called by:
  4257 ;;		_DatosSensorTH
  4258 ;; This function uses a non-reentrant model
  4259 ;;
  4260                           
  4261                           	psect	text24
  4262  001CFE                     __ptext24:
  4263                           	callstack 0
  4264  001CFE                     _DHT11_Start:
  4265                           	callstack 29
  4266  001CFE                     
  4267                           ;DHT11.c: 24:     TRISAbits.RA0 = 0;
  4268  001CFE  9092               	bcf	146,0,c	;volatile
  4269                           
  4270                           ;DHT11.c: 25:     LATA0 = 0;
  4271  001D00  9089               	bcf	3977,0,c	;volatile
  4272  001D02                     
  4273                           ;DHT11.c: 26:     _delay((unsigned long)((18)*(8000000/4000.0)));
  4274  001D02  0E2F               	movlw	47
  4275  001D04  6E01               	movwf	??_DHT11_Start^0,c
  4276  001D06  0EC0               	movlw	192
  4277  001D08                     u2497:
  4278  001D08  2EE8               	decfsz	wreg,f,c
  4279  001D0A  D7FE               	bra	u2497
  4280  001D0C  2E01               	decfsz	??_DHT11_Start^0,f,c
  4281  001D0E  D7FC               	bra	u2497
  4282  001D10                     
  4283                           ;DHT11.c: 27:     LATA0 = 1;
  4284  001D10  8089               	bsf	3977,0,c	;volatile
  4285                           
  4286                           ;DHT11.c: 28:     _delay((unsigned long)((20)*(8000000/4000000.0)));
  4287  001D12  0E0D               	movlw	13
  4288  001D14                     u2507:
  4289  001D14  2EE8               	decfsz	wreg,f,c
  4290  001D16  D7FE               	bra	u2507
  4291  001D18  F000               	nop	
  4292  001D1A                     
  4293                           ;DHT11.c: 29:     TRISAbits.RA0 = 1;
  4294  001D1A  8092               	bsf	146,0,c	;volatile
  4295  001D1C  0012               	return		;funcret
  4296  001D1E                     __end_of_DHT11_Start:
  4297                           	callstack 0
  4298                           
  4299 ;; *************** function _DHT11_ReadData *****************
  4300 ;; Defined at:
  4301 ;;		line 6 in file "DHT11.c"
  4302 ;; Parameters:    Size  Location     Type
  4303 ;;		None
  4304 ;; Auto vars:     Size  Location     Type
  4305 ;;  data            1    1[COMRAM] unsigned char 
  4306 ;;  i               1    0[COMRAM] unsigned char 
  4307 ;; Return value:  Size  Location     Type
  4308 ;;                  1    wreg      unsigned char 
  4309 ;; Registers used:
  4310 ;;		wreg, status,2, status,0
  4311 ;; Tracked objects:
  4312 ;;		On entry : 0/0
  4313 ;;		On exit  : 0/0
  4314 ;;		Unchanged: 0/0
  4315 ;; Data sizes:     COMRAM   BANK0   BANK1   BANK2   BANK3   BANK4   BANK5   BANK6   BANK7
  4316 ;;      Params:         0       0       0       0       0       0       0       0       0
  4317 ;;      Locals:         2       0       0       0       0       0       0       0       0
  4318 ;;      Temps:          0       0       0       0       0       0       0       0       0
  4319 ;;      Totals:         2       0       0       0       0       0       0       0       0
  4320 ;;Total ram usage:        2 bytes
  4321 ;; Hardware stack levels used: 1
  4322 ;; This function calls:
  4323 ;;		Nothing
  4324 ;; This function is called by:
  4325 ;;		_DatosSensorTH
  4326 ;; This function uses a non-reentrant model
  4327 ;;
  4328                           
  4329                           	psect	text25
  4330  001884                     __ptext25:
  4331                           	callstack 0
  4332  001884                     _DHT11_ReadData:
  4333                           	callstack 29
  4334  001884                     
  4335                           ;DHT11.c: 8:   char i,data = 0;
  4336  001884  0E00               	movlw	0
  4337  001886  6E02               	movwf	DHT11_ReadData@data^0,c
  4338                           
  4339                           ;DHT11.c: 9:     for(i=0;i<8;i++)
  4340  001888  0E00               	movlw	0
  4341  00188A  6E01               	movwf	DHT11_ReadData@i^0,c
  4342  00188C                     l371:
  4343  00188C  A080               	btfss	128,0,c	;volatile
  4344  00188E  EF4B  F00C         	goto	u2001
  4345  001892  EF4D  F00C         	goto	u2000
  4346  001896                     u2001:
  4347  001896  EF46  F00C         	goto	l371
  4348  00189A                     u2000:
  4349  00189A                     
  4350                           ;DHT11.c: 12:         _delay((unsigned long)((30)*(8000000/4000000.0)));
  4351  00189A  0E14               	movlw	20
  4352  00189C                     u2517:
  4353  00189C  2EE8               	decfsz	wreg,f,c
  4354  00189E  D7FE               	bra	u2517
  4355  0018A0                     
  4356                           ;DHT11.c: 13:         if(PORTAbits.RA0 & 1)
  4357  0018A0  A080               	btfss	128,0,c	;volatile
  4358  0018A2  EF55  F00C         	goto	u2011
  4359  0018A6  EF57  F00C         	goto	u2010
  4360  0018AA                     u2011:
  4361  0018AA  EF5B  F00C         	goto	l2371
  4362  0018AE                     u2010:
  4363  0018AE                     
  4364                           ;DHT11.c: 14:           data = ((data<<1) | 1);
  4365  0018AE  80D8               	bsf	status,0,c
  4366  0018B0  3602               	rlcf	DHT11_ReadData@data^0,f,c
  4367  0018B2  EF5E  F00C         	goto	l376
  4368  0018B6                     l2371:
  4369                           
  4370                           ;DHT11.c: 16:           data = (data<<1);
  4371  0018B6  5002               	movf	DHT11_ReadData@data^0,w,c
  4372  0018B8  2402               	addwf	DHT11_ReadData@data^0,w,c
  4373  0018BA  6E02               	movwf	DHT11_ReadData@data^0,c
  4374  0018BC                     l376:
  4375  0018BC  B080               	btfsc	128,0,c	;volatile
  4376  0018BE  EF63  F00C         	goto	u2021
  4377  0018C2  EF65  F00C         	goto	u2020
  4378  0018C6                     u2021:
  4379  0018C6  EF5E  F00C         	goto	l376
  4380  0018CA                     u2020:
  4381  0018CA                     
  4382                           ;DHT11.c: 18:     }
  4383  0018CA  2A01               	incf	DHT11_ReadData@i^0,f,c
  4384  0018CC  0E07               	movlw	7
  4385  0018CE  6401               	cpfsgt	DHT11_ReadData@i^0,c
  4386  0018D0  EF6C  F00C         	goto	u2031
  4387  0018D4  EF6E  F00C         	goto	u2030
  4388  0018D8                     u2031:
  4389  0018D8  EF46  F00C         	goto	l371
  4390  0018DC                     u2030:
  4391  0018DC                     
  4392                           ;DHT11.c: 19:   return data;
  4393  0018DC  5002               	movf	DHT11_ReadData@data^0,w,c
  4394  0018DE  0012               	return		;funcret
  4395  0018E0                     __end_of_DHT11_ReadData:
  4396                           	callstack 0
  4397                           
  4398 ;; *************** function _DHT11_CheckResponse *****************
  4399 ;; Defined at:
  4400 ;;		line 35 in file "DHT11.c"
  4401 ;; Parameters:    Size  Location     Type
  4402 ;;		None
  4403 ;; Auto vars:     Size  Location     Type
  4404 ;;		None
  4405 ;; Return value:  Size  Location     Type
  4406 ;;                  1    wreg      void 
  4407 ;; Registers used:
  4408 ;;		None
  4409 ;; Tracked objects:
  4410 ;;		On entry : 0/0
  4411 ;;		On exit  : 0/0
  4412 ;;		Unchanged: 0/0
  4413 ;; Data sizes:     COMRAM   BANK0   BANK1   BANK2   BANK3   BANK4   BANK5   BANK6   BANK7
  4414 ;;      Params:         0       0       0       0       0       0       0       0       0
  4415 ;;      Locals:         0       0       0       0       0       0       0       0       0
  4416 ;;      Temps:          0       0       0       0       0       0       0       0       0
  4417 ;;      Totals:         0       0       0       0       0       0       0       0       0
  4418 ;;Total ram usage:        0 bytes
  4419 ;; Hardware stack levels used: 1
  4420 ;; This function calls:
  4421 ;;		Nothing
  4422 ;; This function is called by:
  4423 ;;		_DatosSensorTH
  4424 ;; This function uses a non-reentrant model
  4425 ;;
  4426                           
  4427                           	psect	text26
  4428  001C62                     __ptext26:
  4429                           	callstack 0
  4430  001C62                     _DHT11_CheckResponse:
  4431                           	callstack 29
  4432  001C62                     l385:
  4433  001C62  B080               	btfsc	128,0,c	;volatile
  4434  001C64  EF36  F00E         	goto	u1971
  4435  001C68  EF38  F00E         	goto	u1970
  4436  001C6C                     u1971:
  4437  001C6C  EF31  F00E         	goto	l385
  4438  001C70                     u1970:
  4439  001C70                     l388:
  4440  001C70  A080               	btfss	128,0,c	;volatile
  4441  001C72  EF3D  F00E         	goto	u1981
  4442  001C76  EF3F  F00E         	goto	u1980
  4443  001C7A                     u1981:
  4444  001C7A  EF38  F00E         	goto	l388
  4445  001C7E                     u1980:
  4446  001C7E                     l391:
  4447  001C7E  B080               	btfsc	128,0,c	;volatile
  4448  001C80  EF44  F00E         	goto	u1991
  4449  001C84  EF46  F00E         	goto	u1990
  4450  001C88                     u1991:
  4451  001C88  EF3F  F00E         	goto	l391
  4452  001C8C                     u1990:
  4453  001C8C  0012               	return		;funcret
  4454  001C8E                     __end_of_DHT11_CheckResponse:
  4455                           	callstack 0
  4456                           
  4457 ;; *************** function _ControlTemperaturaVentilador *****************
  4458 ;; Defined at:
  4459 ;;		line 178 in file "Main_Invernadero.c"
  4460 ;; Parameters:    Size  Location     Type
  4461 ;;  TempActual      2    0[COMRAM] PTR unsigned char 
  4462 ;;		 -> main@Datos(2), 
  4463 ;;  TempDigitada    2    2[COMRAM] int 
  4464 ;; Auto vars:     Size  Location     Type
  4465 ;;		None
  4466 ;; Return value:  Size  Location     Type
  4467 ;;                  1    wreg      void 
  4468 ;; Registers used:
  4469 ;;		wreg, fsr2l, fsr2h, status,2, status,0
  4470 ;; Tracked objects:
  4471 ;;		On entry : 0/0
  4472 ;;		On exit  : 0/0
  4473 ;;		Unchanged: 0/0
  4474 ;; Data sizes:     COMRAM   BANK0   BANK1   BANK2   BANK3   BANK4   BANK5   BANK6   BANK7
  4475 ;;      Params:         4       0       0       0       0       0       0       0       0
  4476 ;;      Locals:         0       0       0       0       0       0       0       0       0
  4477 ;;      Temps:          5       0       0       0       0       0       0       0       0
  4478 ;;      Totals:         9       0       0       0       0       0       0       0       0
  4479 ;;Total ram usage:        9 bytes
  4480 ;; Hardware stack levels used: 1
  4481 ;; This function calls:
  4482 ;;		Nothing
  4483 ;; This function is called by:
  4484 ;;		_main
  4485 ;; This function uses a non-reentrant model
  4486 ;;
  4487                           
  4488                           	psect	text27
  4489  001A7A                     __ptext27:
  4490                           	callstack 0
  4491  001A7A                     _ControlTemperaturaVentilador:
  4492                           	callstack 30
  4493  001A7A                     
  4494                           ;Main_Invernadero.c: 179:     if(*TempActual>TempDigitada+2){
  4495  001A7A  C001  FFD9         	movff	ControlTemperaturaVentilador@TempActual,fsr2l
  4496  001A7E  C002  FFDA         	movff	ControlTemperaturaVentilador@TempActual+1,fsr2h
  4497  001A82  50DF               	movf	indf2,w,c
  4498  001A84  6E05               	movwf	??_ControlTemperaturaVentilador^0,c
  4499  001A86  6A06               	clrf	(??_ControlTemperaturaVentilador+1)^0,c
  4500  001A88  0E02               	movlw	2
  4501  001A8A  2403               	addwf	ControlTemperaturaVentilador@TempDigitada^0,w,c
  4502  001A8C  6E07               	movwf	(??_ControlTemperaturaVentilador+2)^0,c
  4503  001A8E  0E00               	movlw	0
  4504  001A90  2004               	addwfc	(ControlTemperaturaVentilador@TempDigitada+1)^0,w,c
  4505  001A92  6E08               	movwf	(??_ControlTemperaturaVentilador+3)^0,c
  4506  001A94  5005               	movf	??_ControlTemperaturaVentilador^0,w,c
  4507  001A96  5C07               	subwf	(??_ControlTemperaturaVentilador+2)^0,w,c
  4508  001A98  5008               	movf	(??_ControlTemperaturaVentilador+3)^0,w,c
  4509  001A9A  0A80               	xorlw	128
  4510  001A9C  6E09               	movwf	(??_ControlTemperaturaVentilador+4)^0,c
  4511  001A9E  5006               	movf	(??_ControlTemperaturaVentilador+1)^0,w,c
  4512  001AA0  0A80               	xorlw	128
  4513  001AA2  5809               	subwfb	(??_ControlTemperaturaVentilador+4)^0,w,c
  4514  001AA4  B0D8               	btfsc	status,0,c
  4515  001AA6  EF57  F00D         	goto	u2111
  4516  001AAA  EF59  F00D         	goto	u2110
  4517  001AAE                     u2111:
  4518  001AAE  EF5D  F00D         	goto	l116
  4519  001AB2                     u2110:
  4520  001AB2                     
  4521                           ;Main_Invernadero.c: 180:         LATC2=1;
  4522  001AB2  848B               	bsf	3979,2,c	;volatile
  4523                           
  4524                           ;Main_Invernadero.c: 181:         LATC6=1;
  4525  001AB4  8C8B               	bsf	3979,6,c	;volatile
  4526                           
  4527                           ;Main_Invernadero.c: 182:     }else{
  4528  001AB6  EF5F  F00D         	goto	l118
  4529  001ABA                     l116:
  4530                           
  4531                           ;Main_Invernadero.c: 183:         LATC2=0;
  4532  001ABA  948B               	bcf	3979,2,c	;volatile
  4533                           
  4534                           ;Main_Invernadero.c: 184:         LATC6=0;
  4535  001ABC  9C8B               	bcf	3979,6,c	;volatile
  4536  001ABE                     l118:
  4537  001ABE  0012               	return		;funcret
  4538  001AC0                     __end_of_ControlTemperaturaVentilador:
  4539                           	callstack 0
  4540                           
  4541 ;; *************** function _ControlHumedadAspersor *****************
  4542 ;; Defined at:
  4543 ;;		line 168 in file "Main_Invernadero.c"
  4544 ;; Parameters:    Size  Location     Type
  4545 ;;  HumedadActua    2    0[COMRAM] PTR unsigned char 
  4546 ;;		 -> main@Datos(2), 
  4547 ;;  HumedadDigit    2    2[COMRAM] int 
  4548 ;; Auto vars:     Size  Location     Type
  4549 ;;		None
  4550 ;; Return value:  Size  Location     Type
  4551 ;;                  1    wreg      void 
  4552 ;; Registers used:
  4553 ;;		wreg, fsr2l, fsr2h, status,2, status,0
  4554 ;; Tracked objects:
  4555 ;;		On entry : 0/0
  4556 ;;		On exit  : 0/0
  4557 ;;		Unchanged: 0/0
  4558 ;; Data sizes:     COMRAM   BANK0   BANK1   BANK2   BANK3   BANK4   BANK5   BANK6   BANK7
  4559 ;;      Params:         4       0       0       0       0       0       0       0       0
  4560 ;;      Locals:         0       0       0       0       0       0       0       0       0
  4561 ;;      Temps:          7       0       0       0       0       0       0       0       0
  4562 ;;      Totals:        11       0       0       0       0       0       0       0       0
  4563 ;;Total ram usage:       11 bytes
  4564 ;; Hardware stack levels used: 1
  4565 ;; This function calls:
  4566 ;;		Nothing
  4567 ;; This function is called by:
  4568 ;;		_main
  4569 ;; This function uses a non-reentrant model
  4570 ;;
  4571                           
  4572                           	psect	text28
  4573  001988                     __ptext28:
  4574                           	callstack 0
  4575  001988                     _ControlHumedadAspersor:
  4576                           	callstack 30
  4577  001988                     
  4578                           ;Main_Invernadero.c: 169:     if(*HumedadActual<HumedadDigitada-2){
  4579  001988  0EFE               	movlw	254
  4580  00198A  6E05               	movwf	??_ControlHumedadAspersor^0,c
  4581  00198C  0EFF               	movlw	255
  4582  00198E  6E06               	movwf	(??_ControlHumedadAspersor+1)^0,c
  4583  001990  C003  F007         	movff	ControlHumedadAspersor@HumedadDigitada,??_ControlHumedadAspersor+2
  4584  001994  C004  F008         	movff	ControlHumedadAspersor@HumedadDigitada+1,??_ControlHumedadAspersor+3
  4585  001998  5005               	movf	??_ControlHumedadAspersor^0,w,c
  4586  00199A  2607               	addwf	(??_ControlHumedadAspersor+2)^0,f,c
  4587  00199C  5006               	movf	(??_ControlHumedadAspersor+1)^0,w,c
  4588  00199E  2208               	addwfc	(??_ControlHumedadAspersor+3)^0,f,c
  4589  0019A0  C001  FFD9         	movff	ControlHumedadAspersor@HumedadActual,fsr2l
  4590  0019A4  C002  FFDA         	movff	ControlHumedadAspersor@HumedadActual+1,fsr2h
  4591  0019A8  50DF               	movf	indf2,w,c
  4592  0019AA  6E09               	movwf	(??_ControlHumedadAspersor+4)^0,c
  4593  0019AC  6A0A               	clrf	(??_ControlHumedadAspersor+5)^0,c
  4594  0019AE  5007               	movf	(??_ControlHumedadAspersor+2)^0,w,c
  4595  0019B0  5C09               	subwf	(??_ControlHumedadAspersor+4)^0,w,c
  4596  0019B2  500A               	movf	(??_ControlHumedadAspersor+5)^0,w,c
  4597  0019B4  0A80               	xorlw	128
  4598  0019B6  6E0B               	movwf	(??_ControlHumedadAspersor+6)^0,c
  4599  0019B8  5008               	movf	(??_ControlHumedadAspersor+3)^0,w,c
  4600  0019BA  0A80               	xorlw	128
  4601  0019BC  580B               	subwfb	(??_ControlHumedadAspersor+6)^0,w,c
  4602  0019BE  B0D8               	btfsc	status,0,c
  4603  0019C0  EFE4  F00C         	goto	u2101
  4604  0019C4  EFE6  F00C         	goto	u2100
  4605  0019C8                     u2101:
  4606  0019C8  EFEA  F00C         	goto	l111
  4607  0019CC                     u2100:
  4608  0019CC                     
  4609                           ;Main_Invernadero.c: 170:         LATC0=1;
  4610  0019CC  808B               	bsf	3979,0,c	;volatile
  4611                           
  4612                           ;Main_Invernadero.c: 171:         LATC1=1;
  4613  0019CE  828B               	bsf	3979,1,c	;volatile
  4614                           
  4615                           ;Main_Invernadero.c: 172:     }else{
  4616  0019D0  EFEC  F00C         	goto	l113
  4617  0019D4                     l111:
  4618                           
  4619                           ;Main_Invernadero.c: 173:         LATC0=0;
  4620  0019D4  908B               	bcf	3979,0,c	;volatile
  4621                           
  4622                           ;Main_Invernadero.c: 174:         LATC1=0;
  4623  0019D6  928B               	bcf	3979,1,c	;volatile
  4624  0019D8                     l113:
  4625  0019D8  0012               	return		;funcret
  4626  0019DA                     __end_of_ControlHumedadAspersor:
  4627                           	callstack 0
  4628                           
  4629 ;; *************** function _CompararTemperatura *****************
  4630 ;; Defined at:
  4631 ;;		line 118 in file "Main_Invernadero.c"
  4632 ;; Parameters:    Size  Location     Type
  4633 ;;  TempActual      2    2[COMRAM] PTR unsigned char 
  4634 ;;		 -> main@Datos(2), 
  4635 ;;  HumActual       2    4[COMRAM] PTR unsigned char 
  4636 ;;		 -> main@Datos(2), 
  4637 ;;  TempDigitada    2    6[COMRAM] int 
  4638 ;;  HumDigitada     2    8[COMRAM] int 
  4639 ;; Auto vars:     Size  Location     Type
  4640 ;;  HumedadAdecu    1   18[COMRAM] _Bool 
  4641 ;;  TemperaturaA    1   17[COMRAM] _Bool 
  4642 ;; Return value:  Size  Location     Type
  4643 ;;                  1    wreg      void 
  4644 ;; Registers used:
  4645 ;;		wreg, fsr2l, fsr2h, status,2, status,0, cstack
  4646 ;; Tracked objects:
  4647 ;;		On entry : 0/0
  4648 ;;		On exit  : 0/0
  4649 ;;		Unchanged: 0/0
  4650 ;; Data sizes:     COMRAM   BANK0   BANK1   BANK2   BANK3   BANK4   BANK5   BANK6   BANK7
  4651 ;;      Params:         8       0       0       0       0       0       0       0       0
  4652 ;;      Locals:         2       0       0       0       0       0       0       0       0
  4653 ;;      Temps:          7       0       0       0       0       0       0       0       0
  4654 ;;      Totals:        17       0       0       0       0       0       0       0       0
  4655 ;;Total ram usage:       17 bytes
  4656 ;; Hardware stack levels used: 1
  4657 ;; Hardware stack levels required when called: 2
  4658 ;; This function calls:
  4659 ;;		_PrenderLed
  4660 ;; This function is called by:
  4661 ;;		_main
  4662 ;; This function uses a non-reentrant model
  4663 ;;
  4664                           
  4665                           	psect	text29
  4666  00142C                     __ptext29:
  4667                           	callstack 0
  4668  00142C                     _CompararTemperatura:
  4669                           	callstack 28
  4670  00142C                     
  4671                           ;Main_Invernadero.c: 119:     _Bool TemperaturaAdecuada= 1;
  4672  00142C  0E01               	movlw	1
  4673  00142E  6E12               	movwf	CompararTemperatura@TemperaturaAdecuada^0,c
  4674                           
  4675                           ;Main_Invernadero.c: 120:     _Bool HumedadAdecuada =1;
  4676  001430  0E01               	movlw	1
  4677  001432  6E13               	movwf	CompararTemperatura@HumedadAdecuada^0,c
  4678  001434                     
  4679                           ;Main_Invernadero.c: 121:     if(*TempActual<TempDigitada-2 || *TempActual >TempDigitada
      +                          +2){
  4680  001434  0EFE               	movlw	254
  4681  001436  6E0B               	movwf	??_CompararTemperatura^0,c
  4682  001438  0EFF               	movlw	255
  4683  00143A  6E0C               	movwf	(??_CompararTemperatura+1)^0,c
  4684  00143C  C007  F00D         	movff	CompararTemperatura@TempDigitada,??_CompararTemperatura+2
  4685  001440  C008  F00E         	movff	CompararTemperatura@TempDigitada+1,??_CompararTemperatura+3
  4686  001444  500B               	movf	??_CompararTemperatura^0,w,c
  4687  001446  260D               	addwf	(??_CompararTemperatura+2)^0,f,c
  4688  001448  500C               	movf	(??_CompararTemperatura+1)^0,w,c
  4689  00144A  220E               	addwfc	(??_CompararTemperatura+3)^0,f,c
  4690  00144C  C003  FFD9         	movff	CompararTemperatura@TempActual,fsr2l
  4691  001450  C004  FFDA         	movff	CompararTemperatura@TempActual+1,fsr2h
  4692  001454  50DF               	movf	indf2,w,c
  4693  001456  6E0F               	movwf	(??_CompararTemperatura+4)^0,c
  4694  001458  6A10               	clrf	(??_CompararTemperatura+5)^0,c
  4695  00145A  500D               	movf	(??_CompararTemperatura+2)^0,w,c
  4696  00145C  5C0F               	subwf	(??_CompararTemperatura+4)^0,w,c
  4697  00145E  5010               	movf	(??_CompararTemperatura+5)^0,w,c
  4698  001460  0A80               	xorlw	128
  4699  001462  6E11               	movwf	(??_CompararTemperatura+6)^0,c
  4700  001464  500E               	movf	(??_CompararTemperatura+3)^0,w,c
  4701  001466  0A80               	xorlw	128
  4702  001468  5811               	subwfb	(??_CompararTemperatura+6)^0,w,c
  4703  00146A  A0D8               	btfss	status,0,c
  4704  00146C  EF3A  F00A         	goto	u2061
  4705  001470  EF3C  F00A         	goto	u2060
  4706  001474                     u2061:
  4707  001474  EF58  F00A         	goto	l2473
  4708  001478                     u2060:
  4709  001478  C003  FFD9         	movff	CompararTemperatura@TempActual,fsr2l
  4710  00147C  C004  FFDA         	movff	CompararTemperatura@TempActual+1,fsr2h
  4711  001480  50DF               	movf	indf2,w,c
  4712  001482  6E0B               	movwf	??_CompararTemperatura^0,c
  4713  001484  6A0C               	clrf	(??_CompararTemperatura+1)^0,c
  4714  001486  0E02               	movlw	2
  4715  001488  2407               	addwf	CompararTemperatura@TempDigitada^0,w,c
  4716  00148A  6E0D               	movwf	(??_CompararTemperatura+2)^0,c
  4717  00148C  0E00               	movlw	0
  4718  00148E  2008               	addwfc	(CompararTemperatura@TempDigitada+1)^0,w,c
  4719  001490  6E0E               	movwf	(??_CompararTemperatura+3)^0,c
  4720  001492  500B               	movf	??_CompararTemperatura^0,w,c
  4721  001494  5C0D               	subwf	(??_CompararTemperatura+2)^0,w,c
  4722  001496  500E               	movf	(??_CompararTemperatura+3)^0,w,c
  4723  001498  0A80               	xorlw	128
  4724  00149A  6E0F               	movwf	(??_CompararTemperatura+4)^0,c
  4725  00149C  500C               	movf	(??_CompararTemperatura+1)^0,w,c
  4726  00149E  0A80               	xorlw	128
  4727  0014A0  580F               	subwfb	(??_CompararTemperatura+4)^0,w,c
  4728  0014A2  B0D8               	btfsc	status,0,c
  4729  0014A4  EF56  F00A         	goto	u2071
  4730  0014A8  EF58  F00A         	goto	u2070
  4731  0014AC                     u2071:
  4732  0014AC  EF5A  F00A         	goto	l2475
  4733  0014B0                     u2070:
  4734  0014B0                     l2473:
  4735                           
  4736                           ;Main_Invernadero.c: 122:            TemperaturaAdecuada=0;
  4737  0014B0  0E00               	movlw	0
  4738  0014B2  6E12               	movwf	CompararTemperatura@TemperaturaAdecuada^0,c
  4739  0014B4                     l2475:
  4740                           
  4741                           ;Main_Invernadero.c: 124:     if(*HumActual<HumDigitada-2 || *HumActual>HumDigitada+2){
  4742  0014B4  0EFE               	movlw	254
  4743  0014B6  6E0B               	movwf	??_CompararTemperatura^0,c
  4744  0014B8  0EFF               	movlw	255
  4745  0014BA  6E0C               	movwf	(??_CompararTemperatura+1)^0,c
  4746  0014BC  C009  F00D         	movff	CompararTemperatura@HumDigitada,??_CompararTemperatura+2
  4747  0014C0  C00A  F00E         	movff	CompararTemperatura@HumDigitada+1,??_CompararTemperatura+3
  4748  0014C4  500B               	movf	??_CompararTemperatura^0,w,c
  4749  0014C6  260D               	addwf	(??_CompararTemperatura+2)^0,f,c
  4750  0014C8  500C               	movf	(??_CompararTemperatura+1)^0,w,c
  4751  0014CA  220E               	addwfc	(??_CompararTemperatura+3)^0,f,c
  4752  0014CC  C005  FFD9         	movff	CompararTemperatura@HumActual,fsr2l
  4753  0014D0  C006  FFDA         	movff	CompararTemperatura@HumActual+1,fsr2h
  4754  0014D4  50DF               	movf	indf2,w,c
  4755  0014D6  6E0F               	movwf	(??_CompararTemperatura+4)^0,c
  4756  0014D8  6A10               	clrf	(??_CompararTemperatura+5)^0,c
  4757  0014DA  500D               	movf	(??_CompararTemperatura+2)^0,w,c
  4758  0014DC  5C0F               	subwf	(??_CompararTemperatura+4)^0,w,c
  4759  0014DE  5010               	movf	(??_CompararTemperatura+5)^0,w,c
  4760  0014E0  0A80               	xorlw	128
  4761  0014E2  6E11               	movwf	(??_CompararTemperatura+6)^0,c
  4762  0014E4  500E               	movf	(??_CompararTemperatura+3)^0,w,c
  4763  0014E6  0A80               	xorlw	128
  4764  0014E8  5811               	subwfb	(??_CompararTemperatura+6)^0,w,c
  4765  0014EA  A0D8               	btfss	status,0,c
  4766  0014EC  EF7A  F00A         	goto	u2081
  4767  0014F0  EF7C  F00A         	goto	u2080
  4768  0014F4                     u2081:
  4769  0014F4  EF98  F00A         	goto	l2479
  4770  0014F8                     u2080:
  4771  0014F8  C005  FFD9         	movff	CompararTemperatura@HumActual,fsr2l
  4772  0014FC  C006  FFDA         	movff	CompararTemperatura@HumActual+1,fsr2h
  4773  001500  50DF               	movf	indf2,w,c
  4774  001502  6E0B               	movwf	??_CompararTemperatura^0,c
  4775  001504  6A0C               	clrf	(??_CompararTemperatura+1)^0,c
  4776  001506  0E02               	movlw	2
  4777  001508  2409               	addwf	CompararTemperatura@HumDigitada^0,w,c
  4778  00150A  6E0D               	movwf	(??_CompararTemperatura+2)^0,c
  4779  00150C  0E00               	movlw	0
  4780  00150E  200A               	addwfc	(CompararTemperatura@HumDigitada+1)^0,w,c
  4781  001510  6E0E               	movwf	(??_CompararTemperatura+3)^0,c
  4782  001512  500B               	movf	??_CompararTemperatura^0,w,c
  4783  001514  5C0D               	subwf	(??_CompararTemperatura+2)^0,w,c
  4784  001516  500E               	movf	(??_CompararTemperatura+3)^0,w,c
  4785  001518  0A80               	xorlw	128
  4786  00151A  6E0F               	movwf	(??_CompararTemperatura+4)^0,c
  4787  00151C  500C               	movf	(??_CompararTemperatura+1)^0,w,c
  4788  00151E  0A80               	xorlw	128
  4789  001520  580F               	subwfb	(??_CompararTemperatura+4)^0,w,c
  4790  001522  B0D8               	btfsc	status,0,c
  4791  001524  EF96  F00A         	goto	u2091
  4792  001528  EF98  F00A         	goto	u2090
  4793  00152C                     u2091:
  4794  00152C  EF9A  F00A         	goto	l2481
  4795  001530                     u2090:
  4796  001530                     l2479:
  4797                           
  4798                           ;Main_Invernadero.c: 125:         HumedadAdecuada=0;
  4799  001530  0E00               	movlw	0
  4800  001532  6E13               	movwf	CompararTemperatura@HumedadAdecuada^0,c
  4801  001534                     l2481:
  4802                           
  4803                           ;Main_Invernadero.c: 128:    PrenderLed(TemperaturaAdecuada,HumedadAdecuada);
  4804  001534  C013  F001         	movff	CompararTemperatura@HumedadAdecuada,PrenderLed@HumedadAdecuada
  4805  001538  5012               	movf	CompararTemperatura@TemperaturaAdecuada^0,w,c
  4806  00153A  EC70  F00C         	call	_PrenderLed
  4807  00153E  0012               	return		;funcret
  4808  001540                     __end_of_CompararTemperatura:
  4809                           	callstack 0
  4810                           
  4811 ;; *************** function _PrenderLed *****************
  4812 ;; Defined at:
  4813 ;;		line 91 in file "Main_Invernadero.c"
  4814 ;; Parameters:    Size  Location     Type
  4815 ;;  TemperaturaA    1    wreg     _Bool 
  4816 ;;  HumedadAdecu    1    0[COMRAM] _Bool 
  4817 ;; Auto vars:     Size  Location     Type
  4818 ;;  TemperaturaA    1    1[COMRAM] _Bool 
  4819 ;; Return value:  Size  Location     Type
  4820 ;;                  1    wreg      void 
  4821 ;; Registers used:
  4822 ;;		wreg, status,2, cstack
  4823 ;; Tracked objects:
  4824 ;;		On entry : 0/0
  4825 ;;		On exit  : 0/0
  4826 ;;		Unchanged: 0/0
  4827 ;; Data sizes:     COMRAM   BANK0   BANK1   BANK2   BANK3   BANK4   BANK5   BANK6   BANK7
  4828 ;;      Params:         1       0       0       0       0       0       0       0       0
  4829 ;;      Locals:         1       0       0       0       0       0       0       0       0
  4830 ;;      Temps:          0       0       0       0       0       0       0       0       0
  4831 ;;      Totals:         2       0       0       0       0       0       0       0       0
  4832 ;;Total ram usage:        2 bytes
  4833 ;; Hardware stack levels used: 1
  4834 ;; Hardware stack levels required when called: 1
  4835 ;; This function calls:
  4836 ;;		_InicializarLeds
  4837 ;; This function is called by:
  4838 ;;		_CompararTemperatura
  4839 ;; This function uses a non-reentrant model
  4840 ;;
  4841                           
  4842                           	psect	text30
  4843  0018E0                     __ptext30:
  4844                           	callstack 0
  4845  0018E0                     _PrenderLed:
  4846                           	callstack 28
  4847                           
  4848                           ;incstack = 0
  4849                           ;PrenderLed@TemperaturaAdecuada stored from wreg
  4850  0018E0  6E02               	movwf	PrenderLed@TemperaturaAdecuada^0,c
  4851  0018E2                     
  4852                           ;Main_Invernadero.c: 92:     InicializarLeds();
  4853  0018E2  EC8F  F00E         	call	_InicializarLeds	;wreg free
  4854  0018E6                     
  4855                           ;Main_Invernadero.c: 93:     if(TemperaturaAdecuada==0 && HumedadAdecuada==0){
  4856  0018E6  5002               	movf	PrenderLed@TemperaturaAdecuada^0,w,c
  4857  0018E8  A4D8               	btfss	status,2,c
  4858  0018EA  EF79  F00C         	goto	u1781
  4859  0018EE  EF7B  F00C         	goto	u1780
  4860  0018F2                     u1781:
  4861  0018F2  EF86  F00C         	goto	l2239
  4862  0018F6                     u1780:
  4863  0018F6  5001               	movf	PrenderLed@HumedadAdecuada^0,w,c
  4864  0018F8  A4D8               	btfss	status,2,c
  4865  0018FA  EF81  F00C         	goto	u1791
  4866  0018FE  EF83  F00C         	goto	u1790
  4867  001902                     u1791:
  4868  001902  EF86  F00C         	goto	l2239
  4869  001906                     u1790:
  4870  001906                     
  4871                           ;Main_Invernadero.c: 94:        LATE0=1;
  4872  001906  808D               	bsf	3981,0,c	;volatile
  4873                           
  4874                           ;Main_Invernadero.c: 95:     }else if(TemperaturaAdecuada==0 || HumedadAdecuada==0){
  4875  001908  EF9A  F00C         	goto	l85
  4876  00190C                     l2239:
  4877  00190C  5002               	movf	PrenderLed@TemperaturaAdecuada^0,w,c
  4878  00190E  B4D8               	btfsc	status,2,c
  4879  001910  EF8C  F00C         	goto	u1801
  4880  001914  EF8E  F00C         	goto	u1800
  4881  001918                     u1801:
  4882  001918  EF96  F00C         	goto	l83
  4883  00191C                     u1800:
  4884  00191C  5001               	movf	PrenderLed@HumedadAdecuada^0,w,c
  4885  00191E  A4D8               	btfss	status,2,c
  4886  001920  EF94  F00C         	goto	u1811
  4887  001924  EF96  F00C         	goto	u1810
  4888  001928                     u1811:
  4889  001928  EF99  F00C         	goto	l81
  4890  00192C                     u1810:
  4891  00192C                     l83:
  4892                           
  4893                           ;Main_Invernadero.c: 96:         LATE1=1;
  4894  00192C  828D               	bsf	3981,1,c	;volatile
  4895                           
  4896                           ;Main_Invernadero.c: 97:     }else{
  4897  00192E  EF9A  F00C         	goto	l85
  4898  001932                     l81:
  4899                           
  4900                           ;Main_Invernadero.c: 98:         LATE2=1;
  4901  001932  848D               	bsf	3981,2,c	;volatile
  4902  001934                     l85:
  4903  001934  0012               	return		;funcret
  4904  001936                     __end_of_PrenderLed:
  4905                           	callstack 0
  4906                           
  4907 ;; *************** function _InicializarLeds *****************
  4908 ;; Defined at:
  4909 ;;		line 163 in file "Main_Invernadero.c"
  4910 ;; Parameters:    Size  Location     Type
  4911 ;;		None
  4912 ;; Auto vars:     Size  Location     Type
  4913 ;;		None
  4914 ;; Return value:  Size  Location     Type
  4915 ;;                  1    wreg      void 
  4916 ;; Registers used:
  4917 ;;		None
  4918 ;; Tracked objects:
  4919 ;;		On entry : 0/0
  4920 ;;		On exit  : 0/0
  4921 ;;		Unchanged: 0/0
  4922 ;; Data sizes:     COMRAM   BANK0   BANK1   BANK2   BANK3   BANK4   BANK5   BANK6   BANK7
  4923 ;;      Params:         0       0       0       0       0       0       0       0       0
  4924 ;;      Locals:         0       0       0       0       0       0       0       0       0
  4925 ;;      Temps:          0       0       0       0       0       0       0       0       0
  4926 ;;      Totals:         0       0       0       0       0       0       0       0       0
  4927 ;;Total ram usage:        0 bytes
  4928 ;; Hardware stack levels used: 1
  4929 ;; This function calls:
  4930 ;;		Nothing
  4931 ;; This function is called by:
  4932 ;;		_main
  4933 ;;		_PrenderLed
  4934 ;; This function uses a non-reentrant model
  4935 ;;
  4936                           
  4937                           	psect	text31
  4938  001D1E                     __ptext31:
  4939                           	callstack 0
  4940  001D1E                     _InicializarLeds:
  4941                           	callstack 30
  4942  001D1E                     
  4943                           ;Main_Invernadero.c: 164:     LATE1=0;
  4944  001D1E  928D               	bcf	3981,1,c	;volatile
  4945                           
  4946                           ;Main_Invernadero.c: 165:     LATE0=0;
  4947  001D20  908D               	bcf	3981,0,c	;volatile
  4948                           
  4949                           ;Main_Invernadero.c: 166:     LATE2=0;
  4950  001D22  948D               	bcf	3981,2,c	;volatile
  4951  001D24  0012               	return		;funcret
  4952  001D26                     __end_of_InicializarLeds:
  4953                           	callstack 0
  4954                           
  4955                           	psect	rparam
  4956  0000                     
  4957                           	psect	idloc
  4958                           
  4959                           ;Config register IDLOC0 @ 0x200000
  4960                           ;	unspecified, using default values
  4961  200000                     	org	2097152
  4962  200000  FF                 	db	255
  4963                           
  4964                           ;Config register IDLOC1 @ 0x200001
  4965                           ;	unspecified, using default values
  4966  200001                     	org	2097153
  4967  200001  FF                 	db	255
  4968                           
  4969                           ;Config register IDLOC2 @ 0x200002
  4970                           ;	unspecified, using default values
  4971  200002                     	org	2097154
  4972  200002  FF                 	db	255
  4973                           
  4974                           ;Config register IDLOC3 @ 0x200003
  4975                           ;	unspecified, using default values
  4976  200003                     	org	2097155
  4977  200003  FF                 	db	255
  4978                           
  4979                           ;Config register IDLOC4 @ 0x200004
  4980                           ;	unspecified, using default values
  4981  200004                     	org	2097156
  4982  200004  FF                 	db	255
  4983                           
  4984                           ;Config register IDLOC5 @ 0x200005
  4985                           ;	unspecified, using default values
  4986  200005                     	org	2097157
  4987  200005  FF                 	db	255
  4988                           
  4989                           ;Config register IDLOC6 @ 0x200006
  4990                           ;	unspecified, using default values
  4991  200006                     	org	2097158
  4992  200006  FF                 	db	255
  4993                           
  4994                           ;Config register IDLOC7 @ 0x200007
  4995                           ;	unspecified, using default values
  4996  200007                     	org	2097159
  4997  200007  FF                 	db	255
  4998                           
  4999                           	psect	config
  5000                           
  5001                           ;Config register CONFIG1L @ 0x300000
  5002                           ;	unspecified, using default values
  5003                           ;	PLL Prescaler Selection bits
  5004                           ;	PLLDIV = 0x0, unprogrammed default
  5005                           ;	System Clock Postscaler Selection bits
  5006                           ;	CPUDIV = 0x0, unprogrammed default
  5007                           ;	USB Clock Selection bit (used in Full-Speed USB mode only; UCFG:FSEN = 1)
  5008                           ;	USBDIV = 0x0, unprogrammed default
  5009  300000                     	org	3145728
  5010  300000  00                 	db	0
  5011                           
  5012                           ;Config register CONFIG1H @ 0x300001
  5013                           ;	Oscillator Selection bits
  5014                           ;	FOSC = INTOSC_EC, Internal oscillator, CLKO function on RA6, EC used by USB (INTCKO)
  5015                           ;	Fail-Safe Clock Monitor Enable bit
  5016                           ;	FCMEN = OFF, Fail-Safe Clock Monitor disabled
  5017                           ;	Internal/External Oscillator Switchover bit
  5018                           ;	IESO = OFF, Oscillator Switchover mode disabled
  5019  300001                     	org	3145729
  5020  300001  09                 	db	9
  5021                           
  5022                           ;Config register CONFIG2L @ 0x300002
  5023                           ;	Power-up Timer Enable bit
  5024                           ;	PWRT = OFF, PWRT disabled
  5025                           ;	Brown-out Reset Enable bits
  5026                           ;	BOR = ON, Brown-out Reset enabled in hardware only (SBOREN is disabled)
  5027                           ;	Brown-out Reset Voltage bits
  5028                           ;	BORV = 3, Minimum setting 2.05V
  5029                           ;	USB Voltage Regulator Enable bit
  5030                           ;	VREGEN = OFF, USB voltage regulator disabled
  5031  300002                     	org	3145730
  5032  300002  1F                 	db	31
  5033                           
  5034                           ;Config register CONFIG2H @ 0x300003
  5035                           ;	Watchdog Timer Enable bit
  5036                           ;	WDT = OFF, WDT disabled (control is placed on the SWDTEN bit)
  5037                           ;	Watchdog Timer Postscale Select bits
  5038                           ;	WDTPS = 32768, 1:32768
  5039  300003                     	org	3145731
  5040  300003  1E                 	db	30
  5041                           
  5042                           ; Padding undefined space
  5043  300004                     	org	3145732
  5044  300004  FF                 	db	255
  5045                           
  5046                           ;Config register CONFIG3H @ 0x300005
  5047                           ;	CCP2 MUX bit
  5048                           ;	CCP2MX = ON, CCP2 input/output is multiplexed with RC1
  5049                           ;	PORTB A/D Enable bit
  5050                           ;	PBADEN = OFF, PORTB<4:0> pins are configured as digital I/O on Reset
  5051                           ;	Low-Power Timer 1 Oscillator Enable bit
  5052                           ;	LPT1OSC = OFF, Timer1 configured for higher power operation
  5053                           ;	MCLR Pin Enable bit
  5054                           ;	MCLRE = ON, MCLR pin enabled; RE3 input pin disabled
  5055  300005                     	org	3145733
  5056  300005  81                 	db	129
  5057                           
  5058                           ;Config register CONFIG4L @ 0x300006
  5059                           ;	Stack Full/Underflow Reset Enable bit
  5060                           ;	STVREN = ON, Stack full/underflow will cause Reset
  5061                           ;	Single-Supply ICSP Enable bit
  5062                           ;	LVP = OFF, Single-Supply ICSP disabled
  5063                           ;	Dedicated In-Circuit Debug/Programming Port (ICPORT) Enable bit
  5064                           ;	ICPRT = OFF, ICPORT disabled
  5065                           ;	Extended Instruction Set Enable bit
  5066                           ;	XINST = OFF, Instruction set extension and Indexed Addressing mode disabled (Legacy mo
      +                          de)
  5067                           ;	Background Debugger Enable bit
  5068                           ;	DEBUG = 0x1, unprogrammed default
  5069  300006                     	org	3145734
  5070  300006  81                 	db	129
  5071                           
  5072                           ; Padding undefined space
  5073  300007                     	org	3145735
  5074  300007  FF                 	db	255
  5075                           
  5076                           ;Config register CONFIG5L @ 0x300008
  5077                           ;	Code Protection bit
  5078                           ;	CP0 = OFF, Block 0 (000800-001FFFh) is not code-protected
  5079                           ;	Code Protection bit
  5080                           ;	CP1 = OFF, Block 1 (002000-003FFFh) is not code-protected
  5081                           ;	Code Protection bit
  5082                           ;	CP2 = OFF, Block 2 (004000-005FFFh) is not code-protected
  5083                           ;	Code Protection bit
  5084                           ;	CP3 = OFF, Block 3 (006000-007FFFh) is not code-protected
  5085  300008                     	org	3145736
  5086  300008  0F                 	db	15
  5087                           
  5088                           ;Config register CONFIG5H @ 0x300009
  5089                           ;	Boot Block Code Protection bit
  5090                           ;	CPB = OFF, Boot block (000000-0007FFh) is not code-protected
  5091                           ;	Data EEPROM Code Protection bit
  5092                           ;	CPD = OFF, Data EEPROM is not code-protected
  5093  300009                     	org	3145737
  5094  300009  C0                 	db	192
  5095                           
  5096                           ;Config register CONFIG6L @ 0x30000A
  5097                           ;	Write Protection bit
  5098                           ;	WRT0 = OFF, Block 0 (000800-001FFFh) is not write-protected
  5099                           ;	Write Protection bit
  5100                           ;	WRT1 = OFF, Block 1 (002000-003FFFh) is not write-protected
  5101                           ;	Write Protection bit
  5102                           ;	WRT2 = OFF, Block 2 (004000-005FFFh) is not write-protected
  5103                           ;	Write Protection bit
  5104                           ;	WRT3 = OFF, Block 3 (006000-007FFFh) is not write-protected
  5105  30000A                     	org	3145738
  5106  30000A  0F                 	db	15
  5107                           
  5108                           ;Config register CONFIG6H @ 0x30000B
  5109                           ;	Configuration Register Write Protection bit
  5110                           ;	WRTC = OFF, Configuration registers (300000-3000FFh) are not write-protected
  5111                           ;	Boot Block Write Protection bit
  5112                           ;	WRTB = OFF, Boot block (000000-0007FFh) is not write-protected
  5113                           ;	Data EEPROM Write Protection bit
  5114                           ;	WRTD = OFF, Data EEPROM is not write-protected
  5115  30000B                     	org	3145739
  5116  30000B  E0                 	db	224
  5117                           
  5118                           ;Config register CONFIG7L @ 0x30000C
  5119                           ;	Table Read Protection bit
  5120                           ;	EBTR0 = OFF, Block 0 (000800-001FFFh) is not protected from table reads executed in ot
      +                          her blocks
  5121                           ;	Table Read Protection bit
  5122                           ;	EBTR1 = OFF, Block 1 (002000-003FFFh) is not protected from table reads executed in ot
      +                          her blocks
  5123                           ;	Table Read Protection bit
  5124                           ;	EBTR2 = OFF, Block 2 (004000-005FFFh) is not protected from table reads executed in ot
      +                          her blocks
  5125                           ;	Table Read Protection bit
  5126                           ;	EBTR3 = OFF, Block 3 (006000-007FFFh) is not protected from table reads executed in ot
      +                          her blocks
  5127  30000C                     	org	3145740
  5128  30000C  0F                 	db	15
  5129                           
  5130                           ;Config register CONFIG7H @ 0x30000D
  5131                           ;	Boot Block Table Read Protection bit
  5132                           ;	EBTRB = OFF, Boot block (000000-0007FFh) is not protected from table reads executed in
      +                           other blocks
  5133  30000D                     	org	3145741
  5134  30000D  40                 	db	64
  5135                           tosu	equ	0xFFF
  5136                           tosh	equ	0xFFE
  5137                           tosl	equ	0xFFD
  5138                           stkptr	equ	0xFFC
  5139                           pclatu	equ	0xFFB
  5140                           pclath	equ	0xFFA
  5141                           pcl	equ	0xFF9
  5142                           tblptru	equ	0xFF8
  5143                           tblptrh	equ	0xFF7
  5144                           tblptrl	equ	0xFF6
  5145                           tablat	equ	0xFF5
  5146                           prodh	equ	0xFF4
  5147                           prodl	equ	0xFF3
  5148                           indf0	equ	0xFEF
  5149                           postinc0	equ	0xFEE
  5150                           postdec0	equ	0xFED
  5151                           preinc0	equ	0xFEC
  5152                           plusw0	equ	0xFEB
  5153                           fsr0h	equ	0xFEA
  5154                           fsr0l	equ	0xFE9
  5155                           wreg	equ	0xFE8
  5156                           indf1	equ	0xFE7
  5157                           postinc1	equ	0xFE6
  5158                           postdec1	equ	0xFE5
  5159                           preinc1	equ	0xFE4
  5160                           plusw1	equ	0xFE3
  5161                           fsr1h	equ	0xFE2
  5162                           fsr1l	equ	0xFE1
  5163                           bsr	equ	0xFE0
  5164                           indf2	equ	0xFDF
  5165                           postinc2	equ	0xFDE
  5166                           postdec2	equ	0xFDD
  5167                           preinc2	equ	0xFDC
  5168                           plusw2	equ	0xFDB
  5169                           fsr2h	equ	0xFDA
  5170                           fsr2l	equ	0xFD9
  5171                           status	equ	0xFD8

Data Sizes:
    Strings     48
    Constant    0
    Data        32
    BSS         43
    Persistent  0
    Stack       0

Auto Spaces:
    Space          Size  Autos    Used
    COMRAM           95     95      95
    BANK0           160     31     106
    BANK1           256      0       0
    BANK2           256      0       0
    BANK3           256      0       0
    BANK4           256      0       0
    BANK5           256      0       0
    BANK6           256      0       0
    BANK7           256      0       0

Pointer List with Targets:

    strlen@s	PTR const unsigned char  size(2) Largest target is 32
		 -> dbuf(BANK0[32]), 

    strlen@a	PTR const unsigned char  size(2) Largest target is 32
		 -> dbuf(BANK0[32]), 

    fputs@s	PTR const unsigned char  size(2) Largest target is 32
		 -> dbuf(BANK0[32]), 

    fputs@fp	PTR struct _IO_FILE size(2) Largest target is 7
		 -> sprintf@f(BANK0[6]), 

    fputc@fp.buffer	PTR unsigned char  size(2) Largest target is 10
		 -> main@Cadena(BANK0[10]), 

    fputc@fp	PTR struct _IO_FILE size(2) Largest target is 7
		 -> sprintf@f(BANK0[6]), 

    vfprintf@ap	PTR PTR void  size(2) Largest target is 2
		 -> sprintf@ap(BANK0[2]), 

    vfprintf@fp	PTR struct _IO_FILE size(2) Largest target is 7
		 -> sprintf@f(BANK0[6]), 

    vfprintf@fmt	PTR const unsigned char  size(2) Largest target is 8
		 -> STR_8(CODE[8]), STR_7(CODE[4]), STR_6(CODE[3]), STR_5(CODE[7]), 
		 -> STR_4(CODE[4]), STR_3(CODE[3]), 

    vfprintf@cfmt	PTR unsigned char  size(2) Largest target is 8
		 -> STR_8(CODE[8]), STR_7(CODE[4]), STR_6(CODE[3]), STR_5(CODE[7]), 
		 -> STR_4(CODE[4]), STR_3(CODE[3]), 

    vfpfcnvrt@fp	PTR struct _IO_FILE size(2) Largest target is 7
		 -> sprintf@f(BANK0[6]), 

    vfpfcnvrt@ap	PTR PTR void  size(2) Largest target is 2
		 -> sprintf@ap(BANK0[2]), 

    vfpfcnvrt@fmt	PTR PTR unsigned char  size(2) Largest target is 2
		 -> vfprintf@cfmt(COMRAM[2]), 

    dtoa@fp	PTR struct _IO_FILE size(2) Largest target is 7
		 -> sprintf@f(BANK0[6]), 

    pad@fp	PTR struct _IO_FILE size(2) Largest target is 7
		 -> sprintf@f(BANK0[6]), 

    pad@buf	PTR unsigned char  size(2) Largest target is 32
		 -> dbuf(BANK0[32]), 

    sprintf@fmt	PTR const unsigned char  size(2) Largest target is 8
		 -> STR_8(CODE[8]), STR_7(CODE[4]), STR_6(CODE[3]), STR_5(CODE[7]), 
		 -> STR_4(CODE[4]), STR_3(CODE[3]), 

    sprintf@s	PTR unsigned char  size(2) Largest target is 10
		 -> main@Cadena(BANK0[10]), 

    sprintf@ap	PTR void [1] size(2) Largest target is 2
		 -> ?_sprintf(COMRAM[2]), 

    S943_IO_FILE$buffer	PTR unsigned char  size(2) Largest target is 10
		 -> main@Cadena(BANK0[10]), 

    f.buffer	PTR unsigned char  size(2) Largest target is 10
		 -> main@Cadena(BANK0[10]), 

    LCD_String_xy@msg	PTR const unsigned char  size(2) Largest target is 15
		 -> main@Cadena(BANK0[10]), STR_2(CODE[14]), STR_1(CODE[15]), 

    LCD_String@msg	PTR const unsigned char  size(2) Largest target is 15
		 -> main@Cadena(BANK0[10]), STR_2(CODE[14]), STR_1(CODE[15]), 

    ControlTemperaturaVentilador@TempActual	PTR unsigned char  size(2) Largest target is 2
		 -> main@Datos(BANK0[2]), 

    ControlHumedadAspersor@HumedadActual	PTR unsigned char  size(2) Largest target is 2
		 -> main@Datos(BANK0[2]), 

    DatosSensorTH@Datos	PTR unsigned char  size(2) Largest target is 2
		 -> main@Datos(BANK0[2]), 

    PedirDato@vecLlenar	PTR unsigned char  size(2) Largest target is 2
		 -> main@Humedad(BANK0[2]), main@Temperatura(BANK0[2]), 

    PedirDato@Etiqueta	PTR unsigned char  size(2) Largest target is 15
		 -> STR_2(CODE[14]), STR_1(CODE[15]), 

    CompararTemperatura@HumActual	PTR unsigned char  size(2) Largest target is 2
		 -> main@Datos(BANK0[2]), 

    CompararTemperatura@TempActual	PTR unsigned char  size(2) Largest target is 2
		 -> main@Datos(BANK0[2]), 

    TemperaturaDigitada@prmTemperatura	PTR unsigned char  size(2) Largest target is 2
		 -> main@Humedad(BANK0[2]), main@Temperatura(BANK0[2]), 


Critical Paths under _main in COMRAM

    _main->_sprintf
    _sprintf->_vfprintf
    _vfprintf->_vfpfcnvrt
    _vfpfcnvrt->_dtoa
    _dtoa->_pad
    _pad->_fputs
    _fputs->_fputc
    _abs->___aomod
    _TemperaturaDigitada->___wmul
    _PedirDato->_LCD_String_xy
    _LCD_String_xy->_LCD_String
    _LCD_String->_LCD_Char
    _LCD_Clear->_LCD_Command
    _LCD_Init->_LCD_Command
    _DatosSensorTH->_DHT11_ReadData
    _CompararTemperatura->_PrenderLed

Critical Paths under _main in BANK0

    _main->_sprintf

Critical Paths under _main in BANK1

    None.

Critical Paths under _main in BANK2

    None.

Critical Paths under _main in BANK3

    None.

Critical Paths under _main in BANK4

    None.

Critical Paths under _main in BANK5

    None.

Critical Paths under _main in BANK6

    None.

Critical Paths under _main in BANK7

    None.

Call Graph Tables:

 ---------------------------------------------------------------------------------
 (Depth) Function   	        Calls       Base Space   Used Autos Params    Refs
 ---------------------------------------------------------------------------------
 (0) _main                                                25    25      0   12829
                                             93 COMRAM     2     2      0
                                              8 BANK0     23    23      0
                _CompararTemperatura
             _ControlHumedadAspersor
       _ControlTemperaturaVentilador
                      _DatosSensorTH
                    _InicializarLeds
                           _LCD_Char
                           _LCD_Init
                         _LCD_String
                      _LCD_String_xy
                          _PedirDato
                _TemperaturaDigitada
                            _sprintf
 ---------------------------------------------------------------------------------
 (1) _sprintf                                             16    10      6    7216
                                             87 COMRAM     6     0      6
                                              0 BANK0      8     8      0
                           _vfprintf
 ---------------------------------------------------------------------------------
 (2) _vfprintf                                             8     2      6    6105
                                             79 COMRAM     8     2      6
                          _vfpfcnvrt
 ---------------------------------------------------------------------------------
 (3) _vfpfcnvrt                                           42    36      6    5751
                                             63 COMRAM    16    10      6
                               _dtoa
                              _fputc
 ---------------------------------------------------------------------------------
 (4) _dtoa                                                36    26     10    4358
                                             27 COMRAM    36    26     10
                            ___aodiv
                            ___aomod
                                _abs
                                _pad
 ---------------------------------------------------------------------------------
 (5) _pad                                                 11     5      6    2709
                                             16 COMRAM    11     5      6
                              _fputc
                              _fputs
                             _strlen
 ---------------------------------------------------------------------------------
 (6) _strlen                                               4     2      2     166
                                              0 COMRAM     4     2      2
 ---------------------------------------------------------------------------------
 (6) _fputs                                                7     3      4    1235
                                              9 COMRAM     7     3      4
                              _fputc
 ---------------------------------------------------------------------------------
 (4) _fputc                                                9     5      4     834
                                              0 COMRAM     9     5      4
                              _putch
 ---------------------------------------------------------------------------------
 (5) _putch                                                1     1      0       0
 ---------------------------------------------------------------------------------
 (5) _abs                                                  4     2      2     142
                                             18 COMRAM     4     2      2
                            ___aomod (ARG)
 ---------------------------------------------------------------------------------
 (5) ___aomod                                             18     2     16     448
                                              0 COMRAM    18     2     16
 ---------------------------------------------------------------------------------
 (5) ___aodiv                                             26    10     16     452
                                              0 COMRAM    26    10     16
 ---------------------------------------------------------------------------------
 (1) _TemperaturaDigitada                                  9     7      2     694
                                              6 COMRAM     9     7      2
                             ___wmul
 ---------------------------------------------------------------------------------
 (2) ___wmul                                               6     2      4     403
                                              0 COMRAM     6     2      4
 ---------------------------------------------------------------------------------
 (1) _PedirDato                                            9     5      4    1545
                                              9 COMRAM     9     5      4
                           _LCD_Char
                          _LCD_Clear
                        _LCD_Command
                      _LCD_String_xy
                            _keyfind
 ---------------------------------------------------------------------------------
 (2) _keyfind                                              2     2      0       0
                                              0 COMRAM     1     1      0
 ---------------------------------------------------------------------------------
 (2) _LCD_String_xy                                        5     2      3     952
                                              4 COMRAM     5     2      3
                        _LCD_Command
                         _LCD_String
 ---------------------------------------------------------------------------------
 (3) _LCD_String                                           2     0      2     317
                                              2 COMRAM     2     0      2
                           _LCD_Char
 ---------------------------------------------------------------------------------
 (4) _LCD_Char                                             2     2      0      44
                                              0 COMRAM     2     2      0
 ---------------------------------------------------------------------------------
 (2) _LCD_Clear                                            1     1      0      44
                                              2 COMRAM     1     1      0
                        _LCD_Command
 ---------------------------------------------------------------------------------
 (1) _LCD_Init                                             1     1      0      44
                                              2 COMRAM     1     1      0
                        _LCD_Command
 ---------------------------------------------------------------------------------
 (3) _LCD_Command                                          2     2      0      44
                                              0 COMRAM     2     2      0
 ---------------------------------------------------------------------------------
 (1) _DatosSensorTH                                        7     5      2     284
                                              2 COMRAM     4     2      2
                _DHT11_CheckResponse
                     _DHT11_ReadData
                        _DHT11_Start
 ---------------------------------------------------------------------------------
 (2) _DHT11_Start                                          1     1      0       0
                                              0 COMRAM     1     1      0
 ---------------------------------------------------------------------------------
 (2) _DHT11_ReadData                                       2     2      0     115
                                              0 COMRAM     2     2      0
 ---------------------------------------------------------------------------------
 (2) _DHT11_CheckResponse                                  0     0      0       0
 ---------------------------------------------------------------------------------
 (1) _ControlTemperaturaVentilador                         9     5      4     196
                                              0 COMRAM     9     5      4
 ---------------------------------------------------------------------------------
 (1) _ControlHumedadAspersor                              11     7      4     196
                                              0 COMRAM    11     7      4
 ---------------------------------------------------------------------------------
 (1) _CompararTemperatura                                 17     9      8     692
                                              2 COMRAM    17     9      8
                         _PrenderLed
 ---------------------------------------------------------------------------------
 (2) _PrenderLed                                           2     1      1     164
                                              0 COMRAM     2     1      1
                    _InicializarLeds
 ---------------------------------------------------------------------------------
 (1) _InicializarLeds                                      0     0      0       0
 ---------------------------------------------------------------------------------
 Estimated maximum stack depth 6
 ---------------------------------------------------------------------------------

 Call Graph Graphs:

 _main (ROOT)
   _CompararTemperatura
     _PrenderLed
       _InicializarLeds
   _ControlHumedadAspersor
   _ControlTemperaturaVentilador
   _DatosSensorTH
     _DHT11_CheckResponse
     _DHT11_ReadData
     _DHT11_Start
   _InicializarLeds
   _LCD_Char
   _LCD_Init
     _LCD_Command
   _LCD_String
     _LCD_Char
   _LCD_String_xy
     _LCD_Command
     _LCD_String
   _PedirDato
     _LCD_Char
     _LCD_Clear
       _LCD_Command
     _LCD_Command
     _LCD_String_xy
     _keyfind
   _TemperaturaDigitada
     ___wmul
   _sprintf
     _vfprintf
       _vfpfcnvrt
         _dtoa
           ___aodiv
           ___aomod
           _abs
             ___aomod (ARG)
           _pad
             _fputc
               _putch
             _fputs
               _fputc
             _strlen
         _fputc

 Address spaces:
Name               Size   Autos  Total    Cost      Usage
BIGRAM             7FF      0       0      21        0.0%
EEDATA             100      0       0       0        0.0%
BITBANK7           100      0       0      18        0.0%
BANK7              100      0       0      19        0.0%
BITBANK6           100      0       0      16        0.0%
BANK6              100      0       0      17        0.0%
BITBANK5           100      0       0      14        0.0%
BANK5              100      0       0      15        0.0%
BITBANK4           100      0       0      12        0.0%
BANK4              100      0       0      13        0.0%
BITBANK3           100      0       0      10        0.0%
BANK3              100      0       0      11        0.0%
BITBANK2           100      0       0       8        0.0%
BANK2              100      0       0       9        0.0%
BITBANK1           100      0       0       6        0.0%
BANK1              100      0       0       7        0.0%
BITBANK0            A0      0       0       4        0.0%
BANK0               A0     1F      6A       5       66.2%
BITCOMRAM           5F      0       0       0        0.0%
COMRAM              5F     5F      5F       1      100.0%
BITSFR               0      0       0     200        0.0%
SFR                  0      0       0     200        0.0%
STACK                0      0       0       2        0.0%
NULL                 0      0       0       0        0.0%
ABS                  0      0      C9      20        0.0%
DATA                 0      0      C9       3        0.0%
CODE                 0      0       0       0        0.0%


Microchip Technology PIC18 Macro Assembler V2.32 build 20210201212658 
Symbol Table                                                                                   Sat Oct 09 21:07:46 2021

                    ?_TemperaturaDigitada 0007                              ?_LCD_Command 0001  
                                      l81 1932                                        l83 192C  
                                      l85 1934                                        l88 17C2  
                                      l97 153E                       ___wmul@multiplicand 0003  
                             main@Humedad 00BF                               ?_LCD_String 0003  
                                     l102 174C                                       l111 19D4  
                                     l113 19D8                                       l105 1BC0  
                                     l108 1D24                                       l116 1ABA  
                                     l141 1A28                                       l118 1ABE  
                                     l135 1C60                                       l152 1B82  
                                     l138 1A78                                       l155 1CB6  
                                     l147 1882                                       l332 0E22  
                                     l341 0EAA                                       l351 0F8A  
                                     l511 12C6                                       l345 0EEE  
                                     l337 0E66                                       l371 188C  
                                     l524 142A                                       l382 1D1C  
                                     l391 1C7E                                       l376 18BC  
                                     l385 1C62                                       l394 1C8C  
                                     l379 18DE                                       l388 1C70  
                                     l397 1CDC                                       _abs 1B04  
                                     _pad 160A                                       prod 000FF3  
                                     wreg 000FE8                               main@bandera 00C7  
                             LCD_Char@dat 0002                            PedirDato@tecla 0010  
                                    l1102 1650                                      l2001 12C8  
                                    l1105 1692                                      l1113 08D2  
                                    l2011 130C                                      l2003 12CC  
                                    l1107 16CE                                      l1115 08DA  
                                    ?_abs 0013                                      l1140 113E  
                                    l2021 1374                                      l2013 132C  
                                    l2005 12DA                                      l1133 0B12  
                                    l2101 0902                                      l2031 13EA  
                                    l2023 13A2                                      l2015 134A  
                                    l2007 12FA                                      l1151 1B3A  
                                    l2111 09A0                                      l2103 0908  
                                    l2033 140A                                      l2025 13C2  
                                    l2017 1352                                      l2009 12FE  
                                    l2041 162E                                      l2121 0A48  
                                    l2113 09A6                                      l2105 0910  
                                    l1154 1B42                                      l1146 181C  
                                    l2027 13D4                                      l2019 1366  
                                    l2051 1674                                      l2043 163C  
                                    l2131 0AAE                                      l2123 0A62  
                                    l2115 09AC                                      l2107 0918  
                                    l2211 112C                                      l2203 10EE  
                                    l1147 1824                                      l1075 1986  
                                    l2221 1B56                                      l2301 0E8A  
                                    l2029 13DA                                      l2061 1B1E  
                                    l2053 16A2                                      l2045 1648  
                                    l2037 160A                                      l2133 0AB4  
                                    l2141 0AEA                                      l2125 0A7C  
                                    l2109 091E                                      l2117 0A10  
                                    l2205 10FC                                      l1166 1608  
                                    l1174 1B02                                      l2231 18E2  
                                    l2071 19F2                                      l2063 19DC  
                                    l2151 184E                                      l2223 1B5E  
                                    l2311 0ECA                                      l2303 0E9C  
                                    l1183 1C2C                                      l2055 16B6  
                                    l2047 165C                                      l2039 161A  
                                    l2135 0AC6                                      l2119 0A2A  
                                    l2127 0A8C                                      l2145 1D1E  
                                    l2241 191C                                      l2233 18E6  
                                    l2161 1A40                                      l2401 1C48  
                                    l2081 1A18                                      l2073 19F4  
                                    l2065 19EC                                      l2153 1852  
                                    l2225 1B68                                      l2217 1B46  
                                    l2321 0F12                                      l2313 0ECE  
                                    l2305 0EA4                                      l1177 1D26  
                                    l2049 1670                                      l2137 0AD2  
                                    l2129 0A9E                                      l2209 1108  
                                    l2235 18F6                                      l2171 1A66  
                                    l2163 1A42                                      l2155 1A2C  
                                    l2403 1C4E                                      l2243 1C8E  
                                    l2075 1A02                                      l2067 19EE  
                                    l2147 1826                                      l2227 1B70  
                                    l2219 1B46                                      l2315 0EE0  
                                    l2307 0EC0                                      l2251 0D64  
                                    l2411 16D4                                      l2059 1B04  
                                    l2139 0ADA                                      l2091 08AA  
                                    l2083 0832                                      l2237 1906  
                                    l2173 1A68                                      l2165 1A44  
                                    l2157 1A3C                                      l2405 1C54  
                                    l2245 1C94                                      l2077 1A14  
                                    l2069 19F0                                      l2149 182A  
                                    l2229 1B76                                      l2317 0EE8  
                                    l2309 0EC4                                      l2261 0DAA  
                                    l2253 0D6C                                      l2421 16F4  
                                    l2413 16E6                                      l2093 08AC  
                                    l2085 0852                                      l2181 0FD0  
                                    l2239 190C                                      l2351 1D02  
                                    l2167 1A52                                      l2159 1A3E  
                                    l2407 1C5A                                      l2247 1CA2  
                                    l2079 1A16                                      l2343 0F78  
                                    l2335 0F50                                      l2327 0F28  
                                    l2319 0F00                                      l2271 0DF4  
                                    l2263 0DB2                                      l2255 0D7E  
                                    l2431 1730                                      l2423 16FA  
                                    l2415 16EC                                      l2095 08C6  
                                    l2087 087A                                      l2183 0FD4  
                                    l2175 0F8C                                      l2511 0B50  
                                    l2503 0B14                                      l2353 1D10  
                                    l2169 1A64                                      l2337 0F62  
                                    l2329 0F3A                                      l2281 0E1C  
                                    l2273 0DF8                                      l2265 0DC4  
                                    l2257 0D96                                      l2249 0D5C  
                                    l2433 1748                                      l2425 1700  
                                    l2409 16D0                                      l2441 1792  
                                    l2097 08E2                                      l2089 089A  
                                    l2193 109C                                      l2185 0FF8  
                                    l2177 0FB0                                      l2513 0B6E  
                                    l2521 0BBC                                      l2505 0B46  
                                    l2371 18B6                                      l2355 1D1A  
                                    l2451 1B88                                      l2291 0E58  
                                    l2283 0E38                                      l2275 0DFE  
                                    l2267 0DDC                                      l2259 0DA6  
                                    l2427 1710                                      l2443 17AE  
                                    l2435 174E                                      l2099 08F4  
                                    l2195 10C0                                      l2187 101C  
                                    l2179 0FBE                                      l2531 0C62  
                                    l2523 0BCC                                      l2515 0B82  
                                    l2507 0B48                                      l2357 1C62  
                                    l2373 18CA                                      l2365 189A  
                                    l2349 1CFE                                      l2461 1BA0  
                                    l2453 1B8C                                      l2293 0E60  
                                    l2285 0E3C                                      l2277 0E02  
                                    l2269 0DEC                                      l2429 1714  
                                    l2381 1CB8                                      l2445 17BA  
                                    l2437 175E                                      l2197 10CE  
                                    l2189 1064                                      l2541 0CD0  
                                    l2533 0C7C                                      l2525 0BF4  
                                    l2517 0B9A                                      l2509 0B4C  
                                    l2471 1478                                      l2375 18CC  
                                    l2367 18A0                                      l2359 1884  
                                    l2463 1BA4                                      l2455 1B92  
                                    l2295 0E7C                                      l2287 0E42  
                                    l2279 0E14                                      l2383 1CD4  
                                    l2439 1776                                      l2199 10E2  
                                    l2391 17DA                                      l2551 0D3E  
                                    l2543 0CFC                                      l2535 0C8E  
                                    l2527 0BFA                                      l2519 0BAE  
                                    l2481 1534                                      l2473 14B0  
                                    l2377 18DC                                      l2369 18AE  
                                    l2465 1BB0                                      l2457 1B96  
                                    l2449 1B84                                      l2297 0E80  
                                    l2289 0E46                                      l2393 1800  
                                    l2545 0D18                                      l2537 0CAA  
                                    l2529 0C0A                                      l2475 14B4  
                                    l2467 142C                                      l2483 1988  
                                    l2459 1B9C                                      l2395 1C2E  
                                    l2299 0E86                                      l1931 156E  
                                    l2387 17C4                                      l2491 1936  
                                    l2547 0D1E                                      l2539 0CC4  
                                    l2477 14F8                                      l2469 1434  
                                    l2485 19CC                                      l2397 1C32  
                                    l1933 158C                                      l1925 1540  
                                    l1941 1ACC                                      l2389 17CC  
                                    l2493 1948                                      l2549 0D32  
                                    l2479 1530                                      l2487 1A7A  
                                    l2399 1C42                                      l1935 15C2  
                                    l1927 1552                                      l1943 1ADE  
                                    l1951 1C08                                      l2495 1950  
                                    l2489 1AB2                                      l1961 1152  
                                    l1929 1564                                      l1945 1AE2  
                                    l1953 1C20                                      l2497 1958  
                                    l1971 11A8                                      l1963 1172  
                                    l1939 1AC0                                      l1947 1BF8  
                                    l2499 1974                                      l1981 11FC  
                                    l1973 11B4                                      l1965 1176  
                                    l1957 1140                                      l1949 1C04  
                                    ?_pad 0011                                      l1991 1270  
                                    l1983 120E                                      l1975 11D2  
                                    l1967 1184                                      l1959 1144  
                                    l1985 123C                                      l1977 11DA  
                                    l1993 1276                                      l1969 11A4  
                                    l1995 1286                                      l1987 125C  
                                    l1979 11EE                                      l1997 12A6  
                                    l1989 125E    CompararTemperatura@TemperaturaAdecuada 0012  
                                    STR_1 0801                                      STR_2 0810  
                                    STR_3 082E                                      STR_4 082D  
                                    STR_5 0826                                      STR_6 082E  
                                    STR_7 082D                                      STR_8 081E  
                                    u2000 189A                                      u2001 1896  
                                    u2010 18AE                                      u2011 18AA  
                                    u2100 19CC                                      u2020 18CA  
                                    u2101 19C8                                      u2021 18C6  
                                    u2110 1AB2                                      u2030 18DC  
                                    u1310 1552                                      u2111 1AAE  
                                    u2031 18D8                                      u1311 154E  
                                    u1400 11D2                                      u1320 1564  
                                    u2040 181C                                      u2120 0B6E  
                                    u1401 11CE                                      u1321 1560  
                                    u2041 1818                                      u2121 0B6A  
                                    u2050 1730                                      u1410 11FC  
                                    u1330 158C                                      u2130 0BCC  
                                    u2051 172C                                      u1411 11F8  
                                    u1331 1588                                      u2131 0BC8  
                                    u2060 1478                                      u1420 123C  
                                    u1340 15C2                                      u1500 161A  
                                    u2140 0C0A                                      u2061 1474  
                                    u1421 1238                                      u1341 15BE  
                                    u1501 1616                                      u2141 0C06  
                                    u2070 14B0                                      u1430 1286  
                                    u1350 1B02                                      u1510 163C  
                                    _LATB 000F8A                                      u2071 14AC  
                                    u1431 1282                                      u1351 1AFE  
                                    u1511 1638                                      u2080 14F8  
                                    u1440 12DA                                      u1360 1C20  
                                    u1520 1692                                      u1600 08F4  
                                    _LATD 000F8C                                      u2081 14F4  
                                    u1441 12D6                                      u1361 1C1C  
                                    u1521 168E                                      u1601 08F0  
                                    u2090 1530                                      u1370 1152  
                                    u1450 130C                                      u1530 16A2  
                                    u1610 0902                                      u2091 152C  
                                    u1371 114E                                      u1451 1308  
                                    u1531 169E                                      u1611 08FE  
                                    u1700 184A                                      u1380 1184  
                                    u1460 134A                                      u1540 1B1E  
                                    u1620 0A2A                                      u1381 1180  
                                    u1461 1346                                      u1541 1B1A  
                                    u1621 0A26                                      u1710 1872  
                                    u1470 1374                                      u1630 0A48  
                                    u1550 0862                                      u2407 0D9C  
                                    u1391 11AE                                      u1471 1370  
                                    u1631 0A44                                      u1551 085C  
                                    u1800 191C                                      u1720 1882  
                                    u1480 13A2                                      u1640 0A62  
                                    u1560 0864                                      u1801 1918  
                                    u1721 187E                                      u2417 0DE2  
                                    u1481 139E                                      u1641 0A5E  
                                    u1810 192C                                      u1490 13EA  
                                    u1650 0A7C                                      u1570 087A  
                                    u1730 0FB0                                      u1811 1928  
                                    u2507 1D14                                      u2427 19FA  
                                    u1707 1840                                      u1491 13E6  
                                    u1651 0A78                                      u1571 0876  
                                    u1731 0FAC                                      u1900 0E9C  
                                    u1820 0D7E                                      u1660 0A8C  
                                    u1580 08AA                                      u1740 0FF8  
                                    u2517 189C                                      u2437 1A20  
                                    u1717 1868                                      u1901 0E98  
                                    u1821 0D7A                                      u1661 0A88  
                                    u1581 08A6                                      u1741 0FF4  
                                    u1910 0EBC                                      u1830 0D96  
                                    u1670 0A9E                                      u1590 08C6  
                                    u1750 101C                                      u2447 1C9A  
                                    u1911 0EB8                                      u1831 0D92  
                                    u1671 0A9A                                      u1591 08C2  
                                    u1751 1018                                      u1920 0EE0  
                                    u1840 0DC4                                      u1680 0AAE  
                                    u1760 10C0                                      u2457 1CAE  
                                    u1921 0EDC                                      u1841 0DC0  
                                    u1681 0AAA                                      u1761 10BC  
                                    u2377 0B8C                                      u1770 1B56  
                                    u1930 0F00                                      u1850 0DDC  
                                    u1690 0AC6                                      u2467 1C38  
                                    u1771 1B52                                      u1931 0EFC  
                                    u1851 0DD8                                      u1691 0AC2  
                                    u2387 0D48                                      u1780 18F6  
                                    u1940 0F12                                      u1860 0E14  
                                    u1781 18F2                                      u2477 1A4A  
                                    u1941 0F0E                                      u1861 0E10  
                                    u2397 173A                                      u1790 1906  
                                    u1950 0F3A                                      u1870 0E34  
                                    u1791 1902                                      u2487 1A70  
                                    u1951 0F36                                      u1871 0E30  
                                    u1960 0F62                                      u1880 0E58  
                                    u2497 1D08                                      u1961 0F5E  
                                    u1881 0E54                                      u1970 1C70  
                                    u1890 0E78                                      u1971 1C6C  
                                    u1891 0E74                                      u1980 1C7E  
                                    u1981 1C7A                                      u1990 1C8C  
                                    u1991 1C88                                      _RBPU 007F8F  
                                    abs@a 0013                                      _dbuf 006B  
                                    _main 0B14                                      _dtoa 0832  
                      __size_of_LCD_Clear 002A                                      _prec 0064  
                                    _nout 0060                                      pad@i 0018  
                                    pad@p 0015                                      fsr1h 000FE2  
                                    fsr2h 000FDA                                      indf1 000FE7  
                                    indf2 000FDF                                      fsr1l 000FE1  
                                    pad@w 001A                                      fsr2l 000FD9  
                                    prodh 000FF4                                      prodl 000FF3  
                                    start 0000                          ??_DHT11_ReadData 0001  
            __size_of_CompararTemperatura 0114                             _LCD_String_xy 1B44  
                    __size_of_DHT11_Start 0020                                PedirDato@i 0011  
                   ??_TemperaturaDigitada 0009                              ___param_bank 000000  
                   __end_of_DatosSensorTH 1BC2           CompararTemperatura@TempDigitada 0007  
                                   ??_abs 0015                                     ??_pad 0017  
                        __end_of_LCD_Char 1A2A                          __end_of_LCD_Init 1C62  
                         __end_of___aodiv 12C8                                     ?_main 0001  
                                   ?_dtoa 001C                           __end_of___aomod 142C  
                                   _LATA0 007C48                                     _LATC0 007C58  
                                   _LATC1 007C59                                     _LATC2 007C5A  
                                   _LATD0 007C60                                     _LATD1 007C61  
                                   _LATE0 007C68                                     _LATE1 007C69  
                                   _LATE2 007C6A                                     _LATC6 007C5E  
                            vfpfcnvrt@fmt 0042                                     _PORTB 000F81  
                                   _PORTD 000F83                                     _TRISB 000F93  
                                   _TRISC 000F94                                     _TRISD 000F95  
                                   _TRISE 000F96                           _InicializarLeds 1D1E  
                                   _flags 0066                                     _fputc 1540  
                         __end_of_keyfind 0F8C                                     _fputs 1AC0  
                                   pad@fp 0011                                     _width 0062  
                                   _putch 1D26                                     dtoa@d 001E  
                                   dtoa@i 003E                                     dtoa@n 0036  
                                   dtoa@p 0030                                     dtoa@s 0034  
                                   dtoa@w 0032                                     tablat 000FF5  
                                   status 000FD8                       __size_of_LCD_String 005E  
                         __end_of_sprintf 1988                            ?_LCD_String_xy 0005  
                         __initialization 1BC2                              __end_of_main 0D5C  
                            __end_of_dtoa 0B14                                    ??_main 005E  
                                  ??_dtoa 0026                         __end_of_LCD_Clear 1CB8  
                           __activetblptr 000002                   ?_ControlHumedadAspersor 0001  
                                  _ADCON1 000FC1                                    ?_fputc 0001  
                                  ?_fputs 000A                                    ?_putch 0001  
                     _DHT11_CheckResponse 1C62                          LCD_String_xy@msg 0006  
                        LCD_String_xy@pos 0005                          LCD_String_xy@row 0008  
                                  _OSCCON 000FD3                        __size_of_PedirDato 007E  
                            vfprintf@cfmt 0056                                _PrenderLed 18E0  
                               ??___aodiv 0011                                 ??___aomod 0011  
                                  ___wmul 1CB8                      ?_DHT11_CheckResponse 0001  
                                  _keypad 008B                                    clear_0 1BE8  
                                  isa$std 000001                   __end_of_InicializarLeds 1D26  
                                  pad@buf 0013                                    _rowloc 0069  
                    __size_of_LCD_Command 0050                                    dtoa@fp 001C  
                                  _strlen 1BF8                                    fputc@c 0001  
                                  fputs@c 000E                                    fputs@i 000F  
                                  fputs@s 000A                                 ??_keyfind 0001  
          __end_of_ControlHumedadAspersor 19DA                              __mediumconst 0000  
                                  tblptrh 000FF7                                    tblptrl 000FF6  
                                  tblptru 000FF8                                    putch@c 0001  
                        __end_of_vfprintf 1826                                 ??_sprintf 005E  
    __end_of_ControlTemperaturaVentilador 1AC0     __size_of_ControlTemperaturaVentilador 0046  
            _ControlTemperaturaVentilador 1A7A                         PedirDato@Etiqueta 000A  
                               ?_LCD_Char 0001                                __accesstop 0060  
                 __end_of__initialization 1BEE                                 ?_LCD_Init 0001  
                         ??_LCD_String_xy 0008                             ___rparam_used 000001  
               TemperaturaDigitada@Decena 000E             CompararTemperatura@TempActual 0003  
                          __pcstackCOMRAM 0001                              __pidataBANK0 1CDE  
                   ??_DHT11_CheckResponse 0001                 TemperaturaDigitada@Unidad 000A  
                           __end_of_fputc 160A                             __end_of_fputs 1B04  
                           __end_of_putch 1D28                              ??_LCD_String 0005  
                       __end_of_PedirDato 174E                       _CompararTemperatura 142C  
                      DatosSensorTH@Datos 0003                                   ??_fputc 0005  
                                 ??_fputs 000E                                   ??_putch 0001  
                              __pbssBANK0 0060                                ??_LCD_Char 0001  
                              ??_LCD_Init 0003             ?_ControlTemperaturaVentilador 0001  
                      __end_of_LCD_String 1884                      ?_CompararTemperatura 0003  
                             ?_PrenderLed 0001                                   ?___wmul 0001  
                         main@Temperatura 00BD                          ?_InicializarLeds 0001  
                                 ?_strlen 0001                        __size_of_vfpfcnvrt 01B4  
                           ??_DHT11_Start 0001               __end_of_TemperaturaDigitada 17C4  
                   ??_CompararTemperatura 000B                             LCD_String@msg 0003  
                                 __Hparam 0000                                   __Lparam 0000  
                                 ___aodiv 1140                                   ___aomod 12C8  
                         __size_of___wmul 0026                                 ?_vfprintf 0050  
                            __psmallconst 0800            CompararTemperatura@HumDigitada 0009  
                                 __pcinit 1BC2                                   __ramtop 0800  
           PrenderLed@TemperaturaAdecuada 0002                                   __ptext0 0B14  
                                 __ptext1 1936                                   __ptext2 17C4  
                                 __ptext3 0F8C                                   __ptext4 0832  
                                 __ptext5 160A                                   __ptext6 1BF8  
                                 __ptext7 1AC0                                   __ptext8 1540  
                                 __ptext9 1D26                                   _col_loc 006A  
                         __size_of_strlen 0036                              __size_of_abs 0040  
                            __size_of_pad 00C6                                   _keyfind 0D5C  
                               _LCD_Clear 1C8E                                   _sprintf 1936  
                     __size_of_PrenderLed 0056                    __size_of_DatosSensorTH 003E  
                    end_of_initialization 1BEE                                   fputc@fp 0003  
                          LCD_Command@cmd 0002                             __Lmediumconst 0000  
                                 fputs@fp 000C  ControlTemperaturaVentilador@TempDigitada 0003  
          ??_ControlTemperaturaVentilador 0005                         __end_of_vfpfcnvrt 1140  
                     __end_of_DHT11_Start 1D1E                                   postdec1 000FE5  
                                 postdec2 000FDD                                   postinc0 000FEE  
                                 postinc1 000FE6                                   postinc2 000FDE  
                              ??_vfprintf 0056                                   strlen@a 0003  
                                 strlen@s 0001                                 _PORTAbits 000F80  
                               _PORTDbits 000F83                   __size_of_DHT11_ReadData 005C  
                               _TRISAbits 000F92                                main@Cadena 00B3  
                              ?_LCD_Clear 0001                                main@indice 00C1  
                       __size_of_LCD_Char 0050                         __size_of_LCD_Init 0034  
                      DHT11_ReadData@data 0002                   DatosSensorTH@T_Integral 0006  
                           _DatosSensorTH 1B84                             ??_LCD_Command 0001  
                             vfpfcnvrt@ap 0044                               vfpfcnvrt@fp 0040  
                             vfpfcnvrt@ll 0048                            __end_of___wmul 1CDE  
                          __end_of_strlen 1C2E                        keypad_getkey@F3168 009B  
                     start_initialization 1BC2                               __end_of_abs 1B44  
                             __end_of_pad 16D0                                 _PedirDato 16D0  
                             _DHT11_Start 1CFE               __end_of_DHT11_CheckResponse 1C8E  
                   __end_of_LCD_String_xy 1B84                               vfprintf@fmt 0052  
            CompararTemperatura@HumActual 0005                              ??_PrenderLed 0002  
                          ?_DatosSensorTH 0003                                  ??___wmul 0005  
                             __pdataBANK0 008B                                  ??_strlen 0003  
                     __end_of_LCD_Command 1A7A                             __pcstackBANK0 00AB  
                        ___aodiv@dividend 0001                               ??_LCD_Clear 0003  
                              ?_PedirDato 000A                        PedirDato@vecLlenar 000C  
                      __end_of_PrenderLed 1936       ControlHumedadAspersor@HumedadActual 0001  
                               _dtoa$1016 002E                                  ?___aodiv 0001  
                                ?___aomod 0001                          ___aodiv@quotient 0013  
      CompararTemperatura@HumedadAdecuada 0013                  ??_ControlHumedadAspersor 0005  
                          _DHT11_ReadData 1884                         __size_of_vfprintf 0062  
                             __smallconst 0800                                  ?_keyfind 0001  
                   LCD_String_xy@location 0009                  __size_of_InicializarLeds 0008  
                                ?_sprintf 0058                            __size_of_fputc 00CA  
                          __size_of_fputs 0044               __end_of_CompararTemperatura 1540  
                          __size_of_putch 0002    ControlTemperaturaVentilador@TempActual 0001  
                                _LCD_Char 19DA                                  _LCD_Init 1C2E  
                          ___wmul@product 0005                                  _LATDbits 000F8C  
                         ??_DatosSensorTH 0005              __size_of_TemperaturaDigitada 0076  
                  __end_of_DHT11_ReadData 18E0                               _LCD_Command 1A2A  
                               _vfpfcnvrt 0F8C                                 main@Datos 00C8  
                 main@TemperaturaAdecuada 00C3                         ___wmul@multiplier 0001  
                             ??_PedirDato 000E                               _INTCON2bits 000FF1  
                               copy_data0 1BD6                                  __Hrparam 0000  
   ControlHumedadAspersor@HumedadDigitada 0003                                vfprintf@ap 0054  
                                __Lrparam 0000                                vfprintf@fp 0050  
                         ?_DHT11_ReadData 0001                          __size_of___aodiv 0188  
                        __size_of___aomod 0164                                ?_vfpfcnvrt 0040  
         __size_of_ControlHumedadAspersor 0052                           DHT11_ReadData@i 0001  
                     main@HumedadAdecuada 00C5                           ___aodiv@divisor 0009  
                         ___aodiv@counter 0011                                sprintf@fmt 005A  
                        __size_of_keyfind 0230         TemperaturaDigitada@prmTemperatura 0007  
                                __ptext10 1B04                                  __ptext11 12C8  
                                __ptext20 1C8E                                  __ptext12 1140  
                                __ptext21 1C2E                                  __ptext13 174E  
                                __ptext30 18E0                                  __ptext22 1A2A  
                                __ptext14 1CB8                                  __ptext31 1D1E  
                                __ptext23 1B84                                  __ptext15 16D0  
                                __ptext24 1CFE                                  __ptext16 0D5C  
                                __ptext25 1884                                  __ptext17 1B44  
                                __ptext26 1C62                                  __ptext18 1826  
                                __ptext27 1A7A                                  __ptext19 19DA  
                                __ptext28 1988                                  __ptext29 142C  
                        __size_of_sprintf 0052                  DatosSensorTH@RH_Integral 0005  
                           __size_of_main 0248                             __size_of_dtoa 02E2  
                            ?_DHT11_Start 0001                         ??_InicializarLeds 0001  
                                _temp_col 0068                                  isa$xinst 000000  
                                _vfprintf 17C4                                _LCD_String 1826  
                        ___aomod@dividend 0001                    _ControlHumedadAspersor 1988  
                               sprintf@ap 00AB                 PrenderLed@HumedadAdecuada 0001  
            __size_of_DHT11_CheckResponse 002C                           ___aomod@divisor 0009  
                             ??_vfpfcnvrt 0046                           ___aomod@counter 0011  
                                sprintf@f 00AD                                  sprintf@s 0058  
                  __size_of_LCD_String_xy 0040              TemperaturaDigitada@Resultado 000C  
                     _TemperaturaDigitada 174E                              ___aodiv@sign 0012  
                            ___aomod@sign 0012  
