

Microchip MPLAB XC8 Assembler V2.32 build 20210201212658 
                                                                                               Mon Oct 11 23:30:59 2021

Microchip MPLAB XC8 C Compiler v2.32 (Free license) build 20210201212658 Og1 
     1                           	processor	18F4550
     2                           	fnconf	rparam,??,?,0
     3                           	pagewidth 120
     4                           	opt	flic
     5                           	psect	idataBANK0,global,class=CODE,delta=1,noexec
     6                           	psect	smallconst,global,reloc=2,class=SMALLCONST,delta=1,noexec
     7                           	psect	cinit,global,reloc=2,class=CODE,delta=1
     8                           	psect	bssBANK0,global,class=BANK0,space=1,delta=1,lowdata,noexec
     9                           	psect	dataBANK0,global,class=BANK0,space=1,delta=1,lowdata,noexec
    10                           	psect	cstackBANK0,global,class=BANK0,space=1,delta=1,lowdata,noexec
    11                           	psect	cstackCOMRAM,global,class=COMRAM,space=1,delta=1,lowdata,noexec
    12                           	psect	text0,global,reloc=2,class=CODE,delta=1
    13                           	psect	text1,global,reloc=2,class=CODE,delta=1
    14                           	psect	text2,global,reloc=2,class=CODE,delta=1
    15                           	psect	text3,global,reloc=2,class=CODE,delta=1
    16                           	psect	text4,global,reloc=2,class=CODE,delta=1
    17                           	psect	text5,global,reloc=2,class=CODE,delta=1
    18                           	psect	text6,global,reloc=2,class=CODE,delta=1
    19                           	psect	text7,global,reloc=2,class=CODE,delta=1
    20                           	psect	text8,global,reloc=2,class=CODE,delta=1
    21                           	psect	text9,global,reloc=2,class=CODE,delta=1
    22                           	psect	text10,global,reloc=2,class=CODE,delta=1,group=3
    23                           	psect	text11,global,reloc=2,class=CODE,delta=1,group=1
    24                           	psect	text12,global,reloc=2,class=CODE,delta=1,group=1
    25                           	psect	text13,global,reloc=2,class=CODE,delta=1,group=1
    26                           	psect	text14,global,reloc=2,class=CODE,delta=1,group=1
    27                           	psect	text15,global,reloc=2,class=CODE,delta=1,group=3
    28                           	psect	text16,global,reloc=2,class=CODE,delta=1,group=3
    29                           	psect	text17,global,reloc=2,class=CODE,delta=1,group=3
    30                           	psect	text18,global,reloc=2,class=CODE,delta=1,group=3
    31                           	psect	text19,global,reloc=2,class=CODE,delta=1,group=3
    32                           	psect	text20,global,reloc=2,class=CODE,delta=1,group=2
    33                           	psect	text21,global,reloc=2,class=CODE,delta=1,group=2
    34                           	psect	text22,global,reloc=2,class=CODE,delta=1
    35                           	psect	text23,global,reloc=2,class=CODE,delta=1
    36                           	psect	text24,global,reloc=2,class=CODE,delta=1
    37                           	psect	text25,global,reloc=2,class=CODE,delta=1
    38                           	psect	text26,global,reloc=2,class=CODE,delta=1
    39                           	psect	text27,global,reloc=2,class=CODE,delta=1
    40                           	psect	text28,global,reloc=2,class=CODE,delta=1
    41                           	psect	text29,global,reloc=2,class=CODE,delta=1
    42                           	psect	text30,global,reloc=2,class=CODE,delta=1
    43                           	psect	text31,global,reloc=2,class=CODE,delta=1
    44                           	psect	text32,global,reloc=2,class=CODE,delta=1,group=2
    45                           	psect	text33,global,reloc=2,class=CODE,delta=1
    46                           	psect	text34,global,reloc=2,class=CODE,delta=1
    47                           	psect	text35,global,reloc=2,class=CODE,delta=1
    48                           	psect	text36,global,reloc=2,class=CODE,delta=1
    49                           	psect	text37,global,reloc=2,class=CODE,delta=1
    50                           	psect	text38,global,reloc=2,class=CODE,delta=1
    51                           	psect	text39,global,reloc=2,class=CODE,delta=1
    52                           	psect	text40,global,reloc=2,class=CODE,delta=1
    53                           	psect	text41,global,reloc=2,class=CODE,delta=1
    54                           	psect	text42,global,reloc=2,class=CODE,delta=1
    55                           	psect	text43,global,reloc=2,class=CODE,delta=1
    56                           	psect	text44,global,reloc=2,class=CODE,delta=1
    57                           	psect	intsave_regs,global,class=BIGRAM,space=1,delta=1,noexec
    58                           	psect	rparam,global,class=COMRAM,space=1,delta=1,noexec
    59                           	psect	idloc,global,abs,ovrld,class=IDLOC,space=5,delta=1,noexec
    60                           	psect	config,global,abs,ovrld,class=CONFIG,space=4,delta=1,noexec
    61  0000                     
    62                           ; Version 2.20
    63                           ; Generated 12/02/2020 GMT
    64                           ; 
    65                           ; Copyright © 2020, Microchip Technology Inc. and its subsidiaries ("Microchip")
    66                           ; All rights reserved.
    67                           ; 
    68                           ; This software is developed by Microchip Technology Inc. and its subsidiaries ("Microch
      +                          ip").
    69                           ; 
    70                           ; Redistribution and use in source and binary forms, with or without modification, are
    71                           ; permitted provided that the following conditions are met:
    72                           ; 
    73                           ;     1. Redistributions of source code must retain the above copyright notice, this lis
      +                          t of
    74                           ;        conditions and the following disclaimer.
    75                           ; 
    76                           ;     2. Redistributions in binary form must reproduce the above copyright notice, this 
      +                          list
    77                           ;        of conditions and the following disclaimer in the documentation and/or other
    78                           ;        materials provided with the distribution.
    79                           ; 
    80                           ;     3. Microchip's name may not be used to endorse or promote products derived from th
      +                          is
    81                           ;        software without specific prior written permission.
    82                           ; 
    83                           ; THIS SOFTWARE IS PROVIDED BY MICROCHIP "AS IS" AND ANY EXPRESS OR IMPLIED WARRANTIES,
    84                           ; INCLUDING, BUT NOT LIMITED TO, THE IMPLIED WARRANTIES OF MERCHANTABILITY AND FITNESS F
      +                          OR
    85                           ; PURPOSE ARE DISCLAIMED.  IN NO EVENT SHALL MICROCHIP BE LIABLE FOR ANY DIRECT, INDIREC
      +                          T,
    86                           ; INCIDENTAL, SPECIAL, EXEMPLARY, OR CONSEQUENTIAL DAMAGES (INCLUDING BUT NOT LIMITED TO
    87                           ; PROCUREMENT OF SUBSTITUTE GOODS OR SERVICES; LOSS OF USE, DATA OR PROFITS; OR BUSINESS
    88                           ; INTERRUPTION) HOWSOEVER CAUSED AND ON ANY THEORY OF LIABILITY, WHETHER IN CONTRACT, ST
      +                          RICT
    89                           ; LIABILITY, OR TORT (INCLUDING NEGLIGENCE OR OTHERWISE) ARISING IN ANY WAY OUT OF THE U
      +                          SE OF
    90                           ; THIS SOFTWARE, EVEN IF ADVISED OF THE POSSIBILITY OF SUCH DAMAGE.
    91                           ; 
    92                           ; 
    93                           ; Code-generator required, PIC18F4550 Definitions
    94                           ; 
    95                           ; SFR Addresses
    96  0000                     
    97                           	psect	idataBANK0
    98  001EA4                     __pidataBANK0:
    99                           	callstack 0
   100                           
   101                           ;initializer for _keypad
   102  001EA4  31                 	db	49
   103  001EA5  32                 	db	50
   104  001EA6  33                 	db	51
   105  001EA7  34                 	db	52
   106  001EA8  35                 	db	53
   107  001EA9  36                 	db	54
   108  001EAA  37                 	db	55
   109  001EAB  38                 	db	56
   110  001EAC  39                 	db	57
   111  001EAD  2A                 	db	42
   112  001EAE  30                 	db	48
   113  001EAF  23                 	db	35
   114                           
   115                           ;initializer for _PrimeraVez
   116  001EB0  01                 	db	1
   117  0000                     _TRISE	set	3990
   118  0000                     _TRISC	set	3988
   119  0000                     _ADCON1	set	4033
   120  0000                     _TRISAbits	set	3986
   121  0000                     _PORTAbits	set	3968
   122  0000                     _PORTB	set	3969
   123  0000                     _LATB	set	3978
   124  0000                     _TRISB	set	3987
   125  0000                     _INTCON2bits	set	4081
   126  0000                     _LATD	set	3980
   127  0000                     _TRISD	set	3989
   128  0000                     _OSCCON	set	4051
   129  0000                     _LATE2	set	31850
   130  0000                     _LATE0	set	31848
   131  0000                     _LATE1	set	31849
   132  0000                     _LATC7	set	31839
   133  0000                     _LATC6	set	31838
   134  0000                     _LATC2	set	31834
   135  0000                     _LATC1	set	31833
   136  0000                     _LATC0	set	31832
   137  0000                     _LATA0	set	31816
   138  0000                     _RBPU	set	32655
   139  0000                     _LATD1	set	31841
   140  0000                     _LATD0	set	31840
   141                           
   142                           	psect	smallconst
   143  000800                     __psmallconst:
   144                           	callstack 0
   145  000800  00                 	db	0
   146  000801                     STR_1:
   147  000801  54                 	db	84	;'T'
   148  000802  65                 	db	101	;'e'
   149  000803  6D                 	db	109	;'m'
   150  000804  70                 	db	112	;'p'
   151  000805  2E                 	db	46
   152  000806  20                 	db	32
   153  000807  41                 	db	65	;'A'
   154  000808  64                 	db	100	;'d'
   155  000809  65                 	db	101	;'e'
   156  00080A  63                 	db	99	;'c'
   157  00080B  75                 	db	117	;'u'
   158  00080C  61                 	db	97	;'a'
   159  00080D  64                 	db	100	;'d'
   160  00080E  61                 	db	97	;'a'
   161  00080F  00                 	db	0
   162  000810                     STR_2:
   163  000810  4D                 	db	77	;'M'
   164  000811  67                 	db	103	;'g'
   165  000812  6E                 	db	110	;'n'
   166  000813  20                 	db	32
   167  000814  45                 	db	69	;'E'
   168  000815  72                 	db	114	;'r'
   169  000816  72                 	db	114	;'r'
   170  000817  6F                 	db	111	;'o'
   171  000818  72                 	db	114	;'r'
   172  000819  20                 	db	32
   173  00081A  54                 	db	84	;'T'
   174  00081B  65                 	db	101	;'e'
   175  00081C  6D                 	db	109	;'m'
   176  00081D  70                 	db	112	;'p'
   177  00081E  00                 	db	0
   178  00081F                     STR_3:
   179  00081F  48                 	db	72	;'H'
   180  000820  75                 	db	117	;'u'
   181  000821  6D                 	db	109	;'m'
   182  000822  2E                 	db	46
   183  000823  20                 	db	32
   184  000824  41                 	db	65	;'A'
   185  000825  64                 	db	100	;'d'
   186  000826  65                 	db	101	;'e'
   187  000827  63                 	db	99	;'c'
   188  000828  75                 	db	117	;'u'
   189  000829  61                 	db	97	;'a'
   190  00082A  64                 	db	100	;'d'
   191  00082B  61                 	db	97	;'a'
   192  00082C  00                 	db	0
   193  00082D                     STR_4:
   194  00082D  4D                 	db	77	;'M'
   195  00082E  67                 	db	103	;'g'
   196  00082F  6E                 	db	110	;'n'
   197  000830  20                 	db	32
   198  000831  45                 	db	69	;'E'
   199  000832  72                 	db	114	;'r'
   200  000833  72                 	db	114	;'r'
   201  000834  6F                 	db	111	;'o'
   202  000835  72                 	db	114	;'r'
   203  000836  20                 	db	32
   204  000837  48                 	db	72	;'H'
   205  000838  75                 	db	117	;'u'
   206  000839  6D                 	db	109	;'m'
   207  00083A  00                 	db	0
   208  00083B                     STR_10:
   209  00083B  43                 	db	67	;'C'
   210  00083C  20                 	db	32
   211  00083D  54                 	db	84	;'T'
   212  00083E  65                 	db	101	;'e'
   213  00083F  6D                 	db	109	;'m'
   214  000840  70                 	db	112	;'p'
   215  000841  2E                 	db	46
   216  000842  00                 	db	0
   217  000843                     STR_7:
   218  000843  20                 	db	32
   219  000844  20                 	db	32
   220  000845  48                 	db	72	;'H'
   221  000846  75                 	db	117	;'u'
   222  000847  6D                 	db	109	;'m'
   223  000848  2E                 	db	46
   224  000849  00                 	db	0
   225  00084A                     STR_6:
   226  00084A  2E                 	db	46
   227  00084B  25                 	db	37
   228  00084C  64                 	db	100	;'d'
   229  00084D  00                 	db	0
   230  00084E  00                 	db	0	; dummy byte at the end
   231  0000                     
   232                           ; #config settings
   233                           
   234                           	psect	cinit
   235  001D68                     __pcinit:
   236                           	callstack 0
   237  001D68                     start_initialization:
   238                           	callstack 0
   239  001D68                     __initialization:
   240                           	callstack 0
   241                           
   242                           ; Initialize objects allocated to BANK0 (13 bytes)
   243                           ; load TBLPTR registers with __pidataBANK0
   244  001D68  0EA4               	movlw	low __pidataBANK0
   245  001D6A  6EF6               	movwf	tblptrl,c
   246  001D6C  0E1E               	movlw	high __pidataBANK0
   247  001D6E  6EF7               	movwf	tblptrh,c
   248  001D70  0E00               	movlw	low (__pidataBANK0 shr (0+16))
   249  001D72  6EF8               	movwf	tblptru,c
   250  001D74  EE00  F0A7         	lfsr	0,__pdataBANK0
   251  001D78  EE10 F00D          	lfsr	1,13
   252  001D7C                     copy_data0:
   253  001D7C  0009               	tblrd		*+
   254  001D7E  CFF5 FFEE          	movff	tablat,postinc0
   255  001D82  50E5               	movf	postdec1,w,c
   256  001D84  50E1               	movf	fsr1l,w,c
   257  001D86  E1FA               	bnz	copy_data0
   258                           
   259                           ; Clear objects allocated to BANK0 (71 bytes)
   260  001D88  EE00  F060         	lfsr	0,__pbssBANK0
   261  001D8C  0E47               	movlw	71
   262  001D8E                     clear_0:
   263  001D8E  6AEE               	clrf	postinc0,c
   264  001D90  06E8               	decf	wreg,f,c
   265  001D92  E1FD               	bnz	clear_0
   266  001D94                     end_of_initialization:
   267                           	callstack 0
   268  001D94                     __end_of__initialization:
   269                           	callstack 0
   270  001D94  0E00               	movlw	low (__Lmediumconst shr (0+16))
   271  001D96  6EF8               	movwf	tblptru,c
   272  001D98  0100               	movlb	0
   273  001D9A  EFF8  F008         	goto	_main	;jump to C main() function
   274                           
   275                           	psect	bssBANK0
   276  000060                     __pbssBANK0:
   277                           	callstack 0
   278  000060                     _nout:
   279                           	callstack 0
   280  000060                     	ds	2
   281  000062                     _width:
   282                           	callstack 0
   283  000062                     	ds	2
   284  000064                     _prec:
   285                           	callstack 0
   286  000064                     	ds	2
   287  000066                     _flags:
   288                           	callstack 0
   289  000066                     	ds	2
   290  000068                     _HumedadAdecuada:
   291                           	callstack 0
   292  000068                     	ds	2
   293  00006A                     _TemperaturaAdecuada:
   294                           	callstack 0
   295  00006A                     	ds	2
   296  00006C                     _MargenEH:
   297                           	callstack 0
   298  00006C                     	ds	2
   299  00006E                     _MargenET:
   300                           	callstack 0
   301  00006E                     	ds	2
   302  000070                     _VentiladoresEncendidosHum:
   303                           	callstack 0
   304  000070                     	ds	1
   305  000071                     _VentiladoresEncendidosTemp:
   306                           	callstack 0
   307  000071                     	ds	1
   308  000072                     _temp_col:
   309                           	callstack 0
   310  000072                     	ds	1
   311  000073                     _rowloc:
   312                           	callstack 0
   313  000073                     	ds	1
   314  000074                     _col_loc:
   315                           	callstack 0
   316  000074                     	ds	1
   317  000075                     _dbuf:
   318                           	callstack 0
   319  000075                     	ds	32
   320  000095                     _Cadena:
   321                           	callstack 0
   322  000095                     	ds	10
   323  00009F                     _Datos:
   324                           	callstack 0
   325  00009F                     	ds	2
   326  0000A1                     _Humedad:
   327                           	callstack 0
   328  0000A1                     	ds	2
   329  0000A3                     _Temperatura:
   330                           	callstack 0
   331  0000A3                     	ds	2
   332  0000A5                     _MargenErrorH:
   333                           	callstack 0
   334  0000A5                     	ds	1
   335  0000A6                     _MargenErrorT:
   336                           	callstack 0
   337  0000A6                     	ds	1
   338                           
   339                           	psect	dataBANK0
   340  0000A7                     __pdataBANK0:
   341                           	callstack 0
   342  0000A7                     _keypad:
   343                           	callstack 0
   344  0000A7                     	ds	12
   345  0000B3                     _PrimeraVez:
   346                           	callstack 0
   347  0000B3                     	ds	1
   348                           
   349                           	psect	cstackBANK0
   350  0000B4                     __pcstackBANK0:
   351                           	callstack 0
   352  0000B4                     sprintf@ap:
   353                           	callstack 0
   354                           
   355                           ; 2 bytes @ 0x0
   356  0000B4                     	ds	2
   357  0000B6                     sprintf@f:
   358                           	callstack 0
   359                           
   360                           ; 6 bytes @ 0x2
   361  0000B6                     	ds	6
   362  0000BC                     MostrarHumedad@Cadena:
   363                           	callstack 0
   364  0000BC                     MostrarTemperatura@Cadena:
   365                           	callstack 0
   366                           
   367                           ; 2 bytes @ 0x8
   368  0000BC                     	ds	2
   369  0000BE                     MostrarHumedad@Humedad:
   370                           	callstack 0
   371  0000BE                     MostrarTemperatura@Temperatura:
   372                           	callstack 0
   373                           
   374                           ; 1 bytes @ 0xA
   375  0000BE                     	ds	1
   376                           
   377                           	psect	cstackCOMRAM
   378  000001                     __pcstackCOMRAM:
   379                           	callstack 0
   380  000001                     ??_LCD_Command:
   381  000001                     ??_keyfind:
   382  000001                     ??_LCD_Char:
   383  000001                     ??_DHT11_Start:
   384  000001                     ?_strlen:
   385                           	callstack 0
   386  000001                     ?___wmul:
   387                           	callstack 0
   388  000001                     ?___aodiv:
   389                           	callstack 0
   390  000001                     ?___aomod:
   391                           	callstack 0
   392  000001                     DHT11_ReadData@i:
   393                           	callstack 0
   394  000001                     PrenderLed@HumedadAdecuada:
   395                           	callstack 0
   396  000001                     ControlHumedadAspersorVentilador@HumedadActual:
   397                           	callstack 0
   398  000001                     ControlTemperaturaCalefactorVentilador@TempActual:
   399                           	callstack 0
   400  000001                     ___wmul@multiplier:
   401                           	callstack 0
   402  000001                     fputc@c:
   403                           	callstack 0
   404  000001                     strlen@s:
   405                           	callstack 0
   406  000001                     ___aodiv@dividend:
   407                           	callstack 0
   408  000001                     ___aomod@dividend:
   409                           	callstack 0
   410                           
   411                           ; 8 bytes @ 0x0
   412  000001                     	ds	1
   413  000002                     LCD_Command@cmd:
   414                           	callstack 0
   415  000002                     LCD_Char@dat:
   416                           	callstack 0
   417  000002                     DHT11_ReadData@data:
   418                           	callstack 0
   419  000002                     PrenderLed@TemperaturaAdecuada:
   420                           	callstack 0
   421                           
   422                           ; 1 bytes @ 0x1
   423  000002                     	ds	1
   424  000003                     ??_LCD_Init:
   425  000003                     ??_LCD_Clear:
   426  000003                     LCD_String@msg:
   427                           	callstack 0
   428  000003                     DatosSensorTH@Datos:
   429                           	callstack 0
   430  000003                     Comparar_T_H_Adecuados@TempActual:
   431                           	callstack 0
   432  000003                     ControlHumedadAspersorVentilador@HumedadDigitada:
   433                           	callstack 0
   434  000003                     ControlTemperaturaCalefactorVentilador@TempDigitada:
   435                           	callstack 0
   436  000003                     ___wmul@multiplicand:
   437                           	callstack 0
   438  000003                     fputc@fp:
   439                           	callstack 0
   440  000003                     strlen@a:
   441                           	callstack 0
   442                           
   443                           ; 2 bytes @ 0x2
   444  000003                     	ds	2
   445  000005                     ??_fputc:
   446  000005                     LCD_String_xy@pos:
   447                           	callstack 0
   448  000005                     DatosSensorTH@RH_Integral:
   449                           	callstack 0
   450  000005                     Comparar_T_H_Adecuados@HumActual:
   451                           	callstack 0
   452  000005                     ControlHumedadAspersorVentilador@MargenErrorH:
   453                           	callstack 0
   454  000005                     ControlTemperaturaCalefactorVentilador@MargenErrorT:
   455                           	callstack 0
   456  000005                     ___wmul@product:
   457                           	callstack 0
   458                           
   459                           ; 2 bytes @ 0x4
   460  000005                     	ds	1
   461  000006                     DatosSensorTH@T_Integral:
   462                           	callstack 0
   463  000006                     LCD_String_xy@msg:
   464                           	callstack 0
   465                           
   466                           ; 2 bytes @ 0x5
   467  000006                     	ds	1
   468  000007                     ??_ControlHumedadAspersorVentilador:
   469  000007                     ??_ControlTemperaturaCalefactorVentilador:
   470  000007                     ?_DatoDigitadoAEntero:
   471                           	callstack 0
   472  000007                     DatoDigitadoAEntero@prmTemperatura:
   473                           	callstack 0
   474  000007                     Comparar_T_H_Adecuados@TempDigitada:
   475                           	callstack 0
   476                           
   477                           ; 2 bytes @ 0x6
   478  000007                     	ds	1
   479  000008                     LCD_String_xy@row:
   480                           	callstack 0
   481                           
   482                           ; 1 bytes @ 0x7
   483  000008                     	ds	1
   484  000009                     ??_DatoDigitadoAEntero:
   485  000009                     LCD_String_xy@location:
   486                           	callstack 0
   487  000009                     Comparar_T_H_Adecuados@HumDigitada:
   488                           	callstack 0
   489  000009                     ___aodiv@divisor:
   490                           	callstack 0
   491  000009                     ___aomod@divisor:
   492                           	callstack 0
   493                           
   494                           ; 8 bytes @ 0x8
   495  000009                     	ds	1
   496  00000A                     PedirDato@Etiqueta:
   497                           	callstack 0
   498  00000A                     DatoDigitadoAEntero@Unidad:
   499                           	callstack 0
   500  00000A                     fputs@s:
   501                           	callstack 0
   502                           
   503                           ; 2 bytes @ 0x9
   504  00000A                     	ds	1
   505  00000B                     Comparar_T_H_Adecuados@MargenErrorT:
   506                           	callstack 0
   507                           
   508                           ; 2 bytes @ 0xA
   509  00000B                     	ds	1
   510  00000C                     PedirDato@vecLlenar:
   511                           	callstack 0
   512  00000C                     DatoDigitadoAEntero@Resultado:
   513                           	callstack 0
   514  00000C                     fputs@fp:
   515                           	callstack 0
   516                           
   517                           ; 2 bytes @ 0xB
   518  00000C                     	ds	1
   519  00000D                     Comparar_T_H_Adecuados@MargenErrorH:
   520                           	callstack 0
   521                           
   522                           ; 2 bytes @ 0xC
   523  00000D                     	ds	1
   524  00000E                     fputs@c:
   525                           	callstack 0
   526  00000E                     PedirDato@CantDatos:
   527                           	callstack 0
   528  00000E                     DatoDigitadoAEntero@Decena:
   529                           	callstack 0
   530                           
   531                           ; 2 bytes @ 0xD
   532  00000E                     	ds	1
   533  00000F                     ??_Comparar_T_H_Adecuados:
   534  00000F                     fputs@i:
   535                           	callstack 0
   536                           
   537                           ; 2 bytes @ 0xE
   538  00000F                     	ds	1
   539  000010                     ??_PedirDato:
   540                           
   541                           ; 1 bytes @ 0xF
   542  000010                     	ds	1
   543  000011                     ?_pad:
   544                           	callstack 0
   545  000011                     ___aodiv@counter:
   546                           	callstack 0
   547  000011                     ___aomod@counter:
   548                           	callstack 0
   549  000011                     pad@fp:
   550                           	callstack 0
   551                           
   552                           ; 2 bytes @ 0x10
   553  000011                     	ds	1
   554  000012                     ___aodiv@sign:
   555                           	callstack 0
   556  000012                     ___aomod@sign:
   557                           	callstack 0
   558  000012                     PedirDato@i:
   559                           	callstack 0
   560                           
   561                           ; 2 bytes @ 0x11
   562  000012                     	ds	1
   563  000013                     ?_abs:
   564                           	callstack 0
   565  000013                     pad@buf:
   566                           	callstack 0
   567  000013                     abs@a:
   568                           	callstack 0
   569  000013                     ___aodiv@quotient:
   570                           	callstack 0
   571                           
   572                           ; 8 bytes @ 0x12
   573  000013                     	ds	1
   574  000014                     PedirDato@tecla:
   575                           	callstack 0
   576  000014                     Comparar_T_H_Adecuados@TemperaturaAdecuada:
   577                           	callstack 0
   578                           
   579                           ; 1 bytes @ 0x13
   580  000014                     	ds	1
   581  000015                     ??_abs:
   582  000015                     Comparar_T_H_Adecuados@HumedadAdecuada:
   583                           	callstack 0
   584  000015                     PedirTodosLosDatos@Temperatura:
   585                           	callstack 0
   586  000015                     pad@p:
   587                           	callstack 0
   588                           
   589                           ; 2 bytes @ 0x14
   590  000015                     	ds	2
   591  000017                     ??_pad:
   592  000017                     PedirTodosLosDatos@Humedad:
   593                           	callstack 0
   594                           
   595                           ; 2 bytes @ 0x16
   596  000017                     	ds	1
   597  000018                     pad@i:
   598                           	callstack 0
   599                           
   600                           ; 2 bytes @ 0x17
   601  000018                     	ds	1
   602  000019                     PedirTodosLosDatos@MargenErrorT:
   603                           	callstack 0
   604                           
   605                           ; 2 bytes @ 0x18
   606  000019                     	ds	1
   607  00001A                     pad@w:
   608                           	callstack 0
   609                           
   610                           ; 2 bytes @ 0x19
   611  00001A                     	ds	1
   612  00001B                     PedirTodosLosDatos@MargenErrorH:
   613                           	callstack 0
   614                           
   615                           ; 2 bytes @ 0x1A
   616  00001B                     	ds	1
   617  00001C                     ?_dtoa:
   618                           	callstack 0
   619  00001C                     dtoa@fp:
   620                           	callstack 0
   621                           
   622                           ; 2 bytes @ 0x1B
   623  00001C                     	ds	1
   624  00001D                     ??_PedirTodosLosDatos:
   625                           
   626                           ; 1 bytes @ 0x1C
   627  00001D                     	ds	1
   628  00001E                     dtoa@d:
   629                           	callstack 0
   630                           
   631                           ; 8 bytes @ 0x1D
   632  00001E                     	ds	8
   633  000026                     ??_dtoa:
   634                           
   635                           ; 1 bytes @ 0x25
   636  000026                     	ds	8
   637  00002E                     _dtoa$958:
   638                           	callstack 0
   639                           
   640                           ; 2 bytes @ 0x2D
   641  00002E                     	ds	2
   642  000030                     dtoa@p:
   643                           	callstack 0
   644                           
   645                           ; 2 bytes @ 0x2F
   646  000030                     	ds	2
   647  000032                     dtoa@w:
   648                           	callstack 0
   649                           
   650                           ; 2 bytes @ 0x31
   651  000032                     	ds	2
   652  000034                     dtoa@s:
   653                           	callstack 0
   654                           
   655                           ; 2 bytes @ 0x33
   656  000034                     	ds	2
   657  000036                     dtoa@n:
   658                           	callstack 0
   659                           
   660                           ; 8 bytes @ 0x35
   661  000036                     	ds	8
   662  00003E                     dtoa@i:
   663                           	callstack 0
   664                           
   665                           ; 2 bytes @ 0x3D
   666  00003E                     	ds	2
   667  000040                     ?_vfpfcnvrt:
   668                           	callstack 0
   669  000040                     vfpfcnvrt@fp:
   670                           	callstack 0
   671                           
   672                           ; 2 bytes @ 0x3F
   673  000040                     	ds	2
   674  000042                     vfpfcnvrt@fmt:
   675                           	callstack 0
   676                           
   677                           ; 2 bytes @ 0x41
   678  000042                     	ds	2
   679  000044                     vfpfcnvrt@ap:
   680                           	callstack 0
   681                           
   682                           ; 2 bytes @ 0x43
   683  000044                     	ds	2
   684  000046                     ??_vfpfcnvrt:
   685                           
   686                           ; 1 bytes @ 0x45
   687  000046                     	ds	2
   688  000048                     vfpfcnvrt@ll:
   689                           	callstack 0
   690                           
   691                           ; 8 bytes @ 0x47
   692  000048                     	ds	8
   693  000050                     ?_vfprintf:
   694                           	callstack 0
   695  000050                     vfprintf@fp:
   696                           	callstack 0
   697                           
   698                           ; 2 bytes @ 0x4F
   699  000050                     	ds	2
   700  000052                     vfprintf@fmt:
   701                           	callstack 0
   702                           
   703                           ; 2 bytes @ 0x51
   704  000052                     	ds	2
   705  000054                     vfprintf@ap:
   706                           	callstack 0
   707                           
   708                           ; 2 bytes @ 0x53
   709  000054                     	ds	2
   710  000056                     vfprintf@cfmt:
   711                           	callstack 0
   712                           
   713                           ; 2 bytes @ 0x55
   714  000056                     	ds	2
   715  000058                     ?_sprintf:
   716                           	callstack 0
   717  000058                     sprintf@s:
   718                           	callstack 0
   719                           
   720                           ; 2 bytes @ 0x57
   721  000058                     	ds	2
   722  00005A                     sprintf@fmt:
   723                           	callstack 0
   724                           
   725                           ; 2 bytes @ 0x59
   726  00005A                     	ds	4
   727  00005E                     ??_main:
   728                           
   729                           ; 1 bytes @ 0x5D
   730  00005E                     	ds	2
   731                           
   732 ;;
   733 ;;Main: autosize = 0, tempsize = 2, incstack = 0, save=0
   734 ;;
   735 ;; *************** function _main *****************
   736 ;; Defined at:
   737 ;;		line 10 in file "Main_Invernadero.c"
   738 ;; Parameters:    Size  Location     Type
   739 ;;		None
   740 ;; Auto vars:     Size  Location     Type
   741 ;;		None
   742 ;; Return value:  Size  Location     Type
   743 ;;                  1    wreg      void 
   744 ;; Registers used:
   745 ;;		wreg, fsr1l, fsr1h, fsr2l, fsr2h, status,2, status,0, tblptrl, tblptrh, tblptru, prodl, prodh, cstack
   746 ;; Tracked objects:
   747 ;;		On entry : 0/0
   748 ;;		On exit  : 0/0
   749 ;;		Unchanged: 0/0
   750 ;; Data sizes:     COMRAM   BANK0   BANK1   BANK2   BANK3   BANK4   BANK5   BANK6   BANK7
   751 ;;      Params:         0       0       0       0       0       0       0       0       0
   752 ;;      Locals:         0       0       0       0       0       0       0       0       0
   753 ;;      Temps:          2       0       0       0       0       0       0       0       0
   754 ;;      Totals:         2       0       0       0       0       0       0       0       0
   755 ;;Total ram usage:        2 bytes
   756 ;; Hardware stack levels required when called: 9
   757 ;; This function calls:
   758 ;;		_ApagarAspersores
   759 ;;		_ApagarLeds
   760 ;;		_ApagarVentiladores
   761 ;;		_Comparar_T_H_Adecuados
   762 ;;		_ConfigurarPuertosLCD
   763 ;;		_ControlHumedadAspersorVentilador
   764 ;;		_ControlTemperaturaCalefactorVentilador
   765 ;;		_DatoDigitadoAEntero
   766 ;;		_DatosSensorTH
   767 ;;		_LCD_Init
   768 ;;		_MostrarHumedad
   769 ;;		_MostrarTemperatura
   770 ;;		_PedirTodosLosDatos
   771 ;;		_initActuadores
   772 ;;		_initDHT11
   773 ;;		_initTeclado
   774 ;; This function is called by:
   775 ;;		Startup code after reset
   776 ;; This function uses a non-reentrant model
   777 ;;
   778                           
   779                           	psect	text0
   780  0011F0                     __ptext0:
   781                           	callstack 0
   782  0011F0                     _main:
   783                           	callstack 22
   784  0011F0                     
   785                           ;Main_Invernadero.c: 11:     OSCCON=0x72;
   786  0011F0  0E72               	movlw	114
   787  0011F2  6ED3               	movwf	211,c	;volatile
   788  0011F4                     
   789                           ;Main_Invernadero.c: 12:     ConfigurarPuertosLCD();
   790  0011F4  EC71  F00F         	call	_ConfigurarPuertosLCD	;wreg free
   791  0011F8                     
   792                           ;Main_Invernadero.c: 13:     initDHT11();
   793  0011F8  EC62  F00F         	call	_initDHT11	;wreg free
   794  0011FC                     
   795                           ;Main_Invernadero.c: 14:     initActuadores();
   796  0011FC  EC59  F00F         	call	_initActuadores	;wreg free
   797  001200                     
   798                           ;Main_Invernadero.c: 15:     LCD_Init();
   799  001200  ECEA  F00E         	call	_LCD_Init	;wreg free
   800  001204                     
   801                           ;Main_Invernadero.c: 16:     initTeclado();
   802  001204  EC74  F00F         	call	_initTeclado	;wreg free
   803  001208                     
   804                           ;Main_Invernadero.c: 18:     ApagarAspersores();
   805  001208  EC6E  F00F         	call	_ApagarAspersores	;wreg free
   806  00120C                     
   807                           ;Main_Invernadero.c: 19:     ApagarVentiladores();
   808  00120C  EC6B  F00F         	call	_ApagarVentiladores	;wreg free
   809  001210                     
   810                           ;Main_Invernadero.c: 20:     ApagarLeds();
   811  001210  EC5E  F00F         	call	_ApagarLeds	;wreg free
   812  001214                     l63:
   813                           
   814                           ;Main_Invernadero.c: 23:      if(PrimeraVez==1){
   815  001214  0100               	movlb	0	; () banked
   816  001216  05B3               	decf	_PrimeraVez& (0+255),w,b
   817  001218  A4D8               	btfss	status,2,c
   818  00121A  EF11  F009         	goto	u1801
   819  00121E  EF13  F009         	goto	u1800
   820  001222                     u1801:
   821  001222  EF48  F009         	goto	l2512
   822  001226                     u1800:
   823  001226                     
   824                           ; BSR set to: 0
   825                           ;Main_Invernadero.c: 24:          PedirTodosLosDatos(Temperatura,Humedad,MargenErrorT,Ma
      +                          rgenErrorH);
   826  001226  0EA3               	movlw	low _Temperatura
   827  001228  6E15               	movwf	PedirTodosLosDatos@Temperatura^0,c
   828  00122A  0E00               	movlw	high _Temperatura
   829  00122C  6E16               	movwf	(PedirTodosLosDatos@Temperatura+1)^0,c
   830  00122E  0EA1               	movlw	low _Humedad
   831  001230  6E17               	movwf	PedirTodosLosDatos@Humedad^0,c
   832  001232  0E00               	movlw	high _Humedad
   833  001234  6E18               	movwf	(PedirTodosLosDatos@Humedad+1)^0,c
   834  001236  0EA6               	movlw	low _MargenErrorT
   835  001238  6E19               	movwf	PedirTodosLosDatos@MargenErrorT^0,c
   836  00123A  0E00               	movlw	high _MargenErrorT
   837  00123C  6E1A               	movwf	(PedirTodosLosDatos@MargenErrorT+1)^0,c
   838  00123E  0EA5               	movlw	low _MargenErrorH
   839  001240  6E1B               	movwf	PedirTodosLosDatos@MargenErrorH^0,c
   840  001242  0E00               	movlw	high _MargenErrorH
   841  001244  6E1C               	movwf	(PedirTodosLosDatos@MargenErrorH+1)^0,c
   842  001246  ECEB  F00A         	call	_PedirTodosLosDatos	;wreg free
   843  00124A                     
   844                           ;Main_Invernadero.c: 26:          TemperaturaAdecuada = DatoDigitadoAEntero(Temperatura)
      +                          ;
   845  00124A  0EA3               	movlw	low _Temperatura
   846  00124C  6E07               	movwf	DatoDigitadoAEntero@prmTemperatura^0,c
   847  00124E  0E00               	movlw	high _Temperatura
   848  001250  6E08               	movwf	(DatoDigitadoAEntero@prmTemperatura+1)^0,c
   849  001252  EC56  F00C         	call	_DatoDigitadoAEntero	;wreg free
   850  001256  C007  F06A         	movff	?_DatoDigitadoAEntero,_TemperaturaAdecuada
   851  00125A  C008  F06B         	movff	?_DatoDigitadoAEntero+1,_TemperaturaAdecuada+1
   852  00125E                     
   853                           ;Main_Invernadero.c: 28:          HumedadAdecuada = DatoDigitadoAEntero(Humedad);
   854  00125E  0EA1               	movlw	low _Humedad
   855  001260  6E07               	movwf	DatoDigitadoAEntero@prmTemperatura^0,c
   856  001262  0E00               	movlw	high _Humedad
   857  001264  6E08               	movwf	(DatoDigitadoAEntero@prmTemperatura+1)^0,c
   858  001266  EC56  F00C         	call	_DatoDigitadoAEntero	;wreg free
   859  00126A  C007  F068         	movff	?_DatoDigitadoAEntero,_HumedadAdecuada
   860  00126E  C008  F069         	movff	?_DatoDigitadoAEntero+1,_HumedadAdecuada+1
   861  001272                     
   862                           ;Main_Invernadero.c: 30:          MargenET = MargenErrorT[0]-48;
   863  001272  0ED0               	movlw	208
   864  001274  0100               	movlb	0	; () banked
   865  001276  25A6               	addwf	_MargenErrorT& (0+255),w,b
   866  001278  6F6E               	movwf	_MargenET& (0+255),b
   867  00127A  6B6F               	clrf	(_MargenET+1)& (0+255),b
   868  00127C  0EFF               	movlw	255
   869  00127E  236F               	addwfc	(_MargenET+1)& (0+255),f,b
   870  001280                     
   871                           ; BSR set to: 0
   872                           ;Main_Invernadero.c: 31:          MargenEH = MargenErrorH[0]-48;
   873  001280  0ED0               	movlw	208
   874  001282  25A5               	addwf	_MargenErrorH& (0+255),w,b
   875  001284  6F6C               	movwf	_MargenEH& (0+255),b
   876  001286  6B6D               	clrf	(_MargenEH+1)& (0+255),b
   877  001288  0EFF               	movlw	255
   878  00128A  236D               	addwfc	(_MargenEH+1)& (0+255),f,b
   879  00128C                     
   880                           ; BSR set to: 0
   881                           ;Main_Invernadero.c: 32:          PrimeraVez=0;
   882  00128C  0E00               	movlw	0
   883  00128E  6FB3               	movwf	_PrimeraVez& (0+255),b
   884  001290                     l2512:
   885                           
   886                           ; BSR set to: 0
   887                           ;Main_Invernadero.c: 34:         DatosSensorTH(Datos);
   888  001290  0E9F               	movlw	low _Datos
   889  001292  6E03               	movwf	DatosSensorTH@Datos^0,c
   890  001294  0E00               	movlw	high _Datos
   891  001296  6E04               	movwf	(DatosSensorTH@Datos+1)^0,c
   892  001298  EC95  F00E         	call	_DatosSensorTH	;wreg free
   893  00129C                     
   894                           ;Main_Invernadero.c: 37:         Comparar_T_H_Adecuados(&Datos[0],&Datos[1],TemperaturaA
      +                          decuada,
   895  00129C  0E9F               	movlw	low _Datos
   896  00129E  6E03               	movwf	Comparar_T_H_Adecuados@TempActual^0,c
   897  0012A0  0E00               	movlw	high _Datos
   898  0012A2  6E04               	movwf	(Comparar_T_H_Adecuados@TempActual+1)^0,c
   899  0012A4  0EA0               	movlw	low (_Datos+1)
   900  0012A6  6E05               	movwf	Comparar_T_H_Adecuados@HumActual^0,c
   901  0012A8  0E00               	movlw	high (_Datos+1)
   902  0012AA  6E06               	movwf	(Comparar_T_H_Adecuados@HumActual+1)^0,c
   903  0012AC  C06A  F007         	movff	_TemperaturaAdecuada,Comparar_T_H_Adecuados@TempDigitada
   904  0012B0  C06B  F008         	movff	_TemperaturaAdecuada+1,Comparar_T_H_Adecuados@TempDigitada+1
   905  0012B4  C068  F009         	movff	_HumedadAdecuada,Comparar_T_H_Adecuados@HumDigitada
   906  0012B8  C069  F00A         	movff	_HumedadAdecuada+1,Comparar_T_H_Adecuados@HumDigitada+1
   907  0012BC  C06E  F00B         	movff	_MargenET,Comparar_T_H_Adecuados@MargenErrorT
   908  0012C0  C06F  F00C         	movff	_MargenET+1,Comparar_T_H_Adecuados@MargenErrorT+1
   909  0012C4  C06C  F00D         	movff	_MargenEH,Comparar_T_H_Adecuados@MargenErrorH
   910  0012C8  C06D  F00E         	movff	_MargenEH+1,Comparar_T_H_Adecuados@MargenErrorH+1
   911  0012CC  ECA5  F009         	call	_Comparar_T_H_Adecuados	;wreg free
   912  0012D0                     
   913                           ;Main_Invernadero.c: 43:         ControlHumedadAspersorVentilador(&Datos[1],HumedadAdecu
      +                          ada,MargenEH);
   914  0012D0  0EA0               	movlw	low (_Datos+1)
   915  0012D2  6E01               	movwf	ControlHumedadAspersorVentilador@HumedadActual^0,c
   916  0012D4  0E00               	movlw	high (_Datos+1)
   917  0012D6  6E02               	movwf	(ControlHumedadAspersorVentilador@HumedadActual+1)^0,c
   918  0012D8  C068  F003         	movff	_HumedadAdecuada,ControlHumedadAspersorVentilador@HumedadDigitada
   919  0012DC  C069  F004         	movff	_HumedadAdecuada+1,ControlHumedadAspersorVentilador@HumedadDigitada+1
   920  0012E0  C06C  F005         	movff	_MargenEH,ControlHumedadAspersorVentilador@MargenErrorH
   921  0012E4  C06D  F006         	movff	_MargenEH+1,ControlHumedadAspersorVentilador@MargenErrorH+1
   922  0012E8  ECA5  F00B         	call	_ControlHumedadAspersorVentilador	;wreg free
   923  0012EC                     
   924                           ;Main_Invernadero.c: 46:         ControlTemperaturaCalefactorVentilador(&Datos[0],Temper
      +                          aturaAdecuada,MargenET);
   925  0012EC  0E9F               	movlw	low _Datos
   926  0012EE  6E01               	movwf	ControlTemperaturaCalefactorVentilador@TempActual^0,c
   927  0012F0  0E00               	movlw	high _Datos
   928  0012F2  6E02               	movwf	(ControlTemperaturaCalefactorVentilador@TempActual+1)^0,c
   929  0012F4  C06A  F003         	movff	_TemperaturaAdecuada,ControlTemperaturaCalefactorVentilador@TempDigitada
   930  0012F8  C06B  F004         	movff	_TemperaturaAdecuada+1,ControlTemperaturaCalefactorVentilador@TempDigitada+1
   931  0012FC  C06E  F005         	movff	_MargenET,ControlTemperaturaCalefactorVentilador@MargenErrorT
   932  001300  C06F  F006         	movff	_MargenET+1,ControlTemperaturaCalefactorVentilador@MargenErrorT+1
   933  001304  EC48  F00B         	call	_ControlTemperaturaCalefactorVentilador	;wreg free
   934  001308                     
   935                           ;Main_Invernadero.c: 55:         MostrarHumedad(Cadena,Datos[1]);
   936  001308  0E95               	movlw	low _Cadena
   937  00130A  0100               	movlb	0	; () banked
   938  00130C  6FBC               	movwf	MostrarHumedad@Cadena& (0+255),b
   939  00130E  0E00               	movlw	high _Cadena
   940  001310  6FBD               	movwf	(MostrarHumedad@Cadena+1)& (0+255),b
   941  001312  C0A0  F0BE         	movff	_Datos+1,MostrarHumedad@Humedad
   942  001316  ECC9  F00C         	call	_MostrarHumedad	;wreg free
   943  00131A                     
   944                           ;Main_Invernadero.c: 57:         MostrarTemperatura(Cadena,Datos[0]);
   945  00131A  0E95               	movlw	low _Cadena
   946  00131C  0100               	movlb	0	; () banked
   947  00131E  6FBC               	movwf	MostrarTemperatura@Cadena& (0+255),b
   948  001320  0E00               	movlw	high _Cadena
   949  001322  6FBD               	movwf	(MostrarTemperatura@Cadena+1)& (0+255),b
   950  001324  C09F  F0BE         	movff	_Datos,MostrarTemperatura@Temperatura
   951  001328  EC91  F00C         	call	_MostrarTemperatura	;wreg free
   952  00132C                     
   953                           ;Main_Invernadero.c: 59:        _delay((unsigned long)((500)*(8000000L/4000.0)));
   954  00132C  0E06               	movlw	6
   955  00132E  6E5F               	movwf	(??_main+1)^0,c
   956  001330  0E13               	movlw	19
   957  001332  6E5E               	movwf	??_main^0,c
   958  001334  0EAE               	movlw	174
   959  001336                     u1817:
   960  001336  2EE8               	decfsz	wreg,f,c
   961  001338  D7FE               	bra	u1817
   962  00133A  2E5E               	decfsz	??_main^0,f,c
   963  00133C  D7FC               	bra	u1817
   964  00133E  2E5F               	decfsz	(??_main+1)^0,f,c
   965  001340  D7FA               	bra	u1817
   966  001342  EF0A  F009         	goto	l63
   967  001346  EF00  F000         	goto	start
   968  00134A                     __end_of_main:
   969                           	callstack 0
   970                           
   971 ;; *************** function _initTeclado *****************
   972 ;; Defined at:
   973 ;;		line 155 in file "keypad.c"
   974 ;; Parameters:    Size  Location     Type
   975 ;;		None
   976 ;; Auto vars:     Size  Location     Type
   977 ;;		None
   978 ;; Return value:  Size  Location     Type
   979 ;;                  1    wreg      void 
   980 ;; Registers used:
   981 ;;		None
   982 ;; Tracked objects:
   983 ;;		On entry : 0/0
   984 ;;		On exit  : 0/0
   985 ;;		Unchanged: 0/0
   986 ;; Data sizes:     COMRAM   BANK0   BANK1   BANK2   BANK3   BANK4   BANK5   BANK6   BANK7
   987 ;;      Params:         0       0       0       0       0       0       0       0       0
   988 ;;      Locals:         0       0       0       0       0       0       0       0       0
   989 ;;      Temps:          0       0       0       0       0       0       0       0       0
   990 ;;      Totals:         0       0       0       0       0       0       0       0       0
   991 ;;Total ram usage:        0 bytes
   992 ;; Hardware stack levels used: 1
   993 ;; This function calls:
   994 ;;		Nothing
   995 ;; This function is called by:
   996 ;;		_main
   997 ;; This function uses a non-reentrant model
   998 ;;
   999                           
  1000                           	psect	text1
  1001  001EE8                     __ptext1:
  1002                           	callstack 0
  1003  001EE8                     _initTeclado:
  1004                           	callstack 30
  1005  001EE8                     
  1006                           ;keypad.c: 156:     RBPU=0;
  1007  001EE8  9EF1               	bcf	4081,7,c	;volatile
  1008  001EEA  0012               	return		;funcret
  1009  001EEC                     __end_of_initTeclado:
  1010                           	callstack 0
  1011                           
  1012 ;; *************** function _initDHT11 *****************
  1013 ;; Defined at:
  1014 ;;		line 102 in file "DHT11.c"
  1015 ;; Parameters:    Size  Location     Type
  1016 ;;		None
  1017 ;; Auto vars:     Size  Location     Type
  1018 ;;		None
  1019 ;; Return value:  Size  Location     Type
  1020 ;;                  1    wreg      void 
  1021 ;; Registers used:
  1022 ;;		wreg, status,2
  1023 ;; Tracked objects:
  1024 ;;		On entry : 0/0
  1025 ;;		On exit  : 0/0
  1026 ;;		Unchanged: 0/0
  1027 ;; Data sizes:     COMRAM   BANK0   BANK1   BANK2   BANK3   BANK4   BANK5   BANK6   BANK7
  1028 ;;      Params:         0       0       0       0       0       0       0       0       0
  1029 ;;      Locals:         0       0       0       0       0       0       0       0       0
  1030 ;;      Temps:          0       0       0       0       0       0       0       0       0
  1031 ;;      Totals:         0       0       0       0       0       0       0       0       0
  1032 ;;Total ram usage:        0 bytes
  1033 ;; Hardware stack levels used: 1
  1034 ;; This function calls:
  1035 ;;		Nothing
  1036 ;; This function is called by:
  1037 ;;		_main
  1038 ;; This function uses a non-reentrant model
  1039 ;;
  1040                           
  1041                           	psect	text2
  1042  001EC4                     __ptext2:
  1043                           	callstack 0
  1044  001EC4                     _initDHT11:
  1045                           	callstack 30
  1046  001EC4                     
  1047                           ;DHT11.c: 103:     ADCON1=0x0F;
  1048  001EC4  0E0F               	movlw	15
  1049  001EC6  6EC1               	movwf	193,c	;volatile
  1050  001EC8  0012               	return		;funcret
  1051  001ECA                     __end_of_initDHT11:
  1052                           	callstack 0
  1053                           
  1054 ;; *************** function _initActuadores *****************
  1055 ;; Defined at:
  1056 ;;		line 12 in file "Actuadores.c"
  1057 ;; Parameters:    Size  Location     Type
  1058 ;;		None
  1059 ;; Auto vars:     Size  Location     Type
  1060 ;;		None
  1061 ;; Return value:  Size  Location     Type
  1062 ;;                  1    wreg      void 
  1063 ;; Registers used:
  1064 ;;		wreg, status,2
  1065 ;; Tracked objects:
  1066 ;;		On entry : 0/0
  1067 ;;		On exit  : 0/0
  1068 ;;		Unchanged: 0/0
  1069 ;; Data sizes:     COMRAM   BANK0   BANK1   BANK2   BANK3   BANK4   BANK5   BANK6   BANK7
  1070 ;;      Params:         0       0       0       0       0       0       0       0       0
  1071 ;;      Locals:         0       0       0       0       0       0       0       0       0
  1072 ;;      Temps:          0       0       0       0       0       0       0       0       0
  1073 ;;      Totals:         0       0       0       0       0       0       0       0       0
  1074 ;;Total ram usage:        0 bytes
  1075 ;; Hardware stack levels used: 1
  1076 ;; This function calls:
  1077 ;;		Nothing
  1078 ;; This function is called by:
  1079 ;;		_main
  1080 ;; This function uses a non-reentrant model
  1081 ;;
  1082                           
  1083                           	psect	text3
  1084  001EB2                     __ptext3:
  1085                           	callstack 0
  1086  001EB2                     _initActuadores:
  1087                           	callstack 30
  1088  001EB2                     
  1089                           ;Actuadores.c: 13:     TRISC=0x00;
  1090  001EB2  0E00               	movlw	0
  1091  001EB4  6E94               	movwf	148,c	;volatile
  1092                           
  1093                           ;Actuadores.c: 14:     TRISE = 0;
  1094  001EB6  0E00               	movlw	0
  1095  001EB8  6E96               	movwf	150,c	;volatile
  1096  001EBA  0012               	return		;funcret
  1097  001EBC                     __end_of_initActuadores:
  1098                           	callstack 0
  1099                           
  1100 ;; *************** function _PedirTodosLosDatos *****************
  1101 ;; Defined at:
  1102 ;;		line 150 in file "LCD.c"
  1103 ;; Parameters:    Size  Location     Type
  1104 ;;  Temperatura     2   20[COMRAM] PTR unsigned char 
  1105 ;;		 -> Temperatura(2), 
  1106 ;;  Humedad         2   22[COMRAM] PTR unsigned char 
  1107 ;;		 -> Humedad(2), 
  1108 ;;  MargenErrorT    2   24[COMRAM] PTR unsigned char 
  1109 ;;		 -> MargenErrorT(1), 
  1110 ;;  MargenErrorH    2   26[COMRAM] PTR unsigned char 
  1111 ;;		 -> MargenErrorH(1), 
  1112 ;; Auto vars:     Size  Location     Type
  1113 ;;		None
  1114 ;; Return value:  Size  Location     Type
  1115 ;;                  1    wreg      void 
  1116 ;; Registers used:
  1117 ;;		wreg, fsr1l, fsr1h, fsr2l, fsr2h, status,2, status,0, tblptrl, tblptrh, tblptru, prodl, prodh, cstack
  1118 ;; Tracked objects:
  1119 ;;		On entry : 0/0
  1120 ;;		On exit  : 0/0
  1121 ;;		Unchanged: 0/0
  1122 ;; Data sizes:     COMRAM   BANK0   BANK1   BANK2   BANK3   BANK4   BANK5   BANK6   BANK7
  1123 ;;      Params:         8       0       0       0       0       0       0       0       0
  1124 ;;      Locals:         0       0       0       0       0       0       0       0       0
  1125 ;;      Temps:          2       0       0       0       0       0       0       0       0
  1126 ;;      Totals:        10       0       0       0       0       0       0       0       0
  1127 ;;Total ram usage:       10 bytes
  1128 ;; Hardware stack levels used: 1
  1129 ;; Hardware stack levels required when called: 4
  1130 ;; This function calls:
  1131 ;;		_PedirDato
  1132 ;; This function is called by:
  1133 ;;		_main
  1134 ;; This function uses a non-reentrant model
  1135 ;;
  1136                           
  1137                           	psect	text4
  1138  0015D6                     __ptext4:
  1139                           	callstack 0
  1140  0015D6                     _PedirTodosLosDatos:
  1141                           	callstack 26
  1142  0015D6                     
  1143                           ;LCD.c: 151:        PedirDato("Temp. Adecuada",Temperatura,2);
  1144  0015D6  0E01               	movlw	low STR_1
  1145  0015D8  6E0A               	movwf	PedirDato@Etiqueta^0,c
  1146  0015DA  0E08               	movlw	high STR_1
  1147  0015DC  6E0B               	movwf	(PedirDato@Etiqueta+1)^0,c
  1148  0015DE  C015  F00C         	movff	PedirTodosLosDatos@Temperatura,PedirDato@vecLlenar
  1149  0015E2  C016  F00D         	movff	PedirTodosLosDatos@Temperatura+1,PedirDato@vecLlenar+1
  1150  0015E6  0E00               	movlw	0
  1151  0015E8  6E0F               	movwf	(PedirDato@CantDatos+1)^0,c
  1152  0015EA  0E02               	movlw	2
  1153  0015EC  6E0E               	movwf	PedirDato@CantDatos^0,c
  1154  0015EE  EC02  F00C         	call	_PedirDato	;wreg free
  1155  0015F2                     
  1156                           ;LCD.c: 152:        _delay((unsigned long)((100)*(8000000L/4000.0)));
  1157  0015F2  0E02               	movlw	2
  1158  0015F4  6E1E               	movwf	(??_PedirTodosLosDatos+1)^0,c
  1159  0015F6  0E04               	movlw	4
  1160  0015F8  6E1D               	movwf	??_PedirTodosLosDatos^0,c
  1161  0015FA  0EBA               	movlw	186
  1162  0015FC                     u1827:
  1163  0015FC  2EE8               	decfsz	wreg,f,c
  1164  0015FE  D7FE               	bra	u1827
  1165  001600  2E1D               	decfsz	??_PedirTodosLosDatos^0,f,c
  1166  001602  D7FC               	bra	u1827
  1167  001604  2E1E               	decfsz	(??_PedirTodosLosDatos+1)^0,f,c
  1168  001606  D7FA               	bra	u1827
  1169  001608  D000               	nop2	
  1170  00160A                     
  1171                           ;LCD.c: 153:        PedirDato("Mgn Error Temp",MargenErrorT,1);
  1172  00160A  0E10               	movlw	low STR_2
  1173  00160C  6E0A               	movwf	PedirDato@Etiqueta^0,c
  1174  00160E  0E08               	movlw	high STR_2
  1175  001610  6E0B               	movwf	(PedirDato@Etiqueta+1)^0,c
  1176  001612  C019  F00C         	movff	PedirTodosLosDatos@MargenErrorT,PedirDato@vecLlenar
  1177  001616  C01A  F00D         	movff	PedirTodosLosDatos@MargenErrorT+1,PedirDato@vecLlenar+1
  1178  00161A  0E00               	movlw	0
  1179  00161C  6E0F               	movwf	(PedirDato@CantDatos+1)^0,c
  1180  00161E  0E01               	movlw	1
  1181  001620  6E0E               	movwf	PedirDato@CantDatos^0,c
  1182  001622  EC02  F00C         	call	_PedirDato	;wreg free
  1183                           
  1184                           ;LCD.c: 154:         _delay((unsigned long)((100)*(8000000L/4000.0)));
  1185  001626  0E02               	movlw	2
  1186  001628  6E1E               	movwf	(??_PedirTodosLosDatos+1)^0,c
  1187  00162A  0E04               	movlw	4
  1188  00162C  6E1D               	movwf	??_PedirTodosLosDatos^0,c
  1189  00162E  0EBA               	movlw	186
  1190  001630                     u1837:
  1191  001630  2EE8               	decfsz	wreg,f,c
  1192  001632  D7FE               	bra	u1837
  1193  001634  2E1D               	decfsz	??_PedirTodosLosDatos^0,f,c
  1194  001636  D7FC               	bra	u1837
  1195  001638  2E1E               	decfsz	(??_PedirTodosLosDatos+1)^0,f,c
  1196  00163A  D7FA               	bra	u1837
  1197  00163C  D000               	nop2	
  1198  00163E                     
  1199                           ;LCD.c: 155:        PedirDato("Hum. Adecuada",Humedad,2);
  1200  00163E  0E1F               	movlw	low STR_3
  1201  001640  6E0A               	movwf	PedirDato@Etiqueta^0,c
  1202  001642  0E08               	movlw	high STR_3
  1203  001644  6E0B               	movwf	(PedirDato@Etiqueta+1)^0,c
  1204  001646  C017  F00C         	movff	PedirTodosLosDatos@Humedad,PedirDato@vecLlenar
  1205  00164A  C018  F00D         	movff	PedirTodosLosDatos@Humedad+1,PedirDato@vecLlenar+1
  1206  00164E  0E00               	movlw	0
  1207  001650  6E0F               	movwf	(PedirDato@CantDatos+1)^0,c
  1208  001652  0E02               	movlw	2
  1209  001654  6E0E               	movwf	PedirDato@CantDatos^0,c
  1210  001656  EC02  F00C         	call	_PedirDato	;wreg free
  1211  00165A                     
  1212                           ;LCD.c: 156:        _delay((unsigned long)((100)*(8000000L/4000.0)));
  1213  00165A  0E02               	movlw	2
  1214  00165C  6E1E               	movwf	(??_PedirTodosLosDatos+1)^0,c
  1215  00165E  0E04               	movlw	4
  1216  001660  6E1D               	movwf	??_PedirTodosLosDatos^0,c
  1217  001662  0EBA               	movlw	186
  1218  001664                     u1847:
  1219  001664  2EE8               	decfsz	wreg,f,c
  1220  001666  D7FE               	bra	u1847
  1221  001668  2E1D               	decfsz	??_PedirTodosLosDatos^0,f,c
  1222  00166A  D7FC               	bra	u1847
  1223  00166C  2E1E               	decfsz	(??_PedirTodosLosDatos+1)^0,f,c
  1224  00166E  D7FA               	bra	u1847
  1225  001670  D000               	nop2	
  1226                           
  1227                           ;LCD.c: 157:        PedirDato("Mgn Error Hum",MargenErrorH,1);
  1228  001672  0E2D               	movlw	low STR_4
  1229  001674  6E0A               	movwf	PedirDato@Etiqueta^0,c
  1230  001676  0E08               	movlw	high STR_4
  1231  001678  6E0B               	movwf	(PedirDato@Etiqueta+1)^0,c
  1232  00167A  C01B  F00C         	movff	PedirTodosLosDatos@MargenErrorH,PedirDato@vecLlenar
  1233  00167E  C01C  F00D         	movff	PedirTodosLosDatos@MargenErrorH+1,PedirDato@vecLlenar+1
  1234  001682  0E00               	movlw	0
  1235  001684  6E0F               	movwf	(PedirDato@CantDatos+1)^0,c
  1236  001686  0E01               	movlw	1
  1237  001688  6E0E               	movwf	PedirDato@CantDatos^0,c
  1238  00168A  EC02  F00C         	call	_PedirDato	;wreg free
  1239  00168E  0012               	return		;funcret
  1240  001690                     __end_of_PedirTodosLosDatos:
  1241                           	callstack 0
  1242                           
  1243 ;; *************** function _PedirDato *****************
  1244 ;; Defined at:
  1245 ;;		line 124 in file "LCD.c"
  1246 ;; Parameters:    Size  Location     Type
  1247 ;;  Etiqueta        2    9[COMRAM] PTR unsigned char 
  1248 ;;		 -> STR_4(14), STR_3(14), STR_2(15), STR_1(15), 
  1249 ;;  vecLlenar       2   11[COMRAM] PTR unsigned char 
  1250 ;;		 -> MargenErrorH(1), MargenErrorT(1), Humedad(2), Temperatura(2), 
  1251 ;;  CantDatos       2   13[COMRAM] int 
  1252 ;; Auto vars:     Size  Location     Type
  1253 ;;  i               2   17[COMRAM] int 
  1254 ;;  tecla           1   19[COMRAM] unsigned char 
  1255 ;; Return value:  Size  Location     Type
  1256 ;;                  1    wreg      void 
  1257 ;; Registers used:
  1258 ;;		wreg, fsr1l, fsr1h, fsr2l, fsr2h, status,2, status,0, tblptrl, tblptrh, tblptru, prodl, prodh, cstack
  1259 ;; Tracked objects:
  1260 ;;		On entry : 0/0
  1261 ;;		On exit  : 0/0
  1262 ;;		Unchanged: 0/0
  1263 ;; Data sizes:     COMRAM   BANK0   BANK1   BANK2   BANK3   BANK4   BANK5   BANK6   BANK7
  1264 ;;      Params:         6       0       0       0       0       0       0       0       0
  1265 ;;      Locals:         3       0       0       0       0       0       0       0       0
  1266 ;;      Temps:          2       0       0       0       0       0       0       0       0
  1267 ;;      Totals:        11       0       0       0       0       0       0       0       0
  1268 ;;Total ram usage:       11 bytes
  1269 ;; Hardware stack levels used: 1
  1270 ;; Hardware stack levels required when called: 3
  1271 ;; This function calls:
  1272 ;;		_LCD_Char
  1273 ;;		_LCD_Clear
  1274 ;;		_LCD_Command
  1275 ;;		_LCD_String_xy
  1276 ;;		_keyfind
  1277 ;; This function is called by:
  1278 ;;		_PedirTodosLosDatos
  1279 ;; This function uses a non-reentrant model
  1280 ;;
  1281                           
  1282                           	psect	text5
  1283  001804                     __ptext5:
  1284                           	callstack 0
  1285  001804                     _PedirDato:
  1286                           	callstack 26
  1287  001804                     
  1288                           ;LCD.c: 125:      LCD_Clear();
  1289  001804  EC1A  F00F         	call	_LCD_Clear	;wreg free
  1290  001808                     
  1291                           ;LCD.c: 127:      unsigned char tecla;;LCD.c: 128:      LCD_String_xy(0,0,Etiqueta);
  1292  001808  0E00               	movlw	0
  1293  00180A  6E05               	movwf	LCD_String_xy@pos^0,c
  1294  00180C  C00A  F006         	movff	PedirDato@Etiqueta,LCD_String_xy@msg
  1295  001810  C00B  F007         	movff	PedirDato@Etiqueta+1,LCD_String_xy@msg+1
  1296  001814  0E00               	movlw	0
  1297  001816  EC75  F00E         	call	_LCD_String_xy
  1298  00181A                     
  1299                           ;LCD.c: 129:      LCD_Command(0xC0);
  1300  00181A  0EC0               	movlw	192
  1301  00181C  EC0B  F00E         	call	_LCD_Command
  1302  001820                     
  1303                           ;LCD.c: 131:      for(int i=0 ; i < CantDatos ; i++){
  1304  001820  0E00               	movlw	0
  1305  001822  6E13               	movwf	(PedirDato@i+1)^0,c
  1306  001824  0E00               	movlw	0
  1307  001826  6E12               	movwf	PedirDato@i^0,c
  1308  001828  EF38  F00C         	goto	l2262
  1309  00182C                     l2250:
  1310                           
  1311                           ;LCD.c: 133:      tecla=keyfind();
  1312  00182C  EC99  F005         	call	_keyfind	;wreg free
  1313  001830  6E14               	movwf	PedirDato@tecla^0,c
  1314  001832                     
  1315                           ;LCD.c: 134:      }while(tecla=='*'||tecla=='#');
  1316  001832  0E2A               	movlw	42
  1317  001834  1814               	xorwf	PedirDato@tecla^0,w,c
  1318  001836  B4D8               	btfsc	status,2,c
  1319  001838  EF20  F00C         	goto	u1541
  1320  00183C  EF22  F00C         	goto	u1540
  1321  001840                     u1541:
  1322  001840  EF16  F00C         	goto	l2250
  1323  001844                     u1540:
  1324  001844  0E23               	movlw	35
  1325  001846  1814               	xorwf	PedirDato@tecla^0,w,c
  1326  001848  B4D8               	btfsc	status,2,c
  1327  00184A  EF29  F00C         	goto	u1551
  1328  00184E  EF2B  F00C         	goto	u1550
  1329  001852                     u1551:
  1330  001852  EF16  F00C         	goto	l2250
  1331  001856                     u1550:
  1332  001856                     
  1333                           ;LCD.c: 135:      LCD_Char(tecla);
  1334  001856  5014               	movf	PedirDato@tecla^0,w,c
  1335  001858  ECE3  F00D         	call	_LCD_Char
  1336  00185C                     
  1337                           ;LCD.c: 136:      vecLlenar[i] = tecla;
  1338  00185C  5012               	movf	PedirDato@i^0,w,c
  1339  00185E  240C               	addwf	PedirDato@vecLlenar^0,w,c
  1340  001860  6ED9               	movwf	fsr2l,c
  1341  001862  5013               	movf	(PedirDato@i+1)^0,w,c
  1342  001864  200D               	addwfc	(PedirDato@vecLlenar+1)^0,w,c
  1343  001866  6EDA               	movwf	fsr2h,c
  1344  001868  C014  FFDF         	movff	PedirDato@tecla,indf2
  1345  00186C                     
  1346                           ;LCD.c: 138:      }
  1347  00186C  4A12               	infsnz	PedirDato@i^0,f,c
  1348  00186E  2A13               	incf	(PedirDato@i+1)^0,f,c
  1349  001870                     l2262:
  1350  001870  500E               	movf	PedirDato@CantDatos^0,w,c
  1351  001872  5C12               	subwf	PedirDato@i^0,w,c
  1352  001874  5013               	movf	(PedirDato@i+1)^0,w,c
  1353  001876  0A80               	xorlw	128
  1354  001878  6E10               	movwf	??_PedirDato^0,c
  1355  00187A  500F               	movf	(PedirDato@CantDatos+1)^0,w,c
  1356  00187C  0A80               	xorlw	128
  1357  00187E  5810               	subwfb	??_PedirDato^0,w,c
  1358  001880  A0D8               	btfss	status,0,c
  1359  001882  EF45  F00C         	goto	u1561
  1360  001886  EF47  F00C         	goto	u1560
  1361  00188A                     u1561:
  1362  00188A  EF16  F00C         	goto	l2250
  1363  00188E                     u1560:
  1364  00188E                     
  1365                           ;LCD.c: 139:      _delay((unsigned long)((100)*(8000000L/4000.0)));
  1366  00188E  0E02               	movlw	2
  1367  001890  6E11               	movwf	(??_PedirDato+1)^0,c
  1368  001892  0E04               	movlw	4
  1369  001894  6E10               	movwf	??_PedirDato^0,c
  1370  001896  0EBA               	movlw	186
  1371  001898                     u1857:
  1372  001898  2EE8               	decfsz	wreg,f,c
  1373  00189A  D7FE               	bra	u1857
  1374  00189C  2E10               	decfsz	??_PedirDato^0,f,c
  1375  00189E  D7FC               	bra	u1857
  1376  0018A0  2E11               	decfsz	(??_PedirDato+1)^0,f,c
  1377  0018A2  D7FA               	bra	u1857
  1378  0018A4  D000               	nop2	
  1379  0018A6                     
  1380                           ;LCD.c: 140:      LCD_Clear();
  1381  0018A6  EC1A  F00F         	call	_LCD_Clear	;wreg free
  1382  0018AA  0012               	return		;funcret
  1383  0018AC                     __end_of_PedirDato:
  1384                           	callstack 0
  1385                           
  1386 ;; *************** function _keyfind *****************
  1387 ;; Defined at:
  1388 ;;		line 21 in file "keypad.c"
  1389 ;; Parameters:    Size  Location     Type
  1390 ;;		None
  1391 ;; Auto vars:     Size  Location     Type
  1392 ;;		None
  1393 ;; Return value:  Size  Location     Type
  1394 ;;                  1    wreg      unsigned char 
  1395 ;; Registers used:
  1396 ;;		wreg, fsr2l, fsr2h, status,2, status,0, prodl, prodh
  1397 ;; Tracked objects:
  1398 ;;		On entry : 0/0
  1399 ;;		On exit  : 0/0
  1400 ;;		Unchanged: 0/0
  1401 ;; Data sizes:     COMRAM   BANK0   BANK1   BANK2   BANK3   BANK4   BANK5   BANK6   BANK7
  1402 ;;      Params:         0       0       0       0       0       0       0       0       0
  1403 ;;      Locals:         0       0       0       0       0       0       0       0       0
  1404 ;;      Temps:          1       0       0       0       0       0       0       0       0
  1405 ;;      Totals:         1       0       0       0       0       0       0       0       0
  1406 ;;Total ram usage:        1 bytes
  1407 ;; Hardware stack levels used: 1
  1408 ;; This function calls:
  1409 ;;		Nothing
  1410 ;; This function is called by:
  1411 ;;		_PedirDato
  1412 ;; This function uses a non-reentrant model
  1413 ;;
  1414                           
  1415                           	psect	text6
  1416  000B32                     __ptext6:
  1417                           	callstack 0
  1418  000B32                     _keyfind:
  1419                           	callstack 28
  1420  000B32                     
  1421                           ;keypad.c: 24:          TRISB = 0xf0;
  1422  000B32  0EF0               	movlw	240
  1423  000B34  6E93               	movwf	147,c	;volatile
  1424                           
  1425                           ;keypad.c: 25:          LATB = 0xf0;
  1426  000B36  0EF0               	movlw	240
  1427  000B38  6E8A               	movwf	138,c	;volatile
  1428  000B3A                     l2138:
  1429                           
  1430                           ;keypad.c: 29:         {;keypad.c: 31:             col_loc = PORTB & 0xf0;
  1431  000B3A  5081               	movf	129,w,c	;volatile
  1432  000B3C  0BF0               	andlw	240
  1433  000B3E  0100               	movlb	0	; () banked
  1434  000B40  6F74               	movwf	_col_loc& (0+255),b
  1435  000B42                     
  1436                           ; BSR set to: 0
  1437                           ;keypad.c: 33:         }while(col_loc!=0xf0);
  1438  000B42  0EF0               	movlw	240
  1439  000B44  1974               	xorwf	_col_loc& (0+255),w,b
  1440  000B46  A4D8               	btfss	status,2,c
  1441  000B48  EFA8  F005         	goto	u1381
  1442  000B4C  EFAA  F005         	goto	u1380
  1443  000B50                     u1381:
  1444  000B50  EF9D  F005         	goto	l2138
  1445  000B54                     u1380:
  1446  000B54                     
  1447                           ; BSR set to: 0
  1448                           ;keypad.c: 34:          col_loc = PORTB & 0xf0;
  1449  000B54  5081               	movf	129,w,c	;volatile
  1450  000B56  0BF0               	andlw	240
  1451  000B58  6F74               	movwf	_col_loc& (0+255),b
  1452                           
  1453                           ;keypad.c: 35:       }while(col_loc!=0xf0);
  1454  000B5A  0EF0               	movlw	240
  1455  000B5C  1974               	xorwf	_col_loc& (0+255),w,b
  1456  000B5E  A4D8               	btfss	status,2,c
  1457  000B60  EFB4  F005         	goto	u1391
  1458  000B64  EFB6  F005         	goto	u1390
  1459  000B68                     u1391:
  1460  000B68  EF9D  F005         	goto	l2138
  1461  000B6C                     u1390:
  1462  000B6C                     
  1463                           ; BSR set to: 0
  1464                           ;keypad.c: 37:       _delay((unsigned long)((30)*(8000000L/4000.0)));
  1465  000B6C  0E4E               	movlw	78
  1466  000B6E  6E01               	movwf	??_keyfind^0,c
  1467  000B70  0EEB               	movlw	235
  1468  000B72                     u1867:
  1469  000B72  2EE8               	decfsz	wreg,f,c
  1470  000B74  D7FE               	bra	u1867
  1471  000B76  2E01               	decfsz	??_keyfind^0,f,c
  1472  000B78  D7FC               	bra	u1867
  1473  000B7A  F000               	nop	
  1474  000B7C                     
  1475                           ;keypad.c: 38:         LATB = 0xf0;
  1476  000B7C  0EF0               	movlw	240
  1477  000B7E  6E8A               	movwf	138,c	;volatile
  1478  000B80                     l2148:
  1479                           
  1480                           ;keypad.c: 42:             {;keypad.c: 43:                 col_loc = PORTB & 0xf0;
  1481  000B80  5081               	movf	129,w,c	;volatile
  1482  000B82  0BF0               	andlw	240
  1483  000B84  0100               	movlb	0	; () banked
  1484  000B86  6F74               	movwf	_col_loc& (0+255),b
  1485  000B88                     
  1486                           ; BSR set to: 0
  1487                           ;keypad.c: 44:             }while(col_loc==0xf0);
  1488  000B88  0EF0               	movlw	240
  1489  000B8A  1974               	xorwf	_col_loc& (0+255),w,b
  1490  000B8C  B4D8               	btfsc	status,2,c
  1491  000B8E  EFCB  F005         	goto	u1401
  1492  000B92  EFCD  F005         	goto	u1400
  1493  000B96                     u1401:
  1494  000B96  EFC0  F005         	goto	l2148
  1495  000B9A                     u1400:
  1496  000B9A                     
  1497                           ; BSR set to: 0
  1498                           ;keypad.c: 45:          col_loc = PORTB & 0xf0;
  1499  000B9A  5081               	movf	129,w,c	;volatile
  1500  000B9C  0BF0               	andlw	240
  1501  000B9E  6F74               	movwf	_col_loc& (0+255),b
  1502                           
  1503                           ;keypad.c: 46:         }while(col_loc==0xf0);
  1504  000BA0  0EF0               	movlw	240
  1505  000BA2  1974               	xorwf	_col_loc& (0+255),w,b
  1506  000BA4  B4D8               	btfsc	status,2,c
  1507  000BA6  EFD7  F005         	goto	u1411
  1508  000BAA  EFD9  F005         	goto	u1410
  1509  000BAE                     u1411:
  1510  000BAE  EFC0  F005         	goto	l2148
  1511  000BB2                     u1410:
  1512  000BB2                     
  1513                           ; BSR set to: 0
  1514                           ;keypad.c: 48:         _delay((unsigned long)((30)*(8000000L/4000.0)));
  1515  000BB2  0E4E               	movlw	78
  1516  000BB4  6E01               	movwf	??_keyfind^0,c
  1517  000BB6  0EEB               	movlw	235
  1518  000BB8                     u1877:
  1519  000BB8  2EE8               	decfsz	wreg,f,c
  1520  000BBA  D7FE               	bra	u1877
  1521  000BBC  2E01               	decfsz	??_keyfind^0,f,c
  1522  000BBE  D7FC               	bra	u1877
  1523  000BC0  F000               	nop	
  1524  000BC2                     
  1525                           ;keypad.c: 50:         col_loc = PORTB & 0xf0;
  1526  000BC2  5081               	movf	129,w,c	;volatile
  1527  000BC4  0BF0               	andlw	240
  1528  000BC6  0100               	movlb	0	; () banked
  1529  000BC8  6F74               	movwf	_col_loc& (0+255),b
  1530  000BCA                     l2158:
  1531                           
  1532                           ; BSR set to: 0
  1533                           ;keypad.c: 55:     {;keypad.c: 56:         LATB = 0xfe;
  1534  000BCA  0EFE               	movlw	254
  1535  000BCC  6E8A               	movwf	138,c	;volatile
  1536  000BCE                     
  1537                           ; BSR set to: 0
  1538                           ;keypad.c: 57:         col_loc = PORTB & 0xf0;
  1539  000BCE  5081               	movf	129,w,c	;volatile
  1540  000BD0  0BF0               	andlw	240
  1541  000BD2  6F74               	movwf	_col_loc& (0+255),b
  1542  000BD4                     
  1543                           ; BSR set to: 0
  1544                           ;keypad.c: 58:         temp_col=col_loc;
  1545  000BD4  C074  F072         	movff	_col_loc,_temp_col
  1546  000BD8                     
  1547                           ; BSR set to: 0
  1548                           ;keypad.c: 59:         if(col_loc!=0xf0)
  1549  000BD8  0EF0               	movlw	240
  1550  000BDA  1974               	xorwf	_col_loc& (0+255),w,b
  1551  000BDC  B4D8               	btfsc	status,2,c
  1552  000BDE  EFF3  F005         	goto	u1421
  1553  000BE2  EFF5  F005         	goto	u1420
  1554  000BE6                     u1421:
  1555  000BE6  EF07  F006         	goto	l2170
  1556  000BEA                     u1420:
  1557  000BEA                     
  1558                           ; BSR set to: 0
  1559                           ;keypad.c: 60:         {;keypad.c: 61:             rowloc=0;
  1560  000BEA  0E00               	movlw	0
  1561  000BEC  6F73               	movwf	_rowloc& (0+255),b
  1562                           
  1563                           ;keypad.c: 62:             while(temp_col!=0xf0)
  1564  000BEE  EFFC  F005         	goto	l166
  1565  000BF2                     l2168:
  1566                           
  1567                           ; BSR set to: 0
  1568                           ;keypad.c: 63:             {;keypad.c: 64:                 temp_col = PORTB & 0xf0;
  1569  000BF2  5081               	movf	129,w,c	;volatile
  1570  000BF4  0BF0               	andlw	240
  1571  000BF6  6F72               	movwf	_temp_col& (0+255),b
  1572  000BF8                     l166:
  1573                           
  1574                           ; BSR set to: 0
  1575                           ;keypad.c: 62:             while(temp_col!=0xf0)
  1576  000BF8  0EF0               	movlw	240
  1577  000BFA  1972               	xorwf	_temp_col& (0+255),w,b
  1578  000BFC  A4D8               	btfss	status,2,c
  1579  000BFE  EF03  F006         	goto	u1431
  1580  000C02  EF05  F006         	goto	u1430
  1581  000C06                     u1431:
  1582  000C06  EFF9  F005         	goto	l2168
  1583  000C0A                     u1430:
  1584  000C0A  EF6D  F006         	goto	l2206
  1585  000C0E                     l2170:
  1586                           
  1587                           ; BSR set to: 0
  1588                           ;keypad.c: 69:         LATB = 0xfd;
  1589  000C0E  0EFD               	movlw	253
  1590  000C10  6E8A               	movwf	138,c	;volatile
  1591  000C12                     
  1592                           ; BSR set to: 0
  1593                           ;keypad.c: 70:         col_loc = PORTB & 0xf0;
  1594  000C12  5081               	movf	129,w,c	;volatile
  1595  000C14  0BF0               	andlw	240
  1596  000C16  6F74               	movwf	_col_loc& (0+255),b
  1597  000C18                     
  1598                           ; BSR set to: 0
  1599                           ;keypad.c: 71:         temp_col=col_loc;
  1600  000C18  C074  F072         	movff	_col_loc,_temp_col
  1601  000C1C                     
  1602                           ; BSR set to: 0
  1603                           ;keypad.c: 72:         if(col_loc!=0xf0)
  1604  000C1C  0EF0               	movlw	240
  1605  000C1E  1974               	xorwf	_col_loc& (0+255),w,b
  1606  000C20  B4D8               	btfsc	status,2,c
  1607  000C22  EF15  F006         	goto	u1441
  1608  000C26  EF17  F006         	goto	u1440
  1609  000C2A                     u1441:
  1610  000C2A  EF29  F006         	goto	l2182
  1611  000C2E                     u1440:
  1612  000C2E                     
  1613                           ; BSR set to: 0
  1614                           ;keypad.c: 73:         {;keypad.c: 74:             rowloc=1;
  1615  000C2E  0E01               	movlw	1
  1616  000C30  6F73               	movwf	_rowloc& (0+255),b
  1617                           
  1618                           ;keypad.c: 75:             while(temp_col!=0xf0)
  1619  000C32  EF1E  F006         	goto	l171
  1620  000C36                     l2180:
  1621                           
  1622                           ; BSR set to: 0
  1623                           ;keypad.c: 76:             {;keypad.c: 77:                 temp_col = PORTB & 0xf0;
  1624  000C36  5081               	movf	129,w,c	;volatile
  1625  000C38  0BF0               	andlw	240
  1626  000C3A  6F72               	movwf	_temp_col& (0+255),b
  1627  000C3C                     l171:
  1628                           
  1629                           ; BSR set to: 0
  1630                           ;keypad.c: 75:             while(temp_col!=0xf0)
  1631  000C3C  0EF0               	movlw	240
  1632  000C3E  1972               	xorwf	_temp_col& (0+255),w,b
  1633  000C40  A4D8               	btfss	status,2,c
  1634  000C42  EF25  F006         	goto	u1451
  1635  000C46  EF27  F006         	goto	u1450
  1636  000C4A                     u1451:
  1637  000C4A  EF1B  F006         	goto	l2180
  1638  000C4E                     u1450:
  1639  000C4E  EF6D  F006         	goto	l2206
  1640  000C52                     l2182:
  1641                           
  1642                           ; BSR set to: 0
  1643                           ;keypad.c: 82:         LATB = 0xfb;
  1644  000C52  0EFB               	movlw	251
  1645  000C54  6E8A               	movwf	138,c	;volatile
  1646  000C56                     
  1647                           ; BSR set to: 0
  1648                           ;keypad.c: 83:         col_loc = PORTB & 0xf0;
  1649  000C56  5081               	movf	129,w,c	;volatile
  1650  000C58  0BF0               	andlw	240
  1651  000C5A  6F74               	movwf	_col_loc& (0+255),b
  1652  000C5C                     
  1653                           ; BSR set to: 0
  1654                           ;keypad.c: 84:         temp_col=col_loc;
  1655  000C5C  C074  F072         	movff	_col_loc,_temp_col
  1656  000C60                     
  1657                           ; BSR set to: 0
  1658                           ;keypad.c: 85:         if(col_loc!=0xf0)
  1659  000C60  0EF0               	movlw	240
  1660  000C62  1974               	xorwf	_col_loc& (0+255),w,b
  1661  000C64  B4D8               	btfsc	status,2,c
  1662  000C66  EF37  F006         	goto	u1461
  1663  000C6A  EF39  F006         	goto	u1460
  1664  000C6E                     u1461:
  1665  000C6E  EF4B  F006         	goto	l2194
  1666  000C72                     u1460:
  1667  000C72                     
  1668                           ; BSR set to: 0
  1669                           ;keypad.c: 86:         {;keypad.c: 87:             rowloc=2;
  1670  000C72  0E02               	movlw	2
  1671  000C74  6F73               	movwf	_rowloc& (0+255),b
  1672                           
  1673                           ;keypad.c: 88:             while(temp_col!=0xf0)
  1674  000C76  EF40  F006         	goto	l175
  1675  000C7A                     l2192:
  1676                           
  1677                           ; BSR set to: 0
  1678                           ;keypad.c: 89:             {;keypad.c: 90:                 temp_col = PORTB & 0xf0;
  1679  000C7A  5081               	movf	129,w,c	;volatile
  1680  000C7C  0BF0               	andlw	240
  1681  000C7E  6F72               	movwf	_temp_col& (0+255),b
  1682  000C80                     l175:
  1683                           
  1684                           ; BSR set to: 0
  1685                           ;keypad.c: 88:             while(temp_col!=0xf0)
  1686  000C80  0EF0               	movlw	240
  1687  000C82  1972               	xorwf	_temp_col& (0+255),w,b
  1688  000C84  A4D8               	btfss	status,2,c
  1689  000C86  EF47  F006         	goto	u1471
  1690  000C8A  EF49  F006         	goto	u1470
  1691  000C8E                     u1471:
  1692  000C8E  EF3D  F006         	goto	l2192
  1693  000C92                     u1470:
  1694  000C92  EF6D  F006         	goto	l2206
  1695  000C96                     l2194:
  1696                           
  1697                           ; BSR set to: 0
  1698                           ;keypad.c: 95:         LATB = 0xf7;
  1699  000C96  0EF7               	movlw	247
  1700  000C98  6E8A               	movwf	138,c	;volatile
  1701  000C9A                     
  1702                           ; BSR set to: 0
  1703                           ;keypad.c: 96:         col_loc = PORTB & 0xf0;
  1704  000C9A  5081               	movf	129,w,c	;volatile
  1705  000C9C  0BF0               	andlw	240
  1706  000C9E  6F74               	movwf	_col_loc& (0+255),b
  1707  000CA0                     
  1708                           ; BSR set to: 0
  1709                           ;keypad.c: 97:         temp_col=col_loc;
  1710  000CA0  C074  F072         	movff	_col_loc,_temp_col
  1711  000CA4                     
  1712                           ; BSR set to: 0
  1713                           ;keypad.c: 98:         if(col_loc!=0xf0)
  1714  000CA4  0EF0               	movlw	240
  1715  000CA6  1974               	xorwf	_col_loc& (0+255),w,b
  1716  000CA8  B4D8               	btfsc	status,2,c
  1717  000CAA  EF59  F006         	goto	u1481
  1718  000CAE  EF5B  F006         	goto	u1480
  1719  000CB2                     u1481:
  1720  000CB2  EFE5  F005         	goto	l2158
  1721  000CB6                     u1480:
  1722  000CB6                     
  1723                           ; BSR set to: 0
  1724                           ;keypad.c: 99:         {;keypad.c: 100:             rowloc=3;
  1725  000CB6  0E03               	movlw	3
  1726  000CB8  6F73               	movwf	_rowloc& (0+255),b
  1727                           
  1728                           ;keypad.c: 101:             while(temp_col!=0xf0)
  1729  000CBA  EF62  F006         	goto	l179
  1730  000CBE                     l2204:
  1731                           
  1732                           ; BSR set to: 0
  1733                           ;keypad.c: 102:             {;keypad.c: 103:                 temp_col = PORTB & 0xf0;
  1734  000CBE  5081               	movf	129,w,c	;volatile
  1735  000CC0  0BF0               	andlw	240
  1736  000CC2  6F72               	movwf	_temp_col& (0+255),b
  1737  000CC4                     l179:
  1738                           
  1739                           ; BSR set to: 0
  1740                           ;keypad.c: 101:             while(temp_col!=0xf0)
  1741  000CC4  0EF0               	movlw	240
  1742  000CC6  1972               	xorwf	_temp_col& (0+255),w,b
  1743  000CC8  A4D8               	btfss	status,2,c
  1744  000CCA  EF69  F006         	goto	u1491
  1745  000CCE  EF6B  F006         	goto	u1490
  1746  000CD2                     u1491:
  1747  000CD2  EF5F  F006         	goto	l2204
  1748  000CD6                     u1490:
  1749  000CD6  EF6D  F006         	goto	l2206
  1750  000CDA                     l169:
  1751  000CDA                     l2206:
  1752                           
  1753                           ; BSR set to: 0
  1754                           ;keypad.c: 112:     {;keypad.c: 114:         if(col_loc==0xe0)
  1755  000CDA  0EE0               	movlw	224
  1756  000CDC  1974               	xorwf	_col_loc& (0+255),w,b
  1757  000CDE  A4D8               	btfss	status,2,c
  1758  000CE0  EF74  F006         	goto	u1501
  1759  000CE4  EF76  F006         	goto	u1500
  1760  000CE8                     u1501:
  1761  000CE8  EF81  F006         	goto	l2214
  1762  000CEC                     u1500:
  1763  000CEC                     
  1764                           ; BSR set to: 0
  1765                           ;keypad.c: 115:         {;keypad.c: 116:              return keypad[rowloc][0];
  1766  000CEC  5173               	movf	_rowloc& (0+255),w,b
  1767  000CEE  0D03               	mullw	3
  1768  000CF0  0EA7               	movlw	low _keypad
  1769  000CF2  24F3               	addwf	243,w,c
  1770  000CF4  6ED9               	movwf	fsr2l,c
  1771  000CF6  0E00               	movlw	high _keypad
  1772  000CF8  20F4               	addwfc	prodh,w,c
  1773  000CFA  6EDA               	movwf	fsr2h,c
  1774  000CFC  50DF               	movf	indf2,w,c
  1775  000CFE  EFA7  F006         	goto	l185
  1776  000D02                     l2214:
  1777                           
  1778                           ; BSR set to: 0
  1779                           ;keypad.c: 119:             if(col_loc==0xd0)
  1780  000D02  0ED0               	movlw	208
  1781  000D04  1974               	xorwf	_col_loc& (0+255),w,b
  1782  000D06  A4D8               	btfss	status,2,c
  1783  000D08  EF88  F006         	goto	u1511
  1784  000D0C  EF8A  F006         	goto	u1510
  1785  000D10                     u1511:
  1786  000D10  EF95  F006         	goto	l2222
  1787  000D14                     u1510:
  1788  000D14                     
  1789                           ; BSR set to: 0
  1790                           ;keypad.c: 120:         {;keypad.c: 121:             return keypad[rowloc][1];
  1791  000D14  5173               	movf	_rowloc& (0+255),w,b
  1792  000D16  0D03               	mullw	3
  1793  000D18  0EA8               	movlw	low (_keypad+1)
  1794  000D1A  24F3               	addwf	243,w,c
  1795  000D1C  6ED9               	movwf	fsr2l,c
  1796  000D1E  0E00               	movlw	high (_keypad+1)
  1797  000D20  20F4               	addwfc	prodh,w,c
  1798  000D22  6EDA               	movwf	fsr2h,c
  1799  000D24  50DF               	movf	indf2,w,c
  1800  000D26  EFA7  F006         	goto	l185
  1801  000D2A                     l2222:
  1802                           
  1803                           ; BSR set to: 0
  1804                           ;keypad.c: 124:             if(col_loc==0xb0)
  1805  000D2A  0EB0               	movlw	176
  1806  000D2C  1974               	xorwf	_col_loc& (0+255),w,b
  1807  000D2E  A4D8               	btfss	status,2,c
  1808  000D30  EF9C  F006         	goto	u1521
  1809  000D34  EF9E  F006         	goto	u1520
  1810  000D38                     u1521:
  1811  000D38  EF6D  F006         	goto	l169
  1812  000D3C                     u1520:
  1813  000D3C                     
  1814                           ; BSR set to: 0
  1815                           ;keypad.c: 125:         {;keypad.c: 126:             return keypad[rowloc][2];
  1816  000D3C  5173               	movf	_rowloc& (0+255),w,b
  1817  000D3E  0D03               	mullw	3
  1818  000D40  0EA9               	movlw	low (_keypad+2)
  1819  000D42  24F3               	addwf	243,w,c
  1820  000D44  6ED9               	movwf	fsr2l,c
  1821  000D46  0E00               	movlw	high (_keypad+2)
  1822  000D48  20F4               	addwfc	prodh,w,c
  1823  000D4A  6EDA               	movwf	fsr2h,c
  1824  000D4C  50DF               	movf	indf2,w,c
  1825  000D4E                     l185:
  1826                           
  1827                           ; BSR set to: 0
  1828  000D4E  0012               	return		;funcret
  1829  000D50                     __end_of_keyfind:
  1830                           	callstack 0
  1831                           
  1832 ;; *************** function _LCD_Clear *****************
  1833 ;; Defined at:
  1834 ;;		line 109 in file "LCD.c"
  1835 ;; Parameters:    Size  Location     Type
  1836 ;;		None
  1837 ;; Auto vars:     Size  Location     Type
  1838 ;;		None
  1839 ;; Return value:  Size  Location     Type
  1840 ;;                  1    wreg      void 
  1841 ;; Registers used:
  1842 ;;		wreg, status,2, status,0, cstack
  1843 ;; Tracked objects:
  1844 ;;		On entry : 0/0
  1845 ;;		On exit  : 0/0
  1846 ;;		Unchanged: 0/0
  1847 ;; Data sizes:     COMRAM   BANK0   BANK1   BANK2   BANK3   BANK4   BANK5   BANK6   BANK7
  1848 ;;      Params:         0       0       0       0       0       0       0       0       0
  1849 ;;      Locals:         0       0       0       0       0       0       0       0       0
  1850 ;;      Temps:          1       0       0       0       0       0       0       0       0
  1851 ;;      Totals:         1       0       0       0       0       0       0       0       0
  1852 ;;Total ram usage:        1 bytes
  1853 ;; Hardware stack levels used: 1
  1854 ;; Hardware stack levels required when called: 1
  1855 ;; This function calls:
  1856 ;;		_LCD_Command
  1857 ;; This function is called by:
  1858 ;;		_PedirDato
  1859 ;; This function uses a non-reentrant model
  1860 ;;
  1861                           
  1862                           	psect	text7
  1863  001E34                     __ptext7:
  1864                           	callstack 0
  1865  001E34                     _LCD_Clear:
  1866                           	callstack 27
  1867  001E34                     
  1868                           ;LCD.c: 111:     LCD_Command(0x01);
  1869  001E34  0E01               	movlw	1
  1870  001E36  EC0B  F00E         	call	_LCD_Command
  1871  001E3A                     
  1872                           ;LCD.c: 112:     _delay((unsigned long)((3)*(8000000L/4000.0)));
  1873  001E3A  0E08               	movlw	8
  1874  001E3C  6E03               	movwf	??_LCD_Clear^0,c
  1875  001E3E  0ECA               	movlw	202
  1876  001E40                     u1887:
  1877  001E40  2EE8               	decfsz	wreg,f,c
  1878  001E42  D7FE               	bra	u1887
  1879  001E44  2E03               	decfsz	??_LCD_Clear^0,f,c
  1880  001E46  D7FC               	bra	u1887
  1881  001E48                     
  1882                           ;LCD.c: 113:     LCD_Command (0x80);
  1883  001E48  0E80               	movlw	128
  1884  001E4A  EC0B  F00E         	call	_LCD_Command
  1885                           
  1886                           ;LCD.c: 114:     _delay((unsigned long)((1)*(8000000L/4000.0)));
  1887  001E4E  0E03               	movlw	3
  1888  001E50  6E03               	movwf	??_LCD_Clear^0,c
  1889  001E52  0E98               	movlw	152
  1890  001E54                     u1897:
  1891  001E54  2EE8               	decfsz	wreg,f,c
  1892  001E56  D7FE               	bra	u1897
  1893  001E58  2E03               	decfsz	??_LCD_Clear^0,f,c
  1894  001E5A  D7FC               	bra	u1897
  1895  001E5C  0012               	return		;funcret
  1896  001E5E                     __end_of_LCD_Clear:
  1897                           	callstack 0
  1898                           
  1899 ;; *************** function _MostrarTemperatura *****************
  1900 ;; Defined at:
  1901 ;;		line 174 in file "LCD.c"
  1902 ;; Parameters:    Size  Location     Type
  1903 ;;  Cadena          2    8[BANK0 ] PTR unsigned char 
  1904 ;;		 -> Cadena(10), 
  1905 ;;  Temperatura     1   10[BANK0 ] unsigned char 
  1906 ;; Auto vars:     Size  Location     Type
  1907 ;;		None
  1908 ;; Return value:  Size  Location     Type
  1909 ;;                  1    wreg      void 
  1910 ;; Registers used:
  1911 ;;		wreg, fsr1l, fsr1h, fsr2l, fsr2h, status,2, status,0, tblptrl, tblptrh, tblptru, cstack
  1912 ;; Tracked objects:
  1913 ;;		On entry : 0/0
  1914 ;;		On exit  : 0/0
  1915 ;;		Unchanged: 0/0
  1916 ;; Data sizes:     COMRAM   BANK0   BANK1   BANK2   BANK3   BANK4   BANK5   BANK6   BANK7
  1917 ;;      Params:         0       3       0       0       0       0       0       0       0
  1918 ;;      Locals:         0       0       0       0       0       0       0       0       0
  1919 ;;      Temps:          0       0       0       0       0       0       0       0       0
  1920 ;;      Totals:         0       3       0       0       0       0       0       0       0
  1921 ;;Total ram usage:        3 bytes
  1922 ;; Hardware stack levels used: 1
  1923 ;; Hardware stack levels required when called: 8
  1924 ;; This function calls:
  1925 ;;		_LCD_Char
  1926 ;;		_LCD_String
  1927 ;;		_LCD_String_xy
  1928 ;;		_sprintf
  1929 ;; This function is called by:
  1930 ;;		_main
  1931 ;; This function uses a non-reentrant model
  1932 ;;
  1933                           
  1934                           	psect	text8
  1935  001922                     __ptext8:
  1936                           	callstack 0
  1937  001922                     _MostrarTemperatura:
  1938                           	callstack 22
  1939  001922                     
  1940                           ;LCD.c: 175:        sprintf(Cadena,"%d",Temperatura);
  1941  001922  C0BC  F058         	movff	MostrarTemperatura@Cadena,sprintf@s
  1942  001926  C0BD  F059         	movff	MostrarTemperatura@Cadena+1,sprintf@s+1
  1943  00192A  0E4B               	movlw	low (STR_6+1)
  1944  00192C  6E5A               	movwf	sprintf@fmt^0,c
  1945  00192E  0E08               	movlw	high (STR_6+1)
  1946  001930  6E5B               	movwf	(sprintf@fmt+1)^0,c
  1947  001932  C0BE  F05C         	movff	MostrarTemperatura@Temperatura,?_sprintf+4
  1948  001936  6A5D               	clrf	(?_sprintf+5)^0,c
  1949  001938  ECBA  F00D         	call	_sprintf	;wreg free
  1950  00193C                     
  1951                           ;LCD.c: 176:        LCD_String_xy(2,0,Cadena);
  1952  00193C  0E00               	movlw	0
  1953  00193E  6E05               	movwf	LCD_String_xy@pos^0,c
  1954  001940  C0BC  F006         	movff	MostrarTemperatura@Cadena,LCD_String_xy@msg
  1955  001944  C0BD  F007         	movff	MostrarTemperatura@Cadena+1,LCD_String_xy@msg+1
  1956  001948  0E02               	movlw	2
  1957  00194A  EC75  F00E         	call	_LCD_String_xy
  1958  00194E                     
  1959                           ;LCD.c: 177:        sprintf(Cadena,".%d",0);
  1960  00194E  C0BC  F058         	movff	MostrarTemperatura@Cadena,sprintf@s
  1961  001952  C0BD  F059         	movff	MostrarTemperatura@Cadena+1,sprintf@s+1
  1962  001956  0E4A               	movlw	low STR_6
  1963  001958  6E5A               	movwf	sprintf@fmt^0,c
  1964  00195A  0E08               	movlw	high STR_6
  1965  00195C  6E5B               	movwf	(sprintf@fmt+1)^0,c
  1966  00195E  0E00               	movlw	0
  1967  001960  6E5D               	movwf	(?_sprintf+5)^0,c
  1968  001962  0E00               	movlw	0
  1969  001964  6E5C               	movwf	(?_sprintf+4)^0,c
  1970  001966  ECBA  F00D         	call	_sprintf	;wreg free
  1971  00196A                     
  1972                           ;LCD.c: 178:        LCD_Char(0xdf);
  1973  00196A  0EDF               	movlw	223
  1974  00196C  ECE3  F00D         	call	_LCD_Char
  1975  001970                     
  1976                           ;LCD.c: 179:        sprintf(Cadena,"C Temp.");
  1977  001970  C0BC  F058         	movff	MostrarTemperatura@Cadena,sprintf@s
  1978  001974  C0BD  F059         	movff	MostrarTemperatura@Cadena+1,sprintf@s+1
  1979  001978  0E3B               	movlw	low STR_10
  1980  00197A  6E5A               	movwf	sprintf@fmt^0,c
  1981  00197C  0E08               	movlw	high STR_10
  1982  00197E  6E5B               	movwf	(sprintf@fmt+1)^0,c
  1983  001980  ECBA  F00D         	call	_sprintf	;wreg free
  1984  001984                     
  1985                           ;LCD.c: 180:        LCD_String(Cadena);
  1986  001984  C0BC  F003         	movff	MostrarTemperatura@Cadena,LCD_String@msg
  1987  001988  C0BD  F004         	movff	MostrarTemperatura@Cadena+1,LCD_String@msg+1
  1988  00198C  EC32  F00D         	call	_LCD_String	;wreg free
  1989  001990  0012               	return		;funcret
  1990  001992                     __end_of_MostrarTemperatura:
  1991                           	callstack 0
  1992                           
  1993 ;; *************** function _MostrarHumedad *****************
  1994 ;; Defined at:
  1995 ;;		line 163 in file "LCD.c"
  1996 ;; Parameters:    Size  Location     Type
  1997 ;;  Cadena          2    8[BANK0 ] PTR unsigned char 
  1998 ;;		 -> Cadena(10), 
  1999 ;;  Humedad         1   10[BANK0 ] unsigned char 
  2000 ;; Auto vars:     Size  Location     Type
  2001 ;;		None
  2002 ;; Return value:  Size  Location     Type
  2003 ;;                  1    wreg      void 
  2004 ;; Registers used:
  2005 ;;		wreg, fsr1l, fsr1h, fsr2l, fsr2h, status,2, status,0, tblptrl, tblptrh, tblptru, cstack
  2006 ;; Tracked objects:
  2007 ;;		On entry : 0/0
  2008 ;;		On exit  : 0/0
  2009 ;;		Unchanged: 0/0
  2010 ;; Data sizes:     COMRAM   BANK0   BANK1   BANK2   BANK3   BANK4   BANK5   BANK6   BANK7
  2011 ;;      Params:         0       3       0       0       0       0       0       0       0
  2012 ;;      Locals:         0       0       0       0       0       0       0       0       0
  2013 ;;      Temps:          0       0       0       0       0       0       0       0       0
  2014 ;;      Totals:         0       3       0       0       0       0       0       0       0
  2015 ;;Total ram usage:        3 bytes
  2016 ;; Hardware stack levels used: 1
  2017 ;; Hardware stack levels required when called: 8
  2018 ;; This function calls:
  2019 ;;		_LCD_Char
  2020 ;;		_LCD_String
  2021 ;;		_LCD_String_xy
  2022 ;;		_sprintf
  2023 ;; This function is called by:
  2024 ;;		_main
  2025 ;; This function uses a non-reentrant model
  2026 ;;
  2027                           
  2028                           	psect	text9
  2029  001992                     __ptext9:
  2030                           	callstack 0
  2031  001992                     _MostrarHumedad:
  2032                           	callstack 22
  2033  001992                     
  2034                           ;LCD.c: 164:         sprintf(Cadena,"%d",Humedad);
  2035  001992  C0BC  F058         	movff	MostrarHumedad@Cadena,sprintf@s
  2036  001996  C0BD  F059         	movff	MostrarHumedad@Cadena+1,sprintf@s+1
  2037  00199A  0E4B               	movlw	low (STR_6+1)
  2038  00199C  6E5A               	movwf	sprintf@fmt^0,c
  2039  00199E  0E08               	movlw	high (STR_6+1)
  2040  0019A0  6E5B               	movwf	(sprintf@fmt+1)^0,c
  2041  0019A2  C0BE  F05C         	movff	MostrarHumedad@Humedad,?_sprintf+4
  2042  0019A6  6A5D               	clrf	(?_sprintf+5)^0,c
  2043  0019A8  ECBA  F00D         	call	_sprintf	;wreg free
  2044  0019AC                     
  2045                           ;LCD.c: 165:         LCD_String_xy(0,0,Cadena);
  2046  0019AC  0E00               	movlw	0
  2047  0019AE  6E05               	movwf	LCD_String_xy@pos^0,c
  2048  0019B0  C0BC  F006         	movff	MostrarHumedad@Cadena,LCD_String_xy@msg
  2049  0019B4  C0BD  F007         	movff	MostrarHumedad@Cadena+1,LCD_String_xy@msg+1
  2050  0019B8  0E00               	movlw	0
  2051  0019BA  EC75  F00E         	call	_LCD_String_xy
  2052  0019BE                     
  2053                           ;LCD.c: 166:         sprintf(Cadena,".%d",0);
  2054  0019BE  C0BC  F058         	movff	MostrarHumedad@Cadena,sprintf@s
  2055  0019C2  C0BD  F059         	movff	MostrarHumedad@Cadena+1,sprintf@s+1
  2056  0019C6  0E4A               	movlw	low STR_6
  2057  0019C8  6E5A               	movwf	sprintf@fmt^0,c
  2058  0019CA  0E08               	movlw	high STR_6
  2059  0019CC  6E5B               	movwf	(sprintf@fmt+1)^0,c
  2060  0019CE  0E00               	movlw	0
  2061  0019D0  6E5D               	movwf	(?_sprintf+5)^0,c
  2062  0019D2  0E00               	movlw	0
  2063  0019D4  6E5C               	movwf	(?_sprintf+4)^0,c
  2064  0019D6  ECBA  F00D         	call	_sprintf	;wreg free
  2065  0019DA                     
  2066                           ;LCD.c: 167:         LCD_Char('%');
  2067  0019DA  0E25               	movlw	37
  2068  0019DC  ECE3  F00D         	call	_LCD_Char
  2069  0019E0                     
  2070                           ;LCD.c: 168:         sprintf(Cadena,"  Hum.");
  2071  0019E0  C0BC  F058         	movff	MostrarHumedad@Cadena,sprintf@s
  2072  0019E4  C0BD  F059         	movff	MostrarHumedad@Cadena+1,sprintf@s+1
  2073  0019E8  0E43               	movlw	low STR_7
  2074  0019EA  6E5A               	movwf	sprintf@fmt^0,c
  2075  0019EC  0E08               	movlw	high STR_7
  2076  0019EE  6E5B               	movwf	(sprintf@fmt+1)^0,c
  2077  0019F0  ECBA  F00D         	call	_sprintf	;wreg free
  2078  0019F4                     
  2079                           ;LCD.c: 169:         LCD_String(Cadena);
  2080  0019F4  C0BC  F003         	movff	MostrarHumedad@Cadena,LCD_String@msg
  2081  0019F8  C0BD  F004         	movff	MostrarHumedad@Cadena+1,LCD_String@msg+1
  2082  0019FC  EC32  F00D         	call	_LCD_String	;wreg free
  2083  001A00  0012               	return		;funcret
  2084  001A02                     __end_of_MostrarHumedad:
  2085                           	callstack 0
  2086                           
  2087 ;; *************** function _sprintf *****************
  2088 ;; Defined at:
  2089 ;;		line 9 in file "D:\XC8 compilador para el MPLAB\pic\sources\c99\common\nf_sprintf.c"
  2090 ;; Parameters:    Size  Location     Type
  2091 ;;  s               2   87[COMRAM] PTR unsigned char 
  2092 ;;		 -> Cadena(10), 
  2093 ;;  fmt             2   89[COMRAM] PTR const unsigned char 
  2094 ;;		 -> STR_10(8), STR_9(4), STR_8(3), STR_7(7), 
  2095 ;;		 -> STR_6(4), STR_5(3), 
  2096 ;; Auto vars:     Size  Location     Type
  2097 ;;  f               6    2[BANK0 ] struct _IO_FILE
  2098 ;;  ap              2    0[BANK0 ] PTR void [1]
  2099 ;;		 -> ?_sprintf(2), 
  2100 ;;  ret             2    0        int 
  2101 ;; Return value:  Size  Location     Type
  2102 ;;                  2   87[COMRAM] int 
  2103 ;; Registers used:
  2104 ;;		wreg, fsr1l, fsr1h, fsr2l, fsr2h, status,2, status,0, tblptrl, tblptrh, tblptru, cstack
  2105 ;; Tracked objects:
  2106 ;;		On entry : 0/0
  2107 ;;		On exit  : 0/0
  2108 ;;		Unchanged: 0/0
  2109 ;; Data sizes:     COMRAM   BANK0   BANK1   BANK2   BANK3   BANK4   BANK5   BANK6   BANK7
  2110 ;;      Params:         6       0       0       0       0       0       0       0       0
  2111 ;;      Locals:         0       8       0       0       0       0       0       0       0
  2112 ;;      Temps:          0       0       0       0       0       0       0       0       0
  2113 ;;      Totals:         6       8       0       0       0       0       0       0       0
  2114 ;;Total ram usage:       14 bytes
  2115 ;; Hardware stack levels used: 1
  2116 ;; Hardware stack levels required when called: 7
  2117 ;; This function calls:
  2118 ;;		_vfprintf
  2119 ;; This function is called by:
  2120 ;;		_MostrarHumedad
  2121 ;;		_MostrarTemperatura
  2122 ;; This function uses a non-reentrant model
  2123 ;;
  2124                           
  2125                           	psect	text10
  2126  001B74                     __ptext10:
  2127                           	callstack 0
  2128  001B74                     _sprintf:
  2129                           	callstack 22
  2130  001B74  0E5C               	movlw	low (?_sprintf+4)
  2131  001B76  0100               	movlb	0	; () banked
  2132  001B78  6FB4               	movwf	sprintf@ap& (0+255),b
  2133  001B7A  0E00               	movlw	high (?_sprintf+4)
  2134  001B7C  6FB5               	movwf	(sprintf@ap+1)& (0+255),b
  2135  001B7E  C058  F0B6         	movff	sprintf@s,sprintf@f
  2136  001B82  C059  F0B7         	movff	sprintf@s+1,sprintf@f+1
  2137  001B86                     
  2138                           ; BSR set to: 0
  2139  001B86  0E00               	movlw	0
  2140  001B88  6FB9               	movwf	(sprintf@f+3)& (0+255),b
  2141  001B8A  0E00               	movlw	0
  2142  001B8C  6FB8               	movwf	(sprintf@f+2)& (0+255),b
  2143  001B8E                     
  2144                           ; BSR set to: 0
  2145  001B8E  0E00               	movlw	0
  2146  001B90  6FBB               	movwf	(sprintf@f+5)& (0+255),b
  2147  001B92  0E00               	movlw	0
  2148  001B94  6FBA               	movwf	(sprintf@f+4)& (0+255),b
  2149  001B96                     
  2150                           ; BSR set to: 0
  2151  001B96  0EB6               	movlw	low sprintf@f
  2152  001B98  6E50               	movwf	vfprintf@fp^0,c
  2153  001B9A  0E00               	movlw	high sprintf@f
  2154  001B9C  6E51               	movwf	(vfprintf@fp+1)^0,c
  2155  001B9E  C05A  F052         	movff	sprintf@fmt,vfprintf@fmt
  2156  001BA2  C05B  F053         	movff	sprintf@fmt+1,vfprintf@fmt+1
  2157  001BA6  0EB4               	movlw	low sprintf@ap
  2158  001BA8  6E54               	movwf	vfprintf@ap^0,c
  2159  001BAA  0E00               	movlw	high sprintf@ap
  2160  001BAC  6E55               	movwf	(vfprintf@ap+1)^0,c
  2161  001BAE  EC01  F00D         	call	_vfprintf	;wreg free
  2162  001BB2  0100               	movlb	0	; () banked
  2163  001BB4  51B8               	movf	(sprintf@f+2)& (0+255),w,b
  2164  001BB6  2458               	addwf	sprintf@s^0,w,c
  2165  001BB8  6ED9               	movwf	fsr2l,c
  2166  001BBA  51B9               	movf	(sprintf@f+3)& (0+255),w,b
  2167  001BBC  2059               	addwfc	(sprintf@s+1)^0,w,c
  2168  001BBE  6EDA               	movwf	fsr2h,c
  2169  001BC0  0E00               	movlw	0
  2170  001BC2  6EDF               	movwf	indf2,c
  2171  001BC4                     
  2172                           ; BSR set to: 0
  2173  001BC4  0012               	return		;funcret
  2174  001BC6                     __end_of_sprintf:
  2175                           	callstack 0
  2176                           
  2177 ;; *************** function _vfprintf *****************
  2178 ;; Defined at:
  2179 ;;		line 1390 in file "D:\XC8 compilador para el MPLAB\pic\sources\c99\common\doprnt.c"
  2180 ;; Parameters:    Size  Location     Type
  2181 ;;  fp              2   79[COMRAM] PTR struct _IO_FILE
  2182 ;;		 -> sprintf@f(6), 
  2183 ;;  fmt             2   81[COMRAM] PTR const unsigned char 
  2184 ;;		 -> STR_10(8), STR_9(4), STR_8(3), STR_7(7), 
  2185 ;;		 -> STR_6(4), STR_5(3), 
  2186 ;;  ap              2   83[COMRAM] PTR PTR void 
  2187 ;;		 -> sprintf@ap(2), 
  2188 ;; Auto vars:     Size  Location     Type
  2189 ;;  cfmt            2   85[COMRAM] PTR unsigned char 
  2190 ;;		 -> STR_10(8), STR_9(4), STR_8(3), STR_7(7), 
  2191 ;;		 -> STR_6(4), STR_5(3), 
  2192 ;; Return value:  Size  Location     Type
  2193 ;;                  2   79[COMRAM] int 
  2194 ;; Registers used:
  2195 ;;		wreg, fsr1l, fsr1h, fsr2l, fsr2h, status,2, status,0, tblptrl, tblptrh, tblptru, cstack
  2196 ;; Tracked objects:
  2197 ;;		On entry : 0/0
  2198 ;;		On exit  : 0/0
  2199 ;;		Unchanged: 0/0
  2200 ;; Data sizes:     COMRAM   BANK0   BANK1   BANK2   BANK3   BANK4   BANK5   BANK6   BANK7
  2201 ;;      Params:         6       0       0       0       0       0       0       0       0
  2202 ;;      Locals:         2       0       0       0       0       0       0       0       0
  2203 ;;      Temps:          0       0       0       0       0       0       0       0       0
  2204 ;;      Totals:         8       0       0       0       0       0       0       0       0
  2205 ;;Total ram usage:        8 bytes
  2206 ;; Hardware stack levels used: 1
  2207 ;; Hardware stack levels required when called: 6
  2208 ;; This function calls:
  2209 ;;		_vfpfcnvrt
  2210 ;; This function is called by:
  2211 ;;		_sprintf
  2212 ;; This function uses a non-reentrant model
  2213 ;;
  2214                           
  2215                           	psect	text11
  2216  001A02                     __ptext11:
  2217                           	callstack 0
  2218  001A02                     _vfprintf:
  2219                           	callstack 22
  2220  001A02                     
  2221                           ;D:\XC8 compilador para el MPLAB\pic\sources\c99\common\doprnt.c: 1390: int vfprintf(FIL
      +                          E *fp, const char *fmt, va_list ap);D:\XC8 compilador para el MPLAB\pic\sources\c99\comm
      +                          on\doprnt.c: 1391: {;D:\XC8 compilador para el MPLAB\pic\sources\c99\common\doprnt.c: 13
      +                          93:     char *cfmt;;D:\XC8 compilador para el MPLAB\pic\sources\c99\common\doprnt.c: 139
      +                          5:     cfmt = (char *)fmt;
  2222  001A02  C052  F056         	movff	vfprintf@fmt,vfprintf@cfmt
  2223  001A06  C053  F057         	movff	vfprintf@fmt+1,vfprintf@cfmt+1
  2224  001A0A                     
  2225                           ;D:\XC8 compilador para el MPLAB\pic\sources\c99\common\doprnt.c: 1396:     nout = 0;
  2226  001A0A  0E00               	movlw	0
  2227  001A0C  0100               	movlb	0	; () banked
  2228  001A0E  6F61               	movwf	(_nout+1)& (0+255),b
  2229  001A10  0E00               	movlw	0
  2230  001A12  6F60               	movwf	_nout& (0+255),b
  2231                           
  2232                           ;D:\XC8 compilador para el MPLAB\pic\sources\c99\common\doprnt.c: 1397:     while (*cfmt
      +                          ) {
  2233  001A14  EF1F  F00D         	goto	l2236
  2234  001A18                     l2234:
  2235                           
  2236                           ; BSR set to: 0
  2237                           ;D:\XC8 compilador para el MPLAB\pic\sources\c99\common\doprnt.c: 1398:         nout += 
      +                          vfpfcnvrt(fp, &cfmt, ap);
  2238  001A18  C050  F040         	movff	vfprintf@fp,vfpfcnvrt@fp
  2239  001A1C  C051  F041         	movff	vfprintf@fp+1,vfpfcnvrt@fp+1
  2240  001A20  0E56               	movlw	low vfprintf@cfmt
  2241  001A22  6E42               	movwf	vfpfcnvrt@fmt^0,c
  2242  001A24  0E00               	movlw	high vfprintf@cfmt
  2243  001A26  6E43               	movwf	(vfpfcnvrt@fmt+1)^0,c
  2244  001A28  C054  F044         	movff	vfprintf@ap,vfpfcnvrt@ap
  2245  001A2C  C055  F045         	movff	vfprintf@ap+1,vfpfcnvrt@ap+1
  2246  001A30  ECA8  F006         	call	_vfpfcnvrt	;wreg free
  2247  001A34  5040               	movf	?_vfpfcnvrt^0,w,c
  2248  001A36  0100               	movlb	0	; () banked
  2249  001A38  2760               	addwf	_nout& (0+255),f,b
  2250  001A3A  5041               	movf	(?_vfpfcnvrt+1)^0,w,c
  2251  001A3C  2361               	addwfc	(_nout+1)& (0+255),f,b
  2252  001A3E                     l2236:
  2253                           
  2254                           ; BSR set to: 0
  2255                           ;D:\XC8 compilador para el MPLAB\pic\sources\c99\common\doprnt.c: 1397:     while (*cfmt
      +                          ) {
  2256  001A3E  C056  FFF6         	movff	vfprintf@cfmt,tblptrl
  2257  001A42  C057  FFF7         	movff	vfprintf@cfmt+1,tblptrh
  2258  001A46                     	if	0	;tblptru may be non-zero
  2259  001A46                     	endif
  2260  001A46                     	if	0	;tblptru may be non-zero
  2261  001A46                     	endif
  2262  001A46  0008               	tblrd		*
  2263  001A48  50F5               	movf	tablat,w,c
  2264  001A4A  0900               	iorlw	0
  2265  001A4C  A4D8               	btfss	status,2,c
  2266  001A4E  EF2B  F00D         	goto	u1531
  2267  001A52  EF2D  F00D         	goto	u1530
  2268  001A56                     u1531:
  2269  001A56  EF0C  F00D         	goto	l2234
  2270  001A5A                     u1530:
  2271  001A5A                     
  2272                           ; BSR set to: 0
  2273                           ;D:\XC8 compilador para el MPLAB\pic\sources\c99\common\doprnt.c: 1400:     return nout;
  2274  001A5A  C060  F050         	movff	_nout,?_vfprintf
  2275  001A5E  C061  F051         	movff	_nout+1,?_vfprintf+1
  2276  001A62                     
  2277                           ; BSR set to: 0
  2278  001A62  0012               	return		;funcret
  2279  001A64                     __end_of_vfprintf:
  2280                           	callstack 0
  2281                           
  2282 ;; *************** function _vfpfcnvrt *****************
  2283 ;; Defined at:
  2284 ;;		line 692 in file "D:\XC8 compilador para el MPLAB\pic\sources\c99\common\doprnt.c"
  2285 ;; Parameters:    Size  Location     Type
  2286 ;;  fp              2   63[COMRAM] PTR struct _IO_FILE
  2287 ;;		 -> sprintf@f(6), 
  2288 ;;  fmt             2   65[COMRAM] PTR PTR unsigned char 
  2289 ;;		 -> vfprintf@cfmt(2), 
  2290 ;;  ap              2   67[COMRAM] PTR PTR void 
  2291 ;;		 -> sprintf@ap(2), 
  2292 ;; Auto vars:     Size  Location     Type
  2293 ;;  ll              8   71[COMRAM] long long 
  2294 ;;  llu             8    0        unsigned long long 
  2295 ;;  f               4    0        unsigned long long 
  2296 ;;  vp              3    0        PTR void 
  2297 ;;  ct              3    0        unsigned char [3]
  2298 ;;  cp              3    0        PTR unsigned char 
  2299 ;;  i               2    0        int 
  2300 ;;  done            2    0        int 
  2301 ;;  c               1    0        unsigned char 
  2302 ;; Return value:  Size  Location     Type
  2303 ;;                  2   63[COMRAM] int 
  2304 ;; Registers used:
  2305 ;;		wreg, fsr1l, fsr1h, fsr2l, fsr2h, status,2, status,0, tblptrl, tblptrh, tblptru, cstack
  2306 ;; Tracked objects:
  2307 ;;		On entry : 0/0
  2308 ;;		On exit  : 0/0
  2309 ;;		Unchanged: 0/0
  2310 ;; Data sizes:     COMRAM   BANK0   BANK1   BANK2   BANK3   BANK4   BANK5   BANK6   BANK7
  2311 ;;      Params:         6       0       0       0       0       0       0       0       0
  2312 ;;      Locals:         8       0       0       0       0       0       0       0       0
  2313 ;;      Temps:          2       0       0       0       0       0       0       0       0
  2314 ;;      Totals:        16       0       0       0       0       0       0       0       0
  2315 ;;Total ram usage:       16 bytes
  2316 ;; Hardware stack levels used: 1
  2317 ;; Hardware stack levels required when called: 5
  2318 ;; This function calls:
  2319 ;;		_dtoa
  2320 ;;		_fputc
  2321 ;; This function is called by:
  2322 ;;		_vfprintf
  2323 ;; This function uses a non-reentrant model
  2324 ;;
  2325                           
  2326                           	psect	text12
  2327  000D50                     __ptext12:
  2328                           	callstack 0
  2329  000D50                     _vfpfcnvrt:
  2330                           	callstack 22
  2331  000D50                     
  2332                           ;D:\XC8 compilador para el MPLAB\pic\sources\c99\common\doprnt.c: 692: static int vfpfcn
      +                          vrt(FILE *fp, char *fmt[], va_list ap);D:\XC8 compilador para el MPLAB\pic\sources\c99\c
      +                          ommon\doprnt.c: 693: {;D:\XC8 compilador para el MPLAB\pic\sources\c99\common\doprnt.c: 
      +                          694:     char c, *cp, ct[3];;D:\XC8 compilador para el MPLAB\pic\sources\c99\common\dopr
      +                          nt.c: 695:     int done, i;;D:\XC8 compilador para el MPLAB\pic\sources\c99\common\doprn
      +                          t.c: 696:     long long ll;;D:\XC8 compilador para el MPLAB\pic\sources\c99\common\doprn
      +                          t.c: 697:     unsigned long long llu;
  2333  000D50  C042  FFD9         	movff	vfpfcnvrt@fmt,fsr2l
  2334  000D54  C043  FFDA         	movff	vfpfcnvrt@fmt+1,fsr2h
  2335  000D58  CFDE FFF6          	movff	postinc2,tblptrl
  2336  000D5C  CFDD FFF7          	movff	postdec2,tblptrh
  2337  000D60                     	if	0	;tblptru may be non-zero
  2338  000D60                     	endif
  2339  000D60                     	if	0	;tblptru may be non-zero
  2340  000D60                     	endif
  2341  000D60  0008               	tblrd		*
  2342  000D62  50F5               	movf	tablat,w,c
  2343  000D64  0A25               	xorlw	37
  2344  000D66  A4D8               	btfss	status,2,c
  2345  000D68  EFB8  F006         	goto	u1331
  2346  000D6C  EFBA  F006         	goto	u1330
  2347  000D70                     u1331:
  2348  000D70  EF66  F007         	goto	l2106
  2349  000D74                     u1330:
  2350  000D74                     
  2351                           ;D:\XC8 compilador para el MPLAB\pic\sources\c99\common\doprnt.c: 703:         ++*fmt;
  2352  000D74  C042  FFD9         	movff	vfpfcnvrt@fmt,fsr2l
  2353  000D78  C043  FFDA         	movff	vfpfcnvrt@fmt+1,fsr2h
  2354  000D7C  2ADE               	incf	postinc2,f,c
  2355  000D7E  0E00               	movlw	0
  2356  000D80  22DD               	addwfc	postdec2,f,c
  2357  000D82                     
  2358                           ;D:\XC8 compilador para el MPLAB\pic\sources\c99\common\doprnt.c: 705:         flags = w
      +                          idth = 0;
  2359  000D82  0E00               	movlw	0
  2360  000D84  0100               	movlb	0	; () banked
  2361  000D86  6F63               	movwf	(_width+1)& (0+255),b
  2362  000D88  0E00               	movlw	0
  2363  000D8A  6F62               	movwf	_width& (0+255),b
  2364  000D8C  C062  F066         	movff	_width,_flags
  2365  000D90  C063  F067         	movff	_width+1,_flags+1
  2366  000D94                     
  2367                           ; BSR set to: 0
  2368                           ;D:\XC8 compilador para el MPLAB\pic\sources\c99\common\doprnt.c: 706:         prec = -1
      +                          ;
  2369  000D94  6964               	setf	_prec& (0+255),b
  2370  000D96  6965               	setf	(_prec+1)& (0+255),b
  2371  000D98                     
  2372                           ; BSR set to: 0
  2373                           ;D:\XC8 compilador para el MPLAB\pic\sources\c99\common\doprnt.c: 847:         if ((*fmt
      +                          [0] == 'd') || (*fmt[0] == 'i')) {
  2374  000D98  C042  FFD9         	movff	vfpfcnvrt@fmt,fsr2l
  2375  000D9C  C043  FFDA         	movff	vfpfcnvrt@fmt+1,fsr2h
  2376  000DA0  CFDE FFF6          	movff	postinc2,tblptrl
  2377  000DA4  CFDD FFF7          	movff	postdec2,tblptrh
  2378  000DA8                     	if	0	;tblptru may be non-zero
  2379  000DA8                     	endif
  2380  000DA8                     	if	0	;tblptru may be non-zero
  2381  000DA8                     	endif
  2382  000DA8  0008               	tblrd		*
  2383  000DAA  50F5               	movf	tablat,w,c
  2384  000DAC  0A64               	xorlw	100
  2385  000DAE  B4D8               	btfsc	status,2,c
  2386  000DB0  EFDC  F006         	goto	u1341
  2387  000DB4  EFDE  F006         	goto	u1340
  2388  000DB8                     u1341:
  2389  000DB8  EFF0  F006         	goto	l2084
  2390  000DBC                     u1340:
  2391  000DBC                     
  2392                           ; BSR set to: 0
  2393  000DBC  C042  FFD9         	movff	vfpfcnvrt@fmt,fsr2l
  2394  000DC0  C043  FFDA         	movff	vfpfcnvrt@fmt+1,fsr2h
  2395  000DC4  CFDE FFF6          	movff	postinc2,tblptrl
  2396  000DC8  CFDD FFF7          	movff	postdec2,tblptrh
  2397  000DCC                     	if	0	;tblptru may be non-zero
  2398  000DCC                     	endif
  2399  000DCC                     	if	0	;tblptru may be non-zero
  2400  000DCC                     	endif
  2401  000DCC  0008               	tblrd		*
  2402  000DCE  50F5               	movf	tablat,w,c
  2403  000DD0  0A69               	xorlw	105
  2404  000DD2  A4D8               	btfss	status,2,c
  2405  000DD4  EFEE  F006         	goto	u1351
  2406  000DD8  EFF0  F006         	goto	u1350
  2407  000DDC                     u1351:
  2408  000DDC  EF30  F007         	goto	l2090
  2409  000DE0                     u1350:
  2410  000DE0                     l2084:
  2411                           
  2412                           ; BSR set to: 0
  2413                           ;D:\XC8 compilador para el MPLAB\pic\sources\c99\common\doprnt.c: 849:             ++*fm
      +                          t;
  2414  000DE0  C042  FFD9         	movff	vfpfcnvrt@fmt,fsr2l
  2415  000DE4  C043  FFDA         	movff	vfpfcnvrt@fmt+1,fsr2h
  2416  000DE8  2ADE               	incf	postinc2,f,c
  2417  000DEA  0E00               	movlw	0
  2418  000DEC  22DD               	addwfc	postdec2,f,c
  2419                           
  2420                           ;D:\XC8 compilador para el MPLAB\pic\sources\c99\common\doprnt.c: 850:             ll = 
      +                          (long long)(*(int *)__va_arg(*(int **)ap, (int)0));
  2421  000DEE  C044  FFD9         	movff	vfpfcnvrt@ap,fsr2l
  2422  000DF2  C045  FFDA         	movff	vfpfcnvrt@ap+1,fsr2h
  2423  000DF6  CFDF F046          	movff	indf2,??_vfpfcnvrt
  2424  000DFA  0E02               	movlw	2
  2425  000DFC  26DE               	addwf	postinc2,f,c
  2426  000DFE  CFDF F047          	movff	indf2,??_vfpfcnvrt+1
  2427  000E02  0E00               	movlw	0
  2428  000E04  22DD               	addwfc	postdec2,f,c
  2429  000E06  C046  FFD9         	movff	??_vfpfcnvrt,fsr2l
  2430  000E0A  C047  FFDA         	movff	??_vfpfcnvrt+1,fsr2h
  2431  000E0E  CFDE F048          	movff	postinc2,vfpfcnvrt@ll
  2432  000E12  CFDD F049          	movff	postdec2,vfpfcnvrt@ll+1
  2433  000E16  0E00               	movlw	0
  2434  000E18  BE49               	btfsc	(vfpfcnvrt@ll+1)^0,7,c
  2435  000E1A  0EFF               	movlw	-1
  2436  000E1C  6E4A               	movwf	(vfpfcnvrt@ll+2)^0,c
  2437  000E1E  6E4B               	movwf	(vfpfcnvrt@ll+3)^0,c
  2438  000E20  6E4C               	movwf	(vfpfcnvrt@ll+4)^0,c
  2439  000E22  6E4D               	movwf	(vfpfcnvrt@ll+5)^0,c
  2440  000E24  6E4E               	movwf	(vfpfcnvrt@ll+6)^0,c
  2441  000E26  6E4F               	movwf	(vfpfcnvrt@ll+7)^0,c
  2442  000E28                     
  2443                           ; BSR set to: 0
  2444                           ;D:\XC8 compilador para el MPLAB\pic\sources\c99\common\doprnt.c: 852:             retur
      +                          n dtoa(fp, ll);
  2445  000E28  C040  F01C         	movff	vfpfcnvrt@fp,dtoa@fp
  2446  000E2C  C041  F01D         	movff	vfpfcnvrt@fp+1,dtoa@fp+1
  2447  000E30  C048  F01E         	movff	vfpfcnvrt@ll,dtoa@d
  2448  000E34  C049  F01F         	movff	vfpfcnvrt@ll+1,dtoa@d+1
  2449  000E38  C04A  F020         	movff	vfpfcnvrt@ll+2,dtoa@d+2
  2450  000E3C  C04B  F021         	movff	vfpfcnvrt@ll+3,dtoa@d+3
  2451  000E40  C04C  F022         	movff	vfpfcnvrt@ll+4,dtoa@d+4
  2452  000E44  C04D  F023         	movff	vfpfcnvrt@ll+5,dtoa@d+5
  2453  000E48  C04E  F024         	movff	vfpfcnvrt@ll+6,dtoa@d+6
  2454  000E4C  C04F  F025         	movff	vfpfcnvrt@ll+7,dtoa@d+7
  2455  000E50  EC28  F004         	call	_dtoa	;wreg free
  2456  000E54  C01C  F040         	movff	?_dtoa,?_vfpfcnvrt
  2457  000E58  C01D  F041         	movff	?_dtoa+1,?_vfpfcnvrt+1
  2458  000E5C  EF81  F007         	goto	l1073
  2459  000E60                     l2090:
  2460                           
  2461                           ; BSR set to: 0
  2462                           ;D:\XC8 compilador para el MPLAB\pic\sources\c99\common\doprnt.c: 1372:         if ((*fm
      +                          t)[0] == '%') {
  2463  000E60  C042  FFD9         	movff	vfpfcnvrt@fmt,fsr2l
  2464  000E64  C043  FFDA         	movff	vfpfcnvrt@fmt+1,fsr2h
  2465  000E68  CFDE FFF6          	movff	postinc2,tblptrl
  2466  000E6C  CFDD FFF7          	movff	postdec2,tblptrh
  2467  000E70                     	if	0	;tblptru may be non-zero
  2468  000E70                     	endif
  2469  000E70                     	if	0	;tblptru may be non-zero
  2470  000E70                     	endif
  2471  000E70  0008               	tblrd		*
  2472  000E72  50F5               	movf	tablat,w,c
  2473  000E74  0A25               	xorlw	37
  2474  000E76  A4D8               	btfss	status,2,c
  2475  000E78  EF40  F007         	goto	u1361
  2476  000E7C  EF42  F007         	goto	u1360
  2477  000E80                     u1361:
  2478  000E80  EF59  F007         	goto	l2100
  2479  000E84                     u1360:
  2480  000E84                     
  2481                           ; BSR set to: 0
  2482                           ;D:\XC8 compilador para el MPLAB\pic\sources\c99\common\doprnt.c: 1373:             ++*f
      +                          mt;
  2483  000E84  C042  FFD9         	movff	vfpfcnvrt@fmt,fsr2l
  2484  000E88  C043  FFDA         	movff	vfpfcnvrt@fmt+1,fsr2h
  2485  000E8C  2ADE               	incf	postinc2,f,c
  2486  000E8E  0E00               	movlw	0
  2487  000E90  22DD               	addwfc	postdec2,f,c
  2488  000E92                     
  2489                           ; BSR set to: 0
  2490                           ;D:\XC8 compilador para el MPLAB\pic\sources\c99\common\doprnt.c: 1374:             fput
      +                          c((int)'%', fp);
  2491  000E92  0E00               	movlw	0
  2492  000E94  6E02               	movwf	(fputc@c+1)^0,c
  2493  000E96  0E25               	movlw	37
  2494  000E98  6E01               	movwf	fputc@c^0,c
  2495  000E9A  C040  F003         	movff	vfpfcnvrt@fp,fputc@fp
  2496  000E9E  C041  F004         	movff	vfpfcnvrt@fp+1,fputc@fp+1
  2497  000EA2  EC23  F00A         	call	_fputc	;wreg free
  2498  000EA6                     l2096:
  2499                           
  2500                           ;D:\XC8 compilador para el MPLAB\pic\sources\c99\common\doprnt.c: 1375:             retu
      +                          rn 1;
  2501  000EA6  0E00               	movlw	0
  2502  000EA8  6E41               	movwf	(?_vfpfcnvrt+1)^0,c
  2503  000EAA  0E01               	movlw	1
  2504  000EAC  6E40               	movwf	?_vfpfcnvrt^0,c
  2505  000EAE  EF81  F007         	goto	l1073
  2506  000EB2                     l2100:
  2507                           
  2508                           ; BSR set to: 0
  2509                           ;D:\XC8 compilador para el MPLAB\pic\sources\c99\common\doprnt.c: 1379:         ++*fmt;
  2510  000EB2  C042  FFD9         	movff	vfpfcnvrt@fmt,fsr2l
  2511  000EB6  C043  FFDA         	movff	vfpfcnvrt@fmt+1,fsr2h
  2512  000EBA  2ADE               	incf	postinc2,f,c
  2513  000EBC  0E00               	movlw	0
  2514  000EBE  22DD               	addwfc	postdec2,f,c
  2515  000EC0                     
  2516                           ; BSR set to: 0
  2517                           ;D:\XC8 compilador para el MPLAB\pic\sources\c99\common\doprnt.c: 1380:         return 0
      +                          ;
  2518  000EC0  0E00               	movlw	0
  2519  000EC2  6E41               	movwf	(?_vfpfcnvrt+1)^0,c
  2520  000EC4  0E00               	movlw	0
  2521  000EC6  6E40               	movwf	?_vfpfcnvrt^0,c
  2522  000EC8  EF81  F007         	goto	l1073
  2523  000ECC                     l2106:
  2524                           
  2525                           ;D:\XC8 compilador para el MPLAB\pic\sources\c99\common\doprnt.c: 1384:     fputc((int)(
      +                          *fmt)[0], fp);
  2526  000ECC  C042  FFD9         	movff	vfpfcnvrt@fmt,fsr2l
  2527  000ED0  C043  FFDA         	movff	vfpfcnvrt@fmt+1,fsr2h
  2528  000ED4  CFDE FFF6          	movff	postinc2,tblptrl
  2529  000ED8  CFDD FFF7          	movff	postdec2,tblptrh
  2530  000EDC                     	if	0	;tblptru may be non-zero
  2531  000EDC                     	endif
  2532  000EDC                     	if	0	;tblptru may be non-zero
  2533  000EDC                     	endif
  2534  000EDC  0008               	tblrd		*
  2535  000EDE  50F5               	movf	tablat,w,c
  2536  000EE0  6E01               	movwf	fputc@c^0,c
  2537  000EE2  6A02               	clrf	(fputc@c+1)^0,c
  2538  000EE4  C040  F003         	movff	vfpfcnvrt@fp,fputc@fp
  2539  000EE8  C041  F004         	movff	vfpfcnvrt@fp+1,fputc@fp+1
  2540  000EEC  EC23  F00A         	call	_fputc	;wreg free
  2541  000EF0                     
  2542                           ;D:\XC8 compilador para el MPLAB\pic\sources\c99\common\doprnt.c: 1385:     ++*fmt;
  2543  000EF0  C042  FFD9         	movff	vfpfcnvrt@fmt,fsr2l
  2544  000EF4  C043  FFDA         	movff	vfpfcnvrt@fmt+1,fsr2h
  2545  000EF8  2ADE               	incf	postinc2,f,c
  2546  000EFA  0E00               	movlw	0
  2547  000EFC  22DD               	addwfc	postdec2,f,c
  2548  000EFE  EF53  F007         	goto	l2096
  2549  000F02                     l1073:
  2550  000F02  0012               	return		;funcret
  2551  000F04                     __end_of_vfpfcnvrt:
  2552                           	callstack 0
  2553                           
  2554 ;; *************** function _dtoa *****************
  2555 ;; Defined at:
  2556 ;;		line 287 in file "D:\XC8 compilador para el MPLAB\pic\sources\c99\common\doprnt.c"
  2557 ;; Parameters:    Size  Location     Type
  2558 ;;  fp              2   27[COMRAM] PTR struct _IO_FILE
  2559 ;;		 -> sprintf@f(6), 
  2560 ;;  d               8   29[COMRAM] long long 
  2561 ;; Auto vars:     Size  Location     Type
  2562 ;;  n               8   53[COMRAM] long long 
  2563 ;;  i               2   61[COMRAM] int 
  2564 ;;  s               2   51[COMRAM] int 
  2565 ;;  w               2   49[COMRAM] int 
  2566 ;;  p               2   47[COMRAM] int 
  2567 ;; Return value:  Size  Location     Type
  2568 ;;                  2   27[COMRAM] int 
  2569 ;; Registers used:
  2570 ;;		wreg, fsr1l, fsr1h, fsr2l, fsr2h, status,2, status,0, cstack
  2571 ;; Tracked objects:
  2572 ;;		On entry : 0/0
  2573 ;;		On exit  : 0/0
  2574 ;;		Unchanged: 0/0
  2575 ;; Data sizes:     COMRAM   BANK0   BANK1   BANK2   BANK3   BANK4   BANK5   BANK6   BANK7
  2576 ;;      Params:        10       0       0       0       0       0       0       0       0
  2577 ;;      Locals:        18       0       0       0       0       0       0       0       0
  2578 ;;      Temps:          8       0       0       0       0       0       0       0       0
  2579 ;;      Totals:        36       0       0       0       0       0       0       0       0
  2580 ;;Total ram usage:       36 bytes
  2581 ;; Hardware stack levels used: 1
  2582 ;; Hardware stack levels required when called: 4
  2583 ;; This function calls:
  2584 ;;		___aodiv
  2585 ;;		___aomod
  2586 ;;		_abs
  2587 ;;		_pad
  2588 ;; This function is called by:
  2589 ;;		_vfpfcnvrt
  2590 ;; This function uses a non-reentrant model
  2591 ;;
  2592                           
  2593                           	psect	text13
  2594  000850                     __ptext13:
  2595                           	callstack 0
  2596  000850                     _dtoa:
  2597                           	callstack 22
  2598  000850                     
  2599                           ;D:\XC8 compilador para el MPLAB\pic\sources\c99\common\doprnt.c: 287: static int dtoa(F
      +                          ILE *fp, long long d);D:\XC8 compilador para el MPLAB\pic\sources\c99\common\doprnt.c: 2
      +                          88: {;D:\XC8 compilador para el MPLAB\pic\sources\c99\common\doprnt.c: 289:     int i, p
      +                          , s, w;;D:\XC8 compilador para el MPLAB\pic\sources\c99\common\doprnt.c: 290:     long l
      +                          ong n;;D:\XC8 compilador para el MPLAB\pic\sources\c99\common\doprnt.c: 293:     n = d;
  2600  000850  C01E  F036         	movff	dtoa@d,dtoa@n
  2601  000854  C01F  F037         	movff	dtoa@d+1,dtoa@n+1
  2602  000858  C020  F038         	movff	dtoa@d+2,dtoa@n+2
  2603  00085C  C021  F039         	movff	dtoa@d+3,dtoa@n+3
  2604  000860  C022  F03A         	movff	dtoa@d+4,dtoa@n+4
  2605  000864  C023  F03B         	movff	dtoa@d+5,dtoa@n+5
  2606  000868  C024  F03C         	movff	dtoa@d+6,dtoa@n+6
  2607  00086C  C025  F03D         	movff	dtoa@d+7,dtoa@n+7
  2608  000870                     
  2609                           ;D:\XC8 compilador para el MPLAB\pic\sources\c99\common\doprnt.c: 294:     s = n < 0 ? 1
      +                           : 0;
  2610  000870  BE3D               	btfsc	(dtoa@n+7)^0,7,c
  2611  000872  EF3D  F004         	goto	u1151
  2612  000876  EF40  F004         	goto	u1150
  2613  00087A                     u1151:
  2614  00087A  0E01               	movlw	1
  2615  00087C  EF41  F004         	goto	u1160
  2616  000880                     u1150:
  2617  000880  0E00               	movlw	0
  2618  000882                     u1160:
  2619  000882  6E34               	movwf	dtoa@s^0,c
  2620  000884  6A35               	clrf	(dtoa@s+1)^0,c
  2621                           
  2622                           ;D:\XC8 compilador para el MPLAB\pic\sources\c99\common\doprnt.c: 295:     if (s) {
  2623  000886  5034               	movf	dtoa@s^0,w,c
  2624  000888  1035               	iorwf	(dtoa@s+1)^0,w,c
  2625  00088A  B4D8               	btfsc	status,2,c
  2626  00088C  EF4A  F004         	goto	u1171
  2627  000890  EF4C  F004         	goto	u1170
  2628  000894                     u1171:
  2629  000894  EF5C  F004         	goto	l1988
  2630  000898                     u1170:
  2631  000898                     
  2632                           ;D:\XC8 compilador para el MPLAB\pic\sources\c99\common\doprnt.c: 296:         n = -n;
  2633  000898  1E3D               	comf	(dtoa@n+7)^0,f,c
  2634  00089A  1E3C               	comf	(dtoa@n+6)^0,f,c
  2635  00089C  1E3B               	comf	(dtoa@n+5)^0,f,c
  2636  00089E  1E3A               	comf	(dtoa@n+4)^0,f,c
  2637  0008A0  1E39               	comf	(dtoa@n+3)^0,f,c
  2638  0008A2  1E38               	comf	(dtoa@n+2)^0,f,c
  2639  0008A4  1E37               	comf	(dtoa@n+1)^0,f,c
  2640  0008A6  6C36               	negf	dtoa@n^0,c
  2641  0008A8  0E00               	movlw	0
  2642  0008AA  2237               	addwfc	(dtoa@n+1)^0,f,c
  2643  0008AC  2238               	addwfc	(dtoa@n+2)^0,f,c
  2644  0008AE  2239               	addwfc	(dtoa@n+3)^0,f,c
  2645  0008B0  223A               	addwfc	(dtoa@n+4)^0,f,c
  2646  0008B2  223B               	addwfc	(dtoa@n+5)^0,f,c
  2647  0008B4  223C               	addwfc	(dtoa@n+6)^0,f,c
  2648  0008B6  223D               	addwfc	(dtoa@n+7)^0,f,c
  2649  0008B8                     l1988:
  2650                           
  2651                           ;D:\XC8 compilador para el MPLAB\pic\sources\c99\common\doprnt.c: 300:     if (!(prec < 
      +                          0)) {
  2652  0008B8  0100               	movlb	0	; () banked
  2653  0008BA  BF65               	btfsc	(_prec+1)& (0+255),7,b
  2654  0008BC  EF62  F004         	goto	u1181
  2655  0008C0  EF64  F004         	goto	u1180
  2656  0008C4                     u1181:
  2657  0008C4  EF65  F004         	goto	l1992
  2658  0008C8                     u1180:
  2659  0008C8                     
  2660                           ; BSR set to: 0
  2661                           ;D:\XC8 compilador para el MPLAB\pic\sources\c99\common\doprnt.c: 301:         flags &= 
      +                          ~(1 << 1);
  2662  0008C8  9366               	bcf	_flags& (0+255),1,b
  2663  0008CA                     l1992:
  2664                           
  2665                           ; BSR set to: 0
  2666                           ;D:\XC8 compilador para el MPLAB\pic\sources\c99\common\doprnt.c: 303:     p = (0 < prec
      +                          ) ? prec : 1;
  2667  0008CA  BF65               	btfsc	(_prec+1)& (0+255),7,b
  2668  0008CC  EF72  F004         	goto	u1190
  2669  0008D0  5165               	movf	(_prec+1)& (0+255),w,b
  2670  0008D2  E106               	bnz	u1191
  2671  0008D4  0564               	decf	_prec& (0+255),w,b
  2672  0008D6  B0D8               	btfsc	status,0,c
  2673  0008D8  EF70  F004         	goto	u1191
  2674  0008DC  EF72  F004         	goto	u1190
  2675  0008E0                     u1191:
  2676  0008E0  EF78  F004         	goto	l1046
  2677  0008E4                     u1190:
  2678  0008E4                     
  2679                           ; BSR set to: 0
  2680  0008E4  0E00               	movlw	0
  2681  0008E6  6E31               	movwf	(dtoa@p+1)^0,c
  2682  0008E8  0E01               	movlw	1
  2683  0008EA  6E30               	movwf	dtoa@p^0,c
  2684  0008EC  EF7C  F004         	goto	l1048
  2685  0008F0                     l1046:
  2686                           
  2687                           ; BSR set to: 0
  2688  0008F0  C064  F030         	movff	_prec,dtoa@p
  2689  0008F4  C065  F031         	movff	_prec+1,dtoa@p+1
  2690  0008F8                     l1048:
  2691                           
  2692                           ; BSR set to: 0
  2693                           ;D:\XC8 compilador para el MPLAB\pic\sources\c99\common\doprnt.c: 304:     w = width;
  2694  0008F8  C062  F032         	movff	_width,dtoa@w
  2695  0008FC  C063  F033         	movff	_width+1,dtoa@w+1
  2696  000900                     
  2697                           ; BSR set to: 0
  2698                           ;D:\XC8 compilador para el MPLAB\pic\sources\c99\common\doprnt.c: 305:     if (s || (fla
      +                          gs & (1 << 2))) {
  2699  000900  5034               	movf	dtoa@s^0,w,c
  2700  000902  1035               	iorwf	(dtoa@s+1)^0,w,c
  2701  000904  A4D8               	btfss	status,2,c
  2702  000906  EF87  F004         	goto	u1201
  2703  00090A  EF89  F004         	goto	u1200
  2704  00090E                     u1201:
  2705  00090E  EF90  F004         	goto	l2000
  2706  000912                     u1200:
  2707  000912                     
  2708                           ; BSR set to: 0
  2709  000912  A566               	btfss	_flags& (0+255),2,b
  2710  000914  EF8E  F004         	goto	u1211
  2711  000918  EF90  F004         	goto	u1210
  2712  00091C                     u1211:
  2713  00091C  EF93  F004         	goto	l2002
  2714  000920                     u1210:
  2715  000920                     l2000:
  2716                           
  2717                           ; BSR set to: 0
  2718                           ;D:\XC8 compilador para el MPLAB\pic\sources\c99\common\doprnt.c: 306:         --w;
  2719  000920  0632               	decf	dtoa@w^0,f,c
  2720  000922  A0D8               	btfss	status,0,c
  2721  000924  0633               	decf	(dtoa@w+1)^0,f,c
  2722  000926                     l2002:
  2723                           
  2724                           ; BSR set to: 0
  2725                           ;D:\XC8 compilador para el MPLAB\pic\sources\c99\common\doprnt.c: 310:     i = sizeof(db
      +                          uf) - 1;
  2726  000926  0E00               	movlw	0
  2727  000928  6E3F               	movwf	(dtoa@i+1)^0,c
  2728  00092A  0E1F               	movlw	31
  2729  00092C  6E3E               	movwf	dtoa@i^0,c
  2730  00092E                     
  2731                           ; BSR set to: 0
  2732                           ;D:\XC8 compilador para el MPLAB\pic\sources\c99\common\doprnt.c: 311:     dbuf[i] = '\0
      +                          ';
  2733  00092E  0E00               	movlw	0
  2734  000930  6F94               	movwf	(_dbuf+31)& (0+255),b
  2735                           
  2736                           ;D:\XC8 compilador para el MPLAB\pic\sources\c99\common\doprnt.c: 312:     while (!(i < 
      +                          1) && (n || (0 < p) || ((0 < w) && (flags & (1 << 1))))) {
  2737  000932  EF17  F005         	goto	l2016
  2738  000936                     l2006:
  2739                           
  2740                           ;D:\XC8 compilador para el MPLAB\pic\sources\c99\common\doprnt.c: 313:         --i;
  2741  000936  063E               	decf	dtoa@i^0,f,c
  2742  000938  A0D8               	btfss	status,0,c
  2743  00093A  063F               	decf	(dtoa@i+1)^0,f,c
  2744  00093C                     
  2745                           ;D:\XC8 compilador para el MPLAB\pic\sources\c99\common\doprnt.c: 314:         dbuf[i] =
      +                           (char)((int)'0' + abs(n % 10));
  2746  00093C  0E75               	movlw	low _dbuf
  2747  00093E  243E               	addwf	dtoa@i^0,w,c
  2748  000940  6ED9               	movwf	fsr2l,c
  2749  000942  0E00               	movlw	high _dbuf
  2750  000944  203F               	addwfc	(dtoa@i+1)^0,w,c
  2751  000946  6EDA               	movwf	fsr2h,c
  2752  000948  C036  F001         	movff	dtoa@n,___aomod@dividend
  2753  00094C  C037  F002         	movff	dtoa@n+1,___aomod@dividend+1
  2754  000950  C038  F003         	movff	dtoa@n+2,___aomod@dividend+2
  2755  000954  C039  F004         	movff	dtoa@n+3,___aomod@dividend+3
  2756  000958  C03A  F005         	movff	dtoa@n+4,___aomod@dividend+4
  2757  00095C  C03B  F006         	movff	dtoa@n+5,___aomod@dividend+5
  2758  000960  C03C  F007         	movff	dtoa@n+6,___aomod@dividend+6
  2759  000964  C03D  F008         	movff	dtoa@n+7,___aomod@dividend+7
  2760  000968  0E0A               	movlw	10
  2761  00096A  6E09               	movwf	___aomod@divisor^0,c
  2762  00096C  0E00               	movlw	0
  2763  00096E  6E0A               	movwf	(___aomod@divisor+1)^0,c
  2764  000970  0E00               	movlw	0
  2765  000972  6E0B               	movwf	(___aomod@divisor+2)^0,c
  2766  000974  0E00               	movlw	0
  2767  000976  6E0C               	movwf	(___aomod@divisor+3)^0,c
  2768  000978  0E00               	movlw	0
  2769  00097A  6E0D               	movwf	(___aomod@divisor+4)^0,c
  2770  00097C  0E00               	movlw	0
  2771  00097E  6E0E               	movwf	(___aomod@divisor+5)^0,c
  2772  000980  0E00               	movlw	0
  2773  000982  6E0F               	movwf	(___aomod@divisor+6)^0,c
  2774  000984  0E00               	movlw	0
  2775  000986  6E10               	movwf	(___aomod@divisor+7)^0,c
  2776  000988  EC46  F008         	call	___aomod	;wreg free
  2777  00098C  C001  F026         	movff	?___aomod,??_dtoa
  2778  000990  C002  F027         	movff	?___aomod+1,??_dtoa+1
  2779  000994  C003  F028         	movff	?___aomod+2,??_dtoa+2
  2780  000998  C004  F029         	movff	?___aomod+3,??_dtoa+3
  2781  00099C  C005  F02A         	movff	?___aomod+4,??_dtoa+4
  2782  0009A0  C006  F02B         	movff	?___aomod+5,??_dtoa+5
  2783  0009A4  C007  F02C         	movff	?___aomod+6,??_dtoa+6
  2784  0009A8  C008  F02D         	movff	?___aomod+7,??_dtoa+7
  2785  0009AC  C026  F013         	movff	??_dtoa,abs@a
  2786  0009B0  C028  F014         	movff	??_dtoa+2,abs@a+1
  2787  0009B4  EC55  F00E         	call	_abs	;wreg free
  2788  0009B8  5013               	movf	?_abs^0,w,c
  2789  0009BA  0F30               	addlw	48
  2790  0009BC  6EDF               	movwf	indf2,c
  2791  0009BE                     
  2792                           ;D:\XC8 compilador para el MPLAB\pic\sources\c99\common\doprnt.c: 315:         --p;
  2793  0009BE  0630               	decf	dtoa@p^0,f,c
  2794  0009C0  A0D8               	btfss	status,0,c
  2795  0009C2  0631               	decf	(dtoa@p+1)^0,f,c
  2796  0009C4                     
  2797                           ;D:\XC8 compilador para el MPLAB\pic\sources\c99\common\doprnt.c: 316:         --w;
  2798  0009C4  0632               	decf	dtoa@w^0,f,c
  2799  0009C6  A0D8               	btfss	status,0,c
  2800  0009C8  0633               	decf	(dtoa@w+1)^0,f,c
  2801  0009CA                     
  2802                           ;D:\XC8 compilador para el MPLAB\pic\sources\c99\common\doprnt.c: 317:         n = n / 1
      +                          0;
  2803  0009CA  C036  F001         	movff	dtoa@n,___aodiv@dividend
  2804  0009CE  C037  F002         	movff	dtoa@n+1,___aodiv@dividend+1
  2805  0009D2  C038  F003         	movff	dtoa@n+2,___aodiv@dividend+2
  2806  0009D6  C039  F004         	movff	dtoa@n+3,___aodiv@dividend+3
  2807  0009DA  C03A  F005         	movff	dtoa@n+4,___aodiv@dividend+4
  2808  0009DE  C03B  F006         	movff	dtoa@n+5,___aodiv@dividend+5
  2809  0009E2  C03C  F007         	movff	dtoa@n+6,___aodiv@dividend+6
  2810  0009E6  C03D  F008         	movff	dtoa@n+7,___aodiv@dividend+7
  2811  0009EA  0E0A               	movlw	10
  2812  0009EC  6E09               	movwf	___aodiv@divisor^0,c
  2813  0009EE  0E00               	movlw	0
  2814  0009F0  6E0A               	movwf	(___aodiv@divisor+1)^0,c
  2815  0009F2  0E00               	movlw	0
  2816  0009F4  6E0B               	movwf	(___aodiv@divisor+2)^0,c
  2817  0009F6  0E00               	movlw	0
  2818  0009F8  6E0C               	movwf	(___aodiv@divisor+3)^0,c
  2819  0009FA  0E00               	movlw	0
  2820  0009FC  6E0D               	movwf	(___aodiv@divisor+4)^0,c
  2821  0009FE  0E00               	movlw	0
  2822  000A00  6E0E               	movwf	(___aodiv@divisor+5)^0,c
  2823  000A02  0E00               	movlw	0
  2824  000A04  6E0F               	movwf	(___aodiv@divisor+6)^0,c
  2825  000A06  0E00               	movlw	0
  2826  000A08  6E10               	movwf	(___aodiv@divisor+7)^0,c
  2827  000A0A  EC82  F007         	call	___aodiv	;wreg free
  2828  000A0E  C001  F036         	movff	?___aodiv,dtoa@n
  2829  000A12  C002  F037         	movff	?___aodiv+1,dtoa@n+1
  2830  000A16  C003  F038         	movff	?___aodiv+2,dtoa@n+2
  2831  000A1A  C004  F039         	movff	?___aodiv+3,dtoa@n+3
  2832  000A1E  C005  F03A         	movff	?___aodiv+4,dtoa@n+4
  2833  000A22  C006  F03B         	movff	?___aodiv+5,dtoa@n+5
  2834  000A26  C007  F03C         	movff	?___aodiv+6,dtoa@n+6
  2835  000A2A  C008  F03D         	movff	?___aodiv+7,dtoa@n+7
  2836  000A2E                     l2016:
  2837                           
  2838                           ;D:\XC8 compilador para el MPLAB\pic\sources\c99\common\doprnt.c: 312:     while (!(i < 
      +                          1) && (n || (0 < p) || ((0 < w) && (flags & (1 << 1))))) {
  2839  000A2E  BE3F               	btfsc	(dtoa@i+1)^0,7,c
  2840  000A30  EF22  F005         	goto	u1221
  2841  000A34  503F               	movf	(dtoa@i+1)^0,w,c
  2842  000A36  E108               	bnz	u1220
  2843  000A38  043E               	decf	dtoa@i^0,w,c
  2844  000A3A  A0D8               	btfss	status,0,c
  2845  000A3C  EF22  F005         	goto	u1221
  2846  000A40  EF24  F005         	goto	u1220
  2847  000A44                     u1221:
  2848  000A44  EF55  F005         	goto	l2026
  2849  000A48                     u1220:
  2850  000A48  5036               	movf	dtoa@n^0,w,c
  2851  000A4A  1037               	iorwf	(dtoa@n+1)^0,w,c
  2852  000A4C  1038               	iorwf	(dtoa@n+2)^0,w,c
  2853  000A4E  1039               	iorwf	(dtoa@n+3)^0,w,c
  2854  000A50  103A               	iorwf	(dtoa@n+4)^0,w,c
  2855  000A52  103B               	iorwf	(dtoa@n+5)^0,w,c
  2856  000A54  103C               	iorwf	(dtoa@n+6)^0,w,c
  2857  000A56  103D               	iorwf	(dtoa@n+7)^0,w,c
  2858  000A58  A4D8               	btfss	status,2,c
  2859  000A5A  EF31  F005         	goto	u1231
  2860  000A5E  EF33  F005         	goto	u1230
  2861  000A62                     u1231:
  2862  000A62  EF9B  F004         	goto	l2006
  2863  000A66                     u1230:
  2864  000A66  BE31               	btfsc	(dtoa@p+1)^0,7,c
  2865  000A68  EF40  F005         	goto	u1240
  2866  000A6C  5031               	movf	(dtoa@p+1)^0,w,c
  2867  000A6E  E106               	bnz	u1241
  2868  000A70  0430               	decf	dtoa@p^0,w,c
  2869  000A72  B0D8               	btfsc	status,0,c
  2870  000A74  EF3E  F005         	goto	u1241
  2871  000A78  EF40  F005         	goto	u1240
  2872  000A7C                     u1241:
  2873  000A7C  EF9B  F004         	goto	l2006
  2874  000A80                     u1240:
  2875  000A80  BE33               	btfsc	(dtoa@w+1)^0,7,c
  2876  000A82  EF4B  F005         	goto	u1251
  2877  000A86  5033               	movf	(dtoa@w+1)^0,w,c
  2878  000A88  E108               	bnz	u1250
  2879  000A8A  0432               	decf	dtoa@w^0,w,c
  2880  000A8C  A0D8               	btfss	status,0,c
  2881  000A8E  EF4B  F005         	goto	u1251
  2882  000A92  EF4D  F005         	goto	u1250
  2883  000A96                     u1251:
  2884  000A96  EF55  F005         	goto	l2026
  2885  000A9A                     u1250:
  2886  000A9A  0100               	movlb	0	; () banked
  2887  000A9C  B366               	btfsc	_flags& (0+255),1,b
  2888  000A9E  EF53  F005         	goto	u1261
  2889  000AA2  EF55  F005         	goto	u1260
  2890  000AA6                     u1261:
  2891  000AA6  EF9B  F004         	goto	l2006
  2892  000AAA                     u1260:
  2893  000AAA                     l2026:
  2894                           
  2895                           ;D:\XC8 compilador para el MPLAB\pic\sources\c99\common\doprnt.c: 321:     if (s || (fla
      +                          gs & (1 << 2))) {
  2896  000AAA  5034               	movf	dtoa@s^0,w,c
  2897  000AAC  1035               	iorwf	(dtoa@s+1)^0,w,c
  2898  000AAE  A4D8               	btfss	status,2,c
  2899  000AB0  EF5C  F005         	goto	u1271
  2900  000AB4  EF5E  F005         	goto	u1270
  2901  000AB8                     u1271:
  2902  000AB8  EF66  F005         	goto	l2030
  2903  000ABC                     u1270:
  2904  000ABC  0100               	movlb	0	; () banked
  2905  000ABE  A566               	btfss	_flags& (0+255),2,b
  2906  000AC0  EF64  F005         	goto	u1281
  2907  000AC4  EF66  F005         	goto	u1280
  2908  000AC8                     u1281:
  2909  000AC8  EF84  F005         	goto	l2040
  2910  000ACC                     u1280:
  2911  000ACC                     l2030:
  2912                           
  2913                           ;D:\XC8 compilador para el MPLAB\pic\sources\c99\common\doprnt.c: 322:         --i;
  2914  000ACC  063E               	decf	dtoa@i^0,f,c
  2915  000ACE  A0D8               	btfss	status,0,c
  2916  000AD0  063F               	decf	(dtoa@i+1)^0,f,c
  2917  000AD2                     
  2918                           ;D:\XC8 compilador para el MPLAB\pic\sources\c99\common\doprnt.c: 323:         dbuf[i] =
      +                           s ? '-' : '+';
  2919  000AD2  5034               	movf	dtoa@s^0,w,c
  2920  000AD4  1035               	iorwf	(dtoa@s+1)^0,w,c
  2921  000AD6  A4D8               	btfss	status,2,c
  2922  000AD8  EF70  F005         	goto	u1291
  2923  000ADC  EF72  F005         	goto	u1290
  2924  000AE0                     u1291:
  2925  000AE0  EF78  F005         	goto	l2036
  2926  000AE4                     u1290:
  2927  000AE4  0E00               	movlw	0
  2928  000AE6  6E2F               	movwf	(_dtoa$958+1)^0,c
  2929  000AE8  0E2B               	movlw	43
  2930  000AEA  6E2E               	movwf	_dtoa$958^0,c
  2931  000AEC  EF7C  F005         	goto	l2038
  2932  000AF0                     l2036:
  2933  000AF0  0E00               	movlw	0
  2934  000AF2  6E2F               	movwf	(_dtoa$958+1)^0,c
  2935  000AF4  0E2D               	movlw	45
  2936  000AF6  6E2E               	movwf	_dtoa$958^0,c
  2937  000AF8                     l2038:
  2938  000AF8  0E75               	movlw	low _dbuf
  2939  000AFA  243E               	addwf	dtoa@i^0,w,c
  2940  000AFC  6ED9               	movwf	fsr2l,c
  2941  000AFE  0E00               	movlw	high _dbuf
  2942  000B00  203F               	addwfc	(dtoa@i+1)^0,w,c
  2943  000B02  6EDA               	movwf	fsr2h,c
  2944  000B04  C02E  FFDF         	movff	_dtoa$958,indf2
  2945  000B08                     l2040:
  2946                           
  2947                           ;D:\XC8 compilador para el MPLAB\pic\sources\c99\common\doprnt.c: 327:     return pad(fp
      +                          , &dbuf[i], w);
  2948  000B08  C01C  F011         	movff	dtoa@fp,pad@fp
  2949  000B0C  C01D  F012         	movff	dtoa@fp+1,pad@fp+1
  2950  000B10  0E75               	movlw	low _dbuf
  2951  000B12  243E               	addwf	dtoa@i^0,w,c
  2952  000B14  6E13               	movwf	pad@buf^0,c
  2953  000B16  0E00               	movlw	high _dbuf
  2954  000B18  203F               	addwfc	(dtoa@i+1)^0,w,c
  2955  000B1A  6E14               	movwf	(pad@buf+1)^0,c
  2956  000B1C  C032  F015         	movff	dtoa@w,pad@p
  2957  000B20  C033  F016         	movff	dtoa@w+1,pad@p+1
  2958  000B24  EC88  F00A         	call	_pad	;wreg free
  2959  000B28  C011  F01C         	movff	?_pad,?_dtoa
  2960  000B2C  C012  F01D         	movff	?_pad+1,?_dtoa+1
  2961  000B30  0012               	return		;funcret
  2962  000B32                     __end_of_dtoa:
  2963                           	callstack 0
  2964                           
  2965 ;; *************** function _pad *****************
  2966 ;; Defined at:
  2967 ;;		line 72 in file "D:\XC8 compilador para el MPLAB\pic\sources\c99\common\doprnt.c"
  2968 ;; Parameters:    Size  Location     Type
  2969 ;;  fp              2   16[COMRAM] PTR struct _IO_FILE
  2970 ;;		 -> sprintf@f(6), 
  2971 ;;  buf             2   18[COMRAM] PTR unsigned char 
  2972 ;;		 -> dbuf(32), 
  2973 ;;  p               2   20[COMRAM] int 
  2974 ;; Auto vars:     Size  Location     Type
  2975 ;;  w               2   25[COMRAM] int 
  2976 ;;  i               2   23[COMRAM] int 
  2977 ;; Return value:  Size  Location     Type
  2978 ;;                  2   16[COMRAM] int 
  2979 ;; Registers used:
  2980 ;;		wreg, fsr1l, fsr1h, fsr2l, fsr2h, status,2, status,0, cstack
  2981 ;; Tracked objects:
  2982 ;;		On entry : 0/0
  2983 ;;		On exit  : 0/0
  2984 ;;		Unchanged: 0/0
  2985 ;; Data sizes:     COMRAM   BANK0   BANK1   BANK2   BANK3   BANK4   BANK5   BANK6   BANK7
  2986 ;;      Params:         6       0       0       0       0       0       0       0       0
  2987 ;;      Locals:         4       0       0       0       0       0       0       0       0
  2988 ;;      Temps:          1       0       0       0       0       0       0       0       0
  2989 ;;      Totals:        11       0       0       0       0       0       0       0       0
  2990 ;;Total ram usage:       11 bytes
  2991 ;; Hardware stack levels used: 1
  2992 ;; Hardware stack levels required when called: 3
  2993 ;; This function calls:
  2994 ;;		_fputc
  2995 ;;		_fputs
  2996 ;;		_strlen
  2997 ;; This function is called by:
  2998 ;;		_dtoa
  2999 ;; This function uses a non-reentrant model
  3000 ;;
  3001                           
  3002                           	psect	text14
  3003  001510                     __ptext14:
  3004                           	callstack 0
  3005  001510                     _pad:
  3006                           	callstack 22
  3007  001510                     
  3008                           ;D:\XC8 compilador para el MPLAB\pic\sources\c99\common\doprnt.c: 72: static int pad(FIL
      +                          E *fp, char *buf, int p);D:\XC8 compilador para el MPLAB\pic\sources\c99\common\doprnt.c
      +                          : 73: {;D:\XC8 compilador para el MPLAB\pic\sources\c99\common\doprnt.c: 74:     int i, 
      +                          w;;D:\XC8 compilador para el MPLAB\pic\sources\c99\common\doprnt.c: 77:     if (flags & 
      +                          (1 << 0)) {
  3009  001510  0100               	movlb	0	; () banked
  3010  001512  A166               	btfss	_flags& (0+255),0,b
  3011  001514  EF8E  F00A         	goto	u1101
  3012  001518  EF90  F00A         	goto	u1100
  3013  00151C                     u1101:
  3014  00151C  EF9A  F00A         	goto	l1940
  3015  001520                     u1100:
  3016  001520                     
  3017                           ; BSR set to: 0
  3018                           ;D:\XC8 compilador para el MPLAB\pic\sources\c99\common\doprnt.c: 78:         fputs((con
      +                          st char *)buf, fp);
  3019  001520  C013  F00A         	movff	pad@buf,fputs@s
  3020  001524  C014  F00B         	movff	pad@buf+1,fputs@s+1
  3021  001528  C011  F00C         	movff	pad@fp,fputs@fp
  3022  00152C  C012  F00D         	movff	pad@fp+1,fputs@fp+1
  3023  001530  EC33  F00E         	call	_fputs	;wreg free
  3024  001534                     l1940:
  3025                           
  3026                           ;D:\XC8 compilador para el MPLAB\pic\sources\c99\common\doprnt.c: 82:     w = (p < 0) ? 
      +                          0 : p;
  3027  001534  BE16               	btfsc	(pad@p+1)^0,7,c
  3028  001536  EF9F  F00A         	goto	u1111
  3029  00153A  EFA1  F00A         	goto	u1110
  3030  00153E                     u1111:
  3031  00153E  EFA7  F00A         	goto	l1944
  3032  001542                     u1110:
  3033  001542  C015  F01A         	movff	pad@p,pad@w
  3034  001546  C016  F01B         	movff	pad@p+1,pad@w+1
  3035  00154A  EFAB  F00A         	goto	l1035
  3036  00154E                     l1944:
  3037  00154E  0E00               	movlw	0
  3038  001550  6E1B               	movwf	(pad@w+1)^0,c
  3039  001552  0E00               	movlw	0
  3040  001554  6E1A               	movwf	pad@w^0,c
  3041  001556                     l1035:
  3042                           
  3043                           ;D:\XC8 compilador para el MPLAB\pic\sources\c99\common\doprnt.c: 83:     i = 0;
  3044  001556  0E00               	movlw	0
  3045  001558  6E19               	movwf	(pad@i+1)^0,c
  3046  00155A  0E00               	movlw	0
  3047  00155C  6E18               	movwf	pad@i^0,c
  3048                           
  3049                           ;D:\XC8 compilador para el MPLAB\pic\sources\c99\common\doprnt.c: 84:     while (i < w) 
      +                          {
  3050  00155E  EFBD  F00A         	goto	l1950
  3051  001562                     l1946:
  3052                           
  3053                           ;D:\XC8 compilador para el MPLAB\pic\sources\c99\common\doprnt.c: 85:         fputc(' ',
      +                           fp);
  3054  001562  0E00               	movlw	0
  3055  001564  6E02               	movwf	(fputc@c+1)^0,c
  3056  001566  0E20               	movlw	32
  3057  001568  6E01               	movwf	fputc@c^0,c
  3058  00156A  C011  F003         	movff	pad@fp,fputc@fp
  3059  00156E  C012  F004         	movff	pad@fp+1,fputc@fp+1
  3060  001572  EC23  F00A         	call	_fputc	;wreg free
  3061  001576                     
  3062                           ;D:\XC8 compilador para el MPLAB\pic\sources\c99\common\doprnt.c: 86:         ++i;
  3063  001576  4A18               	infsnz	pad@i^0,f,c
  3064  001578  2A19               	incf	(pad@i+1)^0,f,c
  3065  00157A                     l1950:
  3066                           
  3067                           ;D:\XC8 compilador para el MPLAB\pic\sources\c99\common\doprnt.c: 84:     while (i < w) 
      +                          {
  3068  00157A  501A               	movf	pad@w^0,w,c
  3069  00157C  5C18               	subwf	pad@i^0,w,c
  3070  00157E  5019               	movf	(pad@i+1)^0,w,c
  3071  001580  0A80               	xorlw	128
  3072  001582  6E17               	movwf	??_pad^0,c
  3073  001584  501B               	movf	(pad@w+1)^0,w,c
  3074  001586  0A80               	xorlw	128
  3075  001588  5817               	subwfb	??_pad^0,w,c
  3076  00158A  A0D8               	btfss	status,0,c
  3077  00158C  EFCA  F00A         	goto	u1121
  3078  001590  EFCC  F00A         	goto	u1120
  3079  001594                     u1121:
  3080  001594  EFB1  F00A         	goto	l1946
  3081  001598                     u1120:
  3082  001598                     
  3083                           ;D:\XC8 compilador para el MPLAB\pic\sources\c99\common\doprnt.c: 90:     if (!(flags & 
      +                          (1 << 0))) {
  3084  001598  0100               	movlb	0	; () banked
  3085  00159A  B166               	btfsc	_flags& (0+255),0,b
  3086  00159C  EFD2  F00A         	goto	u1131
  3087  0015A0  EFD4  F00A         	goto	u1130
  3088  0015A4                     u1131:
  3089  0015A4  EFDE  F00A         	goto	l1954
  3090  0015A8                     u1130:
  3091  0015A8                     
  3092                           ; BSR set to: 0
  3093                           ;D:\XC8 compilador para el MPLAB\pic\sources\c99\common\doprnt.c: 91:         fputs((con
      +                          st char *)buf, fp);
  3094  0015A8  C013  F00A         	movff	pad@buf,fputs@s
  3095  0015AC  C014  F00B         	movff	pad@buf+1,fputs@s+1
  3096  0015B0  C011  F00C         	movff	pad@fp,fputs@fp
  3097  0015B4  C012  F00D         	movff	pad@fp+1,fputs@fp+1
  3098  0015B8  EC33  F00E         	call	_fputs	;wreg free
  3099  0015BC                     l1954:
  3100                           
  3101                           ;D:\XC8 compilador para el MPLAB\pic\sources\c99\common\doprnt.c: 94:     return (int)(s
      +                          trlen(buf) + (size_t)w);
  3102  0015BC  C013  F001         	movff	pad@buf,strlen@s
  3103  0015C0  C014  F002         	movff	pad@buf+1,strlen@s+1
  3104  0015C4  ECCF  F00E         	call	_strlen	;wreg free
  3105  0015C8  501A               	movf	pad@w^0,w,c
  3106  0015CA  2401               	addwf	?_strlen^0,w,c
  3107  0015CC  6E11               	movwf	?_pad^0,c
  3108  0015CE  501B               	movf	(pad@w+1)^0,w,c
  3109  0015D0  2002               	addwfc	(?_strlen+1)^0,w,c
  3110  0015D2  6E12               	movwf	(?_pad+1)^0,c
  3111  0015D4  0012               	return		;funcret
  3112  0015D6                     __end_of_pad:
  3113                           	callstack 0
  3114                           
  3115 ;; *************** function _strlen *****************
  3116 ;; Defined at:
  3117 ;;		line 5 in file "D:\XC8 compilador para el MPLAB\pic\sources\c99\common\strlen.c"
  3118 ;; Parameters:    Size  Location     Type
  3119 ;;  s               2    0[COMRAM] PTR const unsigned char 
  3120 ;;		 -> dbuf(32), 
  3121 ;; Auto vars:     Size  Location     Type
  3122 ;;  a               2    2[COMRAM] PTR const unsigned char 
  3123 ;;		 -> dbuf(32), 
  3124 ;; Return value:  Size  Location     Type
  3125 ;;                  2    0[COMRAM] unsigned int 
  3126 ;; Registers used:
  3127 ;;		wreg, fsr2l, fsr2h, status,2, status,0
  3128 ;; Tracked objects:
  3129 ;;		On entry : 0/0
  3130 ;;		On exit  : 0/0
  3131 ;;		Unchanged: 0/0
  3132 ;; Data sizes:     COMRAM   BANK0   BANK1   BANK2   BANK3   BANK4   BANK5   BANK6   BANK7
  3133 ;;      Params:         2       0       0       0       0       0       0       0       0
  3134 ;;      Locals:         2       0       0       0       0       0       0       0       0
  3135 ;;      Temps:          0       0       0       0       0       0       0       0       0
  3136 ;;      Totals:         4       0       0       0       0       0       0       0       0
  3137 ;;Total ram usage:        4 bytes
  3138 ;; Hardware stack levels used: 1
  3139 ;; This function calls:
  3140 ;;		Nothing
  3141 ;; This function is called by:
  3142 ;;		_pad
  3143 ;; This function uses a non-reentrant model
  3144 ;;
  3145                           
  3146                           	psect	text15
  3147  001D9E                     __ptext15:
  3148                           	callstack 0
  3149  001D9E                     _strlen:
  3150                           	callstack 24
  3151  001D9E  C001  F003         	movff	strlen@s,strlen@a
  3152  001DA2  C002  F004         	movff	strlen@s+1,strlen@a+1
  3153  001DA6  EFD7  F00E         	goto	l1850
  3154  001DAA                     l1848:
  3155  001DAA  4A01               	infsnz	strlen@s^0,f,c
  3156  001DAC  2A02               	incf	(strlen@s+1)^0,f,c
  3157  001DAE                     l1850:
  3158  001DAE  C001  FFD9         	movff	strlen@s,fsr2l
  3159  001DB2  C002  FFDA         	movff	strlen@s+1,fsr2h
  3160  001DB6  50DF               	movf	indf2,w,c
  3161  001DB8  A4D8               	btfss	status,2,c
  3162  001DBA  EFE1  F00E         	goto	u961
  3163  001DBE  EFE3  F00E         	goto	u960
  3164  001DC2                     u961:
  3165  001DC2  EFD5  F00E         	goto	l1848
  3166  001DC6                     u960:
  3167  001DC6  5003               	movf	strlen@a^0,w,c
  3168  001DC8  5C01               	subwf	strlen@s^0,w,c
  3169  001DCA  6E01               	movwf	?_strlen^0,c
  3170  001DCC  5004               	movf	(strlen@a+1)^0,w,c
  3171  001DCE  5802               	subwfb	(strlen@s+1)^0,w,c
  3172  001DD0  6E02               	movwf	(?_strlen+1)^0,c
  3173  001DD2  0012               	return		;funcret
  3174  001DD4                     __end_of_strlen:
  3175                           	callstack 0
  3176                           
  3177 ;; *************** function _fputs *****************
  3178 ;; Defined at:
  3179 ;;		line 8 in file "D:\XC8 compilador para el MPLAB\pic\sources\c99\common\nf_fputs.c"
  3180 ;; Parameters:    Size  Location     Type
  3181 ;;  s               2    9[COMRAM] PTR const unsigned char 
  3182 ;;		 -> dbuf(32), 
  3183 ;;  fp              2   11[COMRAM] PTR struct _IO_FILE
  3184 ;;		 -> sprintf@f(6), 
  3185 ;; Auto vars:     Size  Location     Type
  3186 ;;  i               2   14[COMRAM] int 
  3187 ;;  c               1   13[COMRAM] unsigned char 
  3188 ;; Return value:  Size  Location     Type
  3189 ;;                  2    9[COMRAM] int 
  3190 ;; Registers used:
  3191 ;;		wreg, fsr1l, fsr1h, fsr2l, fsr2h, status,2, status,0, cstack
  3192 ;; Tracked objects:
  3193 ;;		On entry : 0/0
  3194 ;;		On exit  : 0/0
  3195 ;;		Unchanged: 0/0
  3196 ;; Data sizes:     COMRAM   BANK0   BANK1   BANK2   BANK3   BANK4   BANK5   BANK6   BANK7
  3197 ;;      Params:         4       0       0       0       0       0       0       0       0
  3198 ;;      Locals:         3       0       0       0       0       0       0       0       0
  3199 ;;      Temps:          0       0       0       0       0       0       0       0       0
  3200 ;;      Totals:         7       0       0       0       0       0       0       0       0
  3201 ;;Total ram usage:        7 bytes
  3202 ;; Hardware stack levels used: 1
  3203 ;; Hardware stack levels required when called: 2
  3204 ;; This function calls:
  3205 ;;		_fputc
  3206 ;; This function is called by:
  3207 ;;		_pad
  3208 ;; This function uses a non-reentrant model
  3209 ;;
  3210                           
  3211                           	psect	text16
  3212  001C66                     __ptext16:
  3213                           	callstack 0
  3214  001C66                     _fputs:
  3215                           	callstack 22
  3216  001C66  0E00               	movlw	0
  3217  001C68  6E10               	movwf	(fputs@i+1)^0,c
  3218  001C6A  0E00               	movlw	0
  3219  001C6C  6E0F               	movwf	fputs@i^0,c
  3220  001C6E  EF44  F00E         	goto	l1844
  3221  001C72                     l1840:
  3222  001C72  C00E  F001         	movff	fputs@c,fputc@c
  3223  001C76  6A02               	clrf	(fputc@c+1)^0,c
  3224  001C78  C00C  F003         	movff	fputs@fp,fputc@fp
  3225  001C7C  C00D  F004         	movff	fputs@fp+1,fputc@fp+1
  3226  001C80  EC23  F00A         	call	_fputc	;wreg free
  3227  001C84  4A0F               	infsnz	fputs@i^0,f,c
  3228  001C86  2A10               	incf	(fputs@i+1)^0,f,c
  3229  001C88                     l1844:
  3230  001C88  500F               	movf	fputs@i^0,w,c
  3231  001C8A  240A               	addwf	fputs@s^0,w,c
  3232  001C8C  6ED9               	movwf	fsr2l,c
  3233  001C8E  5010               	movf	(fputs@i+1)^0,w,c
  3234  001C90  200B               	addwfc	(fputs@s+1)^0,w,c
  3235  001C92  6EDA               	movwf	fsr2h,c
  3236  001C94  50DF               	movf	indf2,w,c
  3237  001C96  6E0E               	movwf	fputs@c^0,c
  3238  001C98  500E               	movf	fputs@c^0,w,c
  3239  001C9A  A4D8               	btfss	status,2,c
  3240  001C9C  EF52  F00E         	goto	u951
  3241  001CA0  EF54  F00E         	goto	u950
  3242  001CA4                     u951:
  3243  001CA4  EF39  F00E         	goto	l1840
  3244  001CA8                     u950:
  3245  001CA8  0012               	return		;funcret
  3246  001CAA                     __end_of_fputs:
  3247                           	callstack 0
  3248                           
  3249 ;; *************** function _fputc *****************
  3250 ;; Defined at:
  3251 ;;		line 8 in file "D:\XC8 compilador para el MPLAB\pic\sources\c99\common\nf_fputc.c"
  3252 ;; Parameters:    Size  Location     Type
  3253 ;;  c               2    0[COMRAM] int 
  3254 ;;  fp              2    2[COMRAM] PTR struct _IO_FILE
  3255 ;;		 -> sprintf@f(6), 
  3256 ;; Auto vars:     Size  Location     Type
  3257 ;;		None
  3258 ;; Return value:  Size  Location     Type
  3259 ;;                  2    0[COMRAM] int 
  3260 ;; Registers used:
  3261 ;;		wreg, fsr1l, fsr1h, fsr2l, fsr2h, status,2, status,0, cstack
  3262 ;; Tracked objects:
  3263 ;;		On entry : 0/0
  3264 ;;		On exit  : 0/0
  3265 ;;		Unchanged: 0/0
  3266 ;; Data sizes:     COMRAM   BANK0   BANK1   BANK2   BANK3   BANK4   BANK5   BANK6   BANK7
  3267 ;;      Params:         4       0       0       0       0       0       0       0       0
  3268 ;;      Locals:         0       0       0       0       0       0       0       0       0
  3269 ;;      Temps:          5       0       0       0       0       0       0       0       0
  3270 ;;      Totals:         9       0       0       0       0       0       0       0       0
  3271 ;;Total ram usage:        9 bytes
  3272 ;; Hardware stack levels used: 1
  3273 ;; Hardware stack levels required when called: 1
  3274 ;; This function calls:
  3275 ;;		_putch
  3276 ;; This function is called by:
  3277 ;;		_pad
  3278 ;;		_vfpfcnvrt
  3279 ;;		_fputs
  3280 ;; This function uses a non-reentrant model
  3281 ;;
  3282                           
  3283                           	psect	text17
  3284  001446                     __ptext17:
  3285                           	callstack 0
  3286  001446                     _fputc:
  3287                           	callstack 25
  3288  001446  5003               	movf	fputc@fp^0,w,c
  3289  001448  1004               	iorwf	(fputc@fp+1)^0,w,c
  3290  00144A  B4D8               	btfsc	status,2,c
  3291  00144C  EF2A  F00A         	goto	u911
  3292  001450  EF2C  F00A         	goto	u910
  3293  001454                     u911:
  3294  001454  EF35  F00A         	goto	l1828
  3295  001458                     u910:
  3296  001458  5003               	movf	fputc@fp^0,w,c
  3297  00145A  1004               	iorwf	(fputc@fp+1)^0,w,c
  3298  00145C  A4D8               	btfss	status,2,c
  3299  00145E  EF33  F00A         	goto	u921
  3300  001462  EF35  F00A         	goto	u920
  3301  001466                     u921:
  3302  001466  EF3A  F00A         	goto	l1830
  3303  00146A                     u920:
  3304  00146A                     l1828:
  3305  00146A  5001               	movf	fputc@c^0,w,c
  3306  00146C  EC7A  F00F         	call	_putch
  3307  001470  EF87  F00A         	goto	l1099
  3308  001474                     l1830:
  3309  001474  EE20 F004          	lfsr	2,4
  3310  001478  5003               	movf	fputc@fp^0,w,c
  3311  00147A  26D9               	addwf	fsr2l,f,c
  3312  00147C  5004               	movf	(fputc@fp+1)^0,w,c
  3313  00147E  22DA               	addwfc	fsr2h,f,c
  3314  001480  50DE               	movf	postinc2,w,c
  3315  001482  10DE               	iorwf	postinc2,w,c
  3316  001484  B4D8               	btfsc	status,2,c
  3317  001486  EF47  F00A         	goto	u931
  3318  00148A  EF49  F00A         	goto	u930
  3319  00148E                     u931:
  3320  00148E  EF64  F00A         	goto	l1834
  3321  001492                     u930:
  3322  001492  EE20 F004          	lfsr	2,4
  3323  001496  5003               	movf	fputc@fp^0,w,c
  3324  001498  26D9               	addwf	fsr2l,f,c
  3325  00149A  5004               	movf	(fputc@fp+1)^0,w,c
  3326  00149C  22DA               	addwfc	fsr2h,f,c
  3327  00149E  EE10 F002          	lfsr	1,2
  3328  0014A2  5003               	movf	fputc@fp^0,w,c
  3329  0014A4  26E1               	addwf	fsr1l,f,c
  3330  0014A6  5004               	movf	(fputc@fp+1)^0,w,c
  3331  0014A8  22E2               	addwfc	fsr1h,f,c
  3332  0014AA  50DE               	movf	postinc2,w,c
  3333  0014AC  5CE6               	subwf	postinc1,w,c
  3334  0014AE  50E6               	movf	postinc1,w,c
  3335  0014B0  0A80               	xorlw	128
  3336  0014B2  6E09               	movwf	(??_fputc+4)^0,c
  3337  0014B4  50DE               	movf	postinc2,w,c
  3338  0014B6  0A80               	xorlw	128
  3339  0014B8  5809               	subwfb	(??_fputc+4)^0,w,c
  3340  0014BA  B0D8               	btfsc	status,0,c
  3341  0014BC  EF62  F00A         	goto	u941
  3342  0014C0  EF64  F00A         	goto	u940
  3343  0014C4                     u941:
  3344  0014C4  EF87  F00A         	goto	l1099
  3345  0014C8                     u940:
  3346  0014C8                     l1834:
  3347  0014C8  EE20 F002          	lfsr	2,2
  3348  0014CC  5003               	movf	fputc@fp^0,w,c
  3349  0014CE  26D9               	addwf	fsr2l,f,c
  3350  0014D0  5004               	movf	(fputc@fp+1)^0,w,c
  3351  0014D2  22DA               	addwfc	fsr2h,f,c
  3352  0014D4  CFDE F005          	movff	postinc2,??_fputc
  3353  0014D8  CFDD F006          	movff	postdec2,??_fputc+1
  3354  0014DC  C003  FFD9         	movff	fputc@fp,fsr2l
  3355  0014E0  C004  FFDA         	movff	fputc@fp+1,fsr2h
  3356  0014E4  CFDE F007          	movff	postinc2,??_fputc+2
  3357  0014E8  CFDD F008          	movff	postdec2,??_fputc+3
  3358  0014EC  5005               	movf	??_fputc^0,w,c
  3359  0014EE  2407               	addwf	(??_fputc+2)^0,w,c
  3360  0014F0  6ED9               	movwf	fsr2l,c
  3361  0014F2  5006               	movf	(??_fputc+1)^0,w,c
  3362  0014F4  2008               	addwfc	(??_fputc+3)^0,w,c
  3363  0014F6  6EDA               	movwf	fsr2h,c
  3364  0014F8  C001  FFDF         	movff	fputc@c,indf2
  3365  0014FC  EE20 F002          	lfsr	2,2
  3366  001500  5003               	movf	fputc@fp^0,w,c
  3367  001502  26D9               	addwf	fsr2l,f,c
  3368  001504  5004               	movf	(fputc@fp+1)^0,w,c
  3369  001506  22DA               	addwfc	fsr2h,f,c
  3370  001508  2ADE               	incf	postinc2,f,c
  3371  00150A  0E00               	movlw	0
  3372  00150C  22DD               	addwfc	postdec2,f,c
  3373  00150E                     l1099:
  3374  00150E  0012               	return		;funcret
  3375  001510                     __end_of_fputc:
  3376                           	callstack 0
  3377                           
  3378 ;; *************** function _putch *****************
  3379 ;; Defined at:
  3380 ;;		line 7 in file "D:\XC8 compilador para el MPLAB\pic\sources\c99\common\putch.c"
  3381 ;; Parameters:    Size  Location     Type
  3382 ;;  c               1    wreg     unsigned char 
  3383 ;; Auto vars:     Size  Location     Type
  3384 ;;  c               1    0[COMRAM] unsigned char 
  3385 ;; Return value:  Size  Location     Type
  3386 ;;                  1    wreg      void 
  3387 ;; Registers used:
  3388 ;;		wreg
  3389 ;; Tracked objects:
  3390 ;;		On entry : 0/0
  3391 ;;		On exit  : 0/0
  3392 ;;		Unchanged: 0/0
  3393 ;; Data sizes:     COMRAM   BANK0   BANK1   BANK2   BANK3   BANK4   BANK5   BANK6   BANK7
  3394 ;;      Params:         0       0       0       0       0       0       0       0       0
  3395 ;;      Locals:         0       0       0       0       0       0       0       0       0
  3396 ;;      Temps:          0       0       0       0       0       0       0       0       0
  3397 ;;      Totals:         0       0       0       0       0       0       0       0       0
  3398 ;;Total ram usage:        0 bytes
  3399 ;; Hardware stack levels used: 1
  3400 ;; This function calls:
  3401 ;;		Nothing
  3402 ;; This function is called by:
  3403 ;;		_fputc
  3404 ;; This function uses a non-reentrant model
  3405 ;;
  3406                           
  3407                           	psect	text18
  3408  001EF4                     __ptext18:
  3409                           	callstack 0
  3410  001EF4                     _putch:
  3411                           	callstack 25
  3412  001EF4  0012               	return		;funcret
  3413  001EF6                     __end_of_putch:
  3414                           	callstack 0
  3415                           
  3416 ;; *************** function _abs *****************
  3417 ;; Defined at:
  3418 ;;		line 1 in file "D:\XC8 compilador para el MPLAB\pic\sources\c99\common\abs.c"
  3419 ;; Parameters:    Size  Location     Type
  3420 ;;  a               2   18[COMRAM] int 
  3421 ;; Auto vars:     Size  Location     Type
  3422 ;;		None
  3423 ;; Return value:  Size  Location     Type
  3424 ;;                  2   18[COMRAM] int 
  3425 ;; Registers used:
  3426 ;;		wreg, status,2, status,0
  3427 ;; Tracked objects:
  3428 ;;		On entry : 0/0
  3429 ;;		On exit  : 0/0
  3430 ;;		Unchanged: 0/0
  3431 ;; Data sizes:     COMRAM   BANK0   BANK1   BANK2   BANK3   BANK4   BANK5   BANK6   BANK7
  3432 ;;      Params:         2       0       0       0       0       0       0       0       0
  3433 ;;      Locals:         0       0       0       0       0       0       0       0       0
  3434 ;;      Temps:          2       0       0       0       0       0       0       0       0
  3435 ;;      Totals:         4       0       0       0       0       0       0       0       0
  3436 ;;Total ram usage:        4 bytes
  3437 ;; Hardware stack levels used: 1
  3438 ;; This function calls:
  3439 ;;		Nothing
  3440 ;; This function is called by:
  3441 ;;		_dtoa
  3442 ;; This function uses a non-reentrant model
  3443 ;;
  3444                           
  3445                           	psect	text19
  3446  001CAA                     __ptext19:
  3447                           	callstack 0
  3448  001CAA                     _abs:
  3449                           	callstack 25
  3450  001CAA  BE14               	btfsc	(abs@a+1)^0,7,c
  3451  001CAC  EF62  F00E         	goto	u1140
  3452  001CB0  5014               	movf	(abs@a+1)^0,w,c
  3453  001CB2  E106               	bnz	u1141
  3454  001CB4  0413               	decf	abs@a^0,w,c
  3455  001CB6  B0D8               	btfsc	status,0,c
  3456  001CB8  EF60  F00E         	goto	u1141
  3457  001CBC  EF62  F00E         	goto	u1140
  3458  001CC0                     u1141:
  3459  001CC0  EF70  F00E         	goto	l1084
  3460  001CC4                     u1140:
  3461  001CC4  C013  F015         	movff	abs@a,??_abs
  3462  001CC8  C014  F016         	movff	abs@a+1,??_abs+1
  3463  001CCC  1E15               	comf	??_abs^0,f,c
  3464  001CCE  1E16               	comf	(??_abs+1)^0,f,c
  3465  001CD0  4A15               	infsnz	??_abs^0,f,c
  3466  001CD2  2A16               	incf	(??_abs+1)^0,f,c
  3467  001CD4  C015  F013         	movff	??_abs,?_abs
  3468  001CD8  C016  F014         	movff	??_abs+1,?_abs+1
  3469  001CDC  EF74  F00E         	goto	l1087
  3470  001CE0                     l1084:
  3471  001CE0  C013  F013         	movff	abs@a,?_abs
  3472  001CE4  C014  F014         	movff	abs@a+1,?_abs+1
  3473  001CE8                     l1087:
  3474  001CE8  0012               	return		;funcret
  3475  001CEA                     __end_of_abs:
  3476                           	callstack 0
  3477                           
  3478 ;; *************** function ___aomod *****************
  3479 ;; Defined at:
  3480 ;;		line 9 in file "D:\XC8 compilador para el MPLAB\pic\sources\c99\common\aomod.c"
  3481 ;; Parameters:    Size  Location     Type
  3482 ;;  dividend        8    0[COMRAM] long long 
  3483 ;;  divisor         8    8[COMRAM] long long 
  3484 ;; Auto vars:     Size  Location     Type
  3485 ;;  sign            1   17[COMRAM] unsigned char 
  3486 ;;  counter         1   16[COMRAM] unsigned char 
  3487 ;; Return value:  Size  Location     Type
  3488 ;;                  8    0[COMRAM] long long 
  3489 ;; Registers used:
  3490 ;;		wreg, status,2, status,0
  3491 ;; Tracked objects:
  3492 ;;		On entry : 0/0
  3493 ;;		On exit  : 0/0
  3494 ;;		Unchanged: 0/0
  3495 ;; Data sizes:     COMRAM   BANK0   BANK1   BANK2   BANK3   BANK4   BANK5   BANK6   BANK7
  3496 ;;      Params:        16       0       0       0       0       0       0       0       0
  3497 ;;      Locals:         2       0       0       0       0       0       0       0       0
  3498 ;;      Temps:          0       0       0       0       0       0       0       0       0
  3499 ;;      Totals:        18       0       0       0       0       0       0       0       0
  3500 ;;Total ram usage:       18 bytes
  3501 ;; Hardware stack levels used: 1
  3502 ;; This function calls:
  3503 ;;		Nothing
  3504 ;; This function is called by:
  3505 ;;		_dtoa
  3506 ;; This function uses a non-reentrant model
  3507 ;;
  3508                           
  3509                           	psect	text20
  3510  00108C                     __ptext20:
  3511                           	callstack 0
  3512  00108C                     ___aomod:
  3513                           	callstack 25
  3514  00108C  0E00               	movlw	0
  3515  00108E  6E12               	movwf	___aomod@sign^0,c
  3516  001090  BE08               	btfsc	(___aomod@dividend+7)^0,7,c
  3517  001092  EF4F  F008         	goto	u1040
  3518  001096  EF4D  F008         	goto	u1041
  3519  00109A                     u1041:
  3520  00109A  EF61  F008         	goto	l1908
  3521  00109E                     u1040:
  3522  00109E  1E08               	comf	(___aomod@dividend+7)^0,f,c
  3523  0010A0  1E07               	comf	(___aomod@dividend+6)^0,f,c
  3524  0010A2  1E06               	comf	(___aomod@dividend+5)^0,f,c
  3525  0010A4  1E05               	comf	(___aomod@dividend+4)^0,f,c
  3526  0010A6  1E04               	comf	(___aomod@dividend+3)^0,f,c
  3527  0010A8  1E03               	comf	(___aomod@dividend+2)^0,f,c
  3528  0010AA  1E02               	comf	(___aomod@dividend+1)^0,f,c
  3529  0010AC  6C01               	negf	___aomod@dividend^0,c
  3530  0010AE  0E00               	movlw	0
  3531  0010B0  2202               	addwfc	(___aomod@dividend+1)^0,f,c
  3532  0010B2  2203               	addwfc	(___aomod@dividend+2)^0,f,c
  3533  0010B4  2204               	addwfc	(___aomod@dividend+3)^0,f,c
  3534  0010B6  2205               	addwfc	(___aomod@dividend+4)^0,f,c
  3535  0010B8  2206               	addwfc	(___aomod@dividend+5)^0,f,c
  3536  0010BA  2207               	addwfc	(___aomod@dividend+6)^0,f,c
  3537  0010BC  2208               	addwfc	(___aomod@dividend+7)^0,f,c
  3538  0010BE  0E01               	movlw	1
  3539  0010C0  6E12               	movwf	___aomod@sign^0,c
  3540  0010C2                     l1908:
  3541  0010C2  BE10               	btfsc	(___aomod@divisor+7)^0,7,c
  3542  0010C4  EF68  F008         	goto	u1050
  3543  0010C8  EF66  F008         	goto	u1051
  3544  0010CC                     u1051:
  3545  0010CC  EF78  F008         	goto	l1912
  3546  0010D0                     u1050:
  3547  0010D0  1E10               	comf	(___aomod@divisor+7)^0,f,c
  3548  0010D2  1E0F               	comf	(___aomod@divisor+6)^0,f,c
  3549  0010D4  1E0E               	comf	(___aomod@divisor+5)^0,f,c
  3550  0010D6  1E0D               	comf	(___aomod@divisor+4)^0,f,c
  3551  0010D8  1E0C               	comf	(___aomod@divisor+3)^0,f,c
  3552  0010DA  1E0B               	comf	(___aomod@divisor+2)^0,f,c
  3553  0010DC  1E0A               	comf	(___aomod@divisor+1)^0,f,c
  3554  0010DE  6C09               	negf	___aomod@divisor^0,c
  3555  0010E0  0E00               	movlw	0
  3556  0010E2  220A               	addwfc	(___aomod@divisor+1)^0,f,c
  3557  0010E4  220B               	addwfc	(___aomod@divisor+2)^0,f,c
  3558  0010E6  220C               	addwfc	(___aomod@divisor+3)^0,f,c
  3559  0010E8  220D               	addwfc	(___aomod@divisor+4)^0,f,c
  3560  0010EA  220E               	addwfc	(___aomod@divisor+5)^0,f,c
  3561  0010EC  220F               	addwfc	(___aomod@divisor+6)^0,f,c
  3562  0010EE  2210               	addwfc	(___aomod@divisor+7)^0,f,c
  3563  0010F0                     l1912:
  3564  0010F0  5009               	movf	___aomod@divisor^0,w,c
  3565  0010F2  100A               	iorwf	(___aomod@divisor+1)^0,w,c
  3566  0010F4  100B               	iorwf	(___aomod@divisor+2)^0,w,c
  3567  0010F6  100C               	iorwf	(___aomod@divisor+3)^0,w,c
  3568  0010F8  100D               	iorwf	(___aomod@divisor+4)^0,w,c
  3569  0010FA  100E               	iorwf	(___aomod@divisor+5)^0,w,c
  3570  0010FC  100F               	iorwf	(___aomod@divisor+6)^0,w,c
  3571  0010FE  1010               	iorwf	(___aomod@divisor+7)^0,w,c
  3572  001100  B4D8               	btfsc	status,2,c
  3573  001102  EF85  F008         	goto	u1061
  3574  001106  EF87  F008         	goto	u1060
  3575  00110A                     u1061:
  3576  00110A  EFCF  F008         	goto	l1928
  3577  00110E                     u1060:
  3578  00110E  0E01               	movlw	1
  3579  001110  6E11               	movwf	___aomod@counter^0,c
  3580  001112  EF95  F008         	goto	l1918
  3581  001116                     l1916:
  3582  001116  90D8               	bcf	status,0,c
  3583  001118  3609               	rlcf	___aomod@divisor^0,f,c
  3584  00111A  360A               	rlcf	(___aomod@divisor+1)^0,f,c
  3585  00111C  360B               	rlcf	(___aomod@divisor+2)^0,f,c
  3586  00111E  360C               	rlcf	(___aomod@divisor+3)^0,f,c
  3587  001120  360D               	rlcf	(___aomod@divisor+4)^0,f,c
  3588  001122  360E               	rlcf	(___aomod@divisor+5)^0,f,c
  3589  001124  360F               	rlcf	(___aomod@divisor+6)^0,f,c
  3590  001126  3610               	rlcf	(___aomod@divisor+7)^0,f,c
  3591  001128  2A11               	incf	___aomod@counter^0,f,c
  3592  00112A                     l1918:
  3593  00112A  AE10               	btfss	(___aomod@divisor+7)^0,7,c
  3594  00112C  EF9A  F008         	goto	u1071
  3595  001130  EF9C  F008         	goto	u1070
  3596  001134                     u1071:
  3597  001134  EF8B  F008         	goto	l1916
  3598  001138                     u1070:
  3599  001138                     l1920:
  3600  001138  5009               	movf	___aomod@divisor^0,w,c
  3601  00113A  5C01               	subwf	___aomod@dividend^0,w,c
  3602  00113C  500A               	movf	(___aomod@divisor+1)^0,w,c
  3603  00113E  5802               	subwfb	(___aomod@dividend+1)^0,w,c
  3604  001140  500B               	movf	(___aomod@divisor+2)^0,w,c
  3605  001142  5803               	subwfb	(___aomod@dividend+2)^0,w,c
  3606  001144  500C               	movf	(___aomod@divisor+3)^0,w,c
  3607  001146  5804               	subwfb	(___aomod@dividend+3)^0,w,c
  3608  001148  500D               	movf	(___aomod@divisor+4)^0,w,c
  3609  00114A  5805               	subwfb	(___aomod@dividend+4)^0,w,c
  3610  00114C  500E               	movf	(___aomod@divisor+5)^0,w,c
  3611  00114E  5806               	subwfb	(___aomod@dividend+5)^0,w,c
  3612  001150  500F               	movf	(___aomod@divisor+6)^0,w,c
  3613  001152  5807               	subwfb	(___aomod@dividend+6)^0,w,c
  3614  001154  5010               	movf	(___aomod@divisor+7)^0,w,c
  3615  001156  5808               	subwfb	(___aomod@dividend+7)^0,w,c
  3616  001158  A0D8               	btfss	status,0,c
  3617  00115A  EFB1  F008         	goto	u1081
  3618  00115E  EFB3  F008         	goto	u1080
  3619  001162                     u1081:
  3620  001162  EFC3  F008         	goto	l1924
  3621  001166                     u1080:
  3622  001166  5009               	movf	___aomod@divisor^0,w,c
  3623  001168  5E01               	subwf	___aomod@dividend^0,f,c
  3624  00116A  500A               	movf	(___aomod@divisor+1)^0,w,c
  3625  00116C  5A02               	subwfb	(___aomod@dividend+1)^0,f,c
  3626  00116E  500B               	movf	(___aomod@divisor+2)^0,w,c
  3627  001170  5A03               	subwfb	(___aomod@dividend+2)^0,f,c
  3628  001172  500C               	movf	(___aomod@divisor+3)^0,w,c
  3629  001174  5A04               	subwfb	(___aomod@dividend+3)^0,f,c
  3630  001176  500D               	movf	(___aomod@divisor+4)^0,w,c
  3631  001178  5A05               	subwfb	(___aomod@dividend+4)^0,f,c
  3632  00117A  500E               	movf	(___aomod@divisor+5)^0,w,c
  3633  00117C  5A06               	subwfb	(___aomod@dividend+5)^0,f,c
  3634  00117E  500F               	movf	(___aomod@divisor+6)^0,w,c
  3635  001180  5A07               	subwfb	(___aomod@dividend+6)^0,f,c
  3636  001182  5010               	movf	(___aomod@divisor+7)^0,w,c
  3637  001184  5A08               	subwfb	(___aomod@dividend+7)^0,f,c
  3638  001186                     l1924:
  3639  001186  90D8               	bcf	status,0,c
  3640  001188  3210               	rrcf	(___aomod@divisor+7)^0,f,c
  3641  00118A  320F               	rrcf	(___aomod@divisor+6)^0,f,c
  3642  00118C  320E               	rrcf	(___aomod@divisor+5)^0,f,c
  3643  00118E  320D               	rrcf	(___aomod@divisor+4)^0,f,c
  3644  001190  320C               	rrcf	(___aomod@divisor+3)^0,f,c
  3645  001192  320B               	rrcf	(___aomod@divisor+2)^0,f,c
  3646  001194  320A               	rrcf	(___aomod@divisor+1)^0,f,c
  3647  001196  3209               	rrcf	___aomod@divisor^0,f,c
  3648  001198  2E11               	decfsz	___aomod@counter^0,f,c
  3649  00119A  EF9C  F008         	goto	l1920
  3650  00119E                     l1928:
  3651  00119E  5012               	movf	___aomod@sign^0,w,c
  3652  0011A0  B4D8               	btfsc	status,2,c
  3653  0011A2  EFD5  F008         	goto	u1091
  3654  0011A6  EFD7  F008         	goto	u1090
  3655  0011AA                     u1091:
  3656  0011AA  EFE7  F008         	goto	l1932
  3657  0011AE                     u1090:
  3658  0011AE  1E08               	comf	(___aomod@dividend+7)^0,f,c
  3659  0011B0  1E07               	comf	(___aomod@dividend+6)^0,f,c
  3660  0011B2  1E06               	comf	(___aomod@dividend+5)^0,f,c
  3661  0011B4  1E05               	comf	(___aomod@dividend+4)^0,f,c
  3662  0011B6  1E04               	comf	(___aomod@dividend+3)^0,f,c
  3663  0011B8  1E03               	comf	(___aomod@dividend+2)^0,f,c
  3664  0011BA  1E02               	comf	(___aomod@dividend+1)^0,f,c
  3665  0011BC  6C01               	negf	___aomod@dividend^0,c
  3666  0011BE  0E00               	movlw	0
  3667  0011C0  2202               	addwfc	(___aomod@dividend+1)^0,f,c
  3668  0011C2  2203               	addwfc	(___aomod@dividend+2)^0,f,c
  3669  0011C4  2204               	addwfc	(___aomod@dividend+3)^0,f,c
  3670  0011C6  2205               	addwfc	(___aomod@dividend+4)^0,f,c
  3671  0011C8  2206               	addwfc	(___aomod@dividend+5)^0,f,c
  3672  0011CA  2207               	addwfc	(___aomod@dividend+6)^0,f,c
  3673  0011CC  2208               	addwfc	(___aomod@dividend+7)^0,f,c
  3674  0011CE                     l1932:
  3675  0011CE  C001  F001         	movff	___aomod@dividend,?___aomod
  3676  0011D2  C002  F002         	movff	___aomod@dividend+1,?___aomod+1
  3677  0011D6  C003  F003         	movff	___aomod@dividend+2,?___aomod+2
  3678  0011DA  C004  F004         	movff	___aomod@dividend+3,?___aomod+3
  3679  0011DE  C005  F005         	movff	___aomod@dividend+4,?___aomod+4
  3680  0011E2  C006  F006         	movff	___aomod@dividend+5,?___aomod+5
  3681  0011E6  C007  F007         	movff	___aomod@dividend+6,?___aomod+6
  3682  0011EA  C008  F008         	movff	___aomod@dividend+7,?___aomod+7
  3683  0011EE  0012               	return		;funcret
  3684  0011F0                     __end_of___aomod:
  3685                           	callstack 0
  3686                           
  3687 ;; *************** function ___aodiv *****************
  3688 ;; Defined at:
  3689 ;;		line 9 in file "D:\XC8 compilador para el MPLAB\pic\sources\c99\common\aodiv.c"
  3690 ;; Parameters:    Size  Location     Type
  3691 ;;  dividend        8    0[COMRAM] long long 
  3692 ;;  divisor         8    8[COMRAM] long long 
  3693 ;; Auto vars:     Size  Location     Type
  3694 ;;  quotient        8   18[COMRAM] long long 
  3695 ;;  sign            1   17[COMRAM] unsigned char 
  3696 ;;  counter         1   16[COMRAM] unsigned char 
  3697 ;; Return value:  Size  Location     Type
  3698 ;;                  8    0[COMRAM] long long 
  3699 ;; Registers used:
  3700 ;;		wreg, fsr2l, fsr2h, status,2, status,0
  3701 ;; Tracked objects:
  3702 ;;		On entry : 0/0
  3703 ;;		On exit  : 0/0
  3704 ;;		Unchanged: 0/0
  3705 ;; Data sizes:     COMRAM   BANK0   BANK1   BANK2   BANK3   BANK4   BANK5   BANK6   BANK7
  3706 ;;      Params:        16       0       0       0       0       0       0       0       0
  3707 ;;      Locals:        10       0       0       0       0       0       0       0       0
  3708 ;;      Temps:          0       0       0       0       0       0       0       0       0
  3709 ;;      Totals:        26       0       0       0       0       0       0       0       0
  3710 ;;Total ram usage:       26 bytes
  3711 ;; Hardware stack levels used: 1
  3712 ;; This function calls:
  3713 ;;		Nothing
  3714 ;; This function is called by:
  3715 ;;		_dtoa
  3716 ;; This function uses a non-reentrant model
  3717 ;;
  3718                           
  3719                           	psect	text21
  3720  000F04                     __ptext21:
  3721                           	callstack 0
  3722  000F04                     ___aodiv:
  3723                           	callstack 25
  3724  000F04  0E00               	movlw	0
  3725  000F06  6E12               	movwf	___aodiv@sign^0,c
  3726  000F08  BE10               	btfsc	(___aodiv@divisor+7)^0,7,c
  3727  000F0A  EF8B  F007         	goto	u970
  3728  000F0E  EF89  F007         	goto	u971
  3729  000F12                     u971:
  3730  000F12  EF9D  F007         	goto	l1864
  3731  000F16                     u970:
  3732  000F16  1E10               	comf	(___aodiv@divisor+7)^0,f,c
  3733  000F18  1E0F               	comf	(___aodiv@divisor+6)^0,f,c
  3734  000F1A  1E0E               	comf	(___aodiv@divisor+5)^0,f,c
  3735  000F1C  1E0D               	comf	(___aodiv@divisor+4)^0,f,c
  3736  000F1E  1E0C               	comf	(___aodiv@divisor+3)^0,f,c
  3737  000F20  1E0B               	comf	(___aodiv@divisor+2)^0,f,c
  3738  000F22  1E0A               	comf	(___aodiv@divisor+1)^0,f,c
  3739  000F24  6C09               	negf	___aodiv@divisor^0,c
  3740  000F26  0E00               	movlw	0
  3741  000F28  220A               	addwfc	(___aodiv@divisor+1)^0,f,c
  3742  000F2A  220B               	addwfc	(___aodiv@divisor+2)^0,f,c
  3743  000F2C  220C               	addwfc	(___aodiv@divisor+3)^0,f,c
  3744  000F2E  220D               	addwfc	(___aodiv@divisor+4)^0,f,c
  3745  000F30  220E               	addwfc	(___aodiv@divisor+5)^0,f,c
  3746  000F32  220F               	addwfc	(___aodiv@divisor+6)^0,f,c
  3747  000F34  2210               	addwfc	(___aodiv@divisor+7)^0,f,c
  3748  000F36  0E01               	movlw	1
  3749  000F38  6E12               	movwf	___aodiv@sign^0,c
  3750  000F3A                     l1864:
  3751  000F3A  BE08               	btfsc	(___aodiv@dividend+7)^0,7,c
  3752  000F3C  EFA4  F007         	goto	u980
  3753  000F40  EFA2  F007         	goto	u981
  3754  000F44                     u981:
  3755  000F44  EFB6  F007         	goto	l1870
  3756  000F48                     u980:
  3757  000F48  1E08               	comf	(___aodiv@dividend+7)^0,f,c
  3758  000F4A  1E07               	comf	(___aodiv@dividend+6)^0,f,c
  3759  000F4C  1E06               	comf	(___aodiv@dividend+5)^0,f,c
  3760  000F4E  1E05               	comf	(___aodiv@dividend+4)^0,f,c
  3761  000F50  1E04               	comf	(___aodiv@dividend+3)^0,f,c
  3762  000F52  1E03               	comf	(___aodiv@dividend+2)^0,f,c
  3763  000F54  1E02               	comf	(___aodiv@dividend+1)^0,f,c
  3764  000F56  6C01               	negf	___aodiv@dividend^0,c
  3765  000F58  0E00               	movlw	0
  3766  000F5A  2202               	addwfc	(___aodiv@dividend+1)^0,f,c
  3767  000F5C  2203               	addwfc	(___aodiv@dividend+2)^0,f,c
  3768  000F5E  2204               	addwfc	(___aodiv@dividend+3)^0,f,c
  3769  000F60  2205               	addwfc	(___aodiv@dividend+4)^0,f,c
  3770  000F62  2206               	addwfc	(___aodiv@dividend+5)^0,f,c
  3771  000F64  2207               	addwfc	(___aodiv@dividend+6)^0,f,c
  3772  000F66  2208               	addwfc	(___aodiv@dividend+7)^0,f,c
  3773  000F68  0E01               	movlw	1
  3774  000F6A  1A12               	xorwf	___aodiv@sign^0,f,c
  3775  000F6C                     l1870:
  3776  000F6C  EE20  F013         	lfsr	2,___aodiv@quotient
  3777  000F70  0E07               	movlw	7
  3778  000F72                     u991:
  3779  000F72  6ADE               	clrf	postinc2,c
  3780  000F74  06E8               	decf	wreg,f,c
  3781  000F76  E2FD               	bc	u991
  3782  000F78  5009               	movf	___aodiv@divisor^0,w,c
  3783  000F7A  100A               	iorwf	(___aodiv@divisor+1)^0,w,c
  3784  000F7C  100B               	iorwf	(___aodiv@divisor+2)^0,w,c
  3785  000F7E  100C               	iorwf	(___aodiv@divisor+3)^0,w,c
  3786  000F80  100D               	iorwf	(___aodiv@divisor+4)^0,w,c
  3787  000F82  100E               	iorwf	(___aodiv@divisor+5)^0,w,c
  3788  000F84  100F               	iorwf	(___aodiv@divisor+6)^0,w,c
  3789  000F86  1010               	iorwf	(___aodiv@divisor+7)^0,w,c
  3790  000F88  B4D8               	btfsc	status,2,c
  3791  000F8A  EFC9  F007         	goto	u1001
  3792  000F8E  EFCB  F007         	goto	u1000
  3793  000F92                     u1001:
  3794  000F92  EF1D  F008         	goto	l1892
  3795  000F96                     u1000:
  3796  000F96  0E01               	movlw	1
  3797  000F98  6E11               	movwf	___aodiv@counter^0,c
  3798  000F9A  EFD9  F007         	goto	l1878
  3799  000F9E                     l1876:
  3800  000F9E  90D8               	bcf	status,0,c
  3801  000FA0  3609               	rlcf	___aodiv@divisor^0,f,c
  3802  000FA2  360A               	rlcf	(___aodiv@divisor+1)^0,f,c
  3803  000FA4  360B               	rlcf	(___aodiv@divisor+2)^0,f,c
  3804  000FA6  360C               	rlcf	(___aodiv@divisor+3)^0,f,c
  3805  000FA8  360D               	rlcf	(___aodiv@divisor+4)^0,f,c
  3806  000FAA  360E               	rlcf	(___aodiv@divisor+5)^0,f,c
  3807  000FAC  360F               	rlcf	(___aodiv@divisor+6)^0,f,c
  3808  000FAE  3610               	rlcf	(___aodiv@divisor+7)^0,f,c
  3809  000FB0  2A11               	incf	___aodiv@counter^0,f,c
  3810  000FB2                     l1878:
  3811  000FB2  AE10               	btfss	(___aodiv@divisor+7)^0,7,c
  3812  000FB4  EFDE  F007         	goto	u1011
  3813  000FB8  EFE0  F007         	goto	u1010
  3814  000FBC                     u1011:
  3815  000FBC  EFCF  F007         	goto	l1876
  3816  000FC0                     u1010:
  3817  000FC0                     l1880:
  3818  000FC0  90D8               	bcf	status,0,c
  3819  000FC2  3613               	rlcf	___aodiv@quotient^0,f,c
  3820  000FC4  3614               	rlcf	(___aodiv@quotient+1)^0,f,c
  3821  000FC6  3615               	rlcf	(___aodiv@quotient+2)^0,f,c
  3822  000FC8  3616               	rlcf	(___aodiv@quotient+3)^0,f,c
  3823  000FCA  3617               	rlcf	(___aodiv@quotient+4)^0,f,c
  3824  000FCC  3618               	rlcf	(___aodiv@quotient+5)^0,f,c
  3825  000FCE  3619               	rlcf	(___aodiv@quotient+6)^0,f,c
  3826  000FD0  361A               	rlcf	(___aodiv@quotient+7)^0,f,c
  3827  000FD2  5009               	movf	___aodiv@divisor^0,w,c
  3828  000FD4  5C01               	subwf	___aodiv@dividend^0,w,c
  3829  000FD6  500A               	movf	(___aodiv@divisor+1)^0,w,c
  3830  000FD8  5802               	subwfb	(___aodiv@dividend+1)^0,w,c
  3831  000FDA  500B               	movf	(___aodiv@divisor+2)^0,w,c
  3832  000FDC  5803               	subwfb	(___aodiv@dividend+2)^0,w,c
  3833  000FDE  500C               	movf	(___aodiv@divisor+3)^0,w,c
  3834  000FE0  5804               	subwfb	(___aodiv@dividend+3)^0,w,c
  3835  000FE2  500D               	movf	(___aodiv@divisor+4)^0,w,c
  3836  000FE4  5805               	subwfb	(___aodiv@dividend+4)^0,w,c
  3837  000FE6  500E               	movf	(___aodiv@divisor+5)^0,w,c
  3838  000FE8  5806               	subwfb	(___aodiv@dividend+5)^0,w,c
  3839  000FEA  500F               	movf	(___aodiv@divisor+6)^0,w,c
  3840  000FEC  5807               	subwfb	(___aodiv@dividend+6)^0,w,c
  3841  000FEE  5010               	movf	(___aodiv@divisor+7)^0,w,c
  3842  000FF0  5808               	subwfb	(___aodiv@dividend+7)^0,w,c
  3843  000FF2  A0D8               	btfss	status,0,c
  3844  000FF4  EFFE  F007         	goto	u1021
  3845  000FF8  EF00  F008         	goto	u1020
  3846  000FFC                     u1021:
  3847  000FFC  EF11  F008         	goto	l1888
  3848  001000                     u1020:
  3849  001000  5009               	movf	___aodiv@divisor^0,w,c
  3850  001002  5E01               	subwf	___aodiv@dividend^0,f,c
  3851  001004  500A               	movf	(___aodiv@divisor+1)^0,w,c
  3852  001006  5A02               	subwfb	(___aodiv@dividend+1)^0,f,c
  3853  001008  500B               	movf	(___aodiv@divisor+2)^0,w,c
  3854  00100A  5A03               	subwfb	(___aodiv@dividend+2)^0,f,c
  3855  00100C  500C               	movf	(___aodiv@divisor+3)^0,w,c
  3856  00100E  5A04               	subwfb	(___aodiv@dividend+3)^0,f,c
  3857  001010  500D               	movf	(___aodiv@divisor+4)^0,w,c
  3858  001012  5A05               	subwfb	(___aodiv@dividend+4)^0,f,c
  3859  001014  500E               	movf	(___aodiv@divisor+5)^0,w,c
  3860  001016  5A06               	subwfb	(___aodiv@dividend+5)^0,f,c
  3861  001018  500F               	movf	(___aodiv@divisor+6)^0,w,c
  3862  00101A  5A07               	subwfb	(___aodiv@dividend+6)^0,f,c
  3863  00101C  5010               	movf	(___aodiv@divisor+7)^0,w,c
  3864  00101E  5A08               	subwfb	(___aodiv@dividend+7)^0,f,c
  3865  001020  8013               	bsf	___aodiv@quotient^0,0,c
  3866  001022                     l1888:
  3867  001022  90D8               	bcf	status,0,c
  3868  001024  3210               	rrcf	(___aodiv@divisor+7)^0,f,c
  3869  001026  320F               	rrcf	(___aodiv@divisor+6)^0,f,c
  3870  001028  320E               	rrcf	(___aodiv@divisor+5)^0,f,c
  3871  00102A  320D               	rrcf	(___aodiv@divisor+4)^0,f,c
  3872  00102C  320C               	rrcf	(___aodiv@divisor+3)^0,f,c
  3873  00102E  320B               	rrcf	(___aodiv@divisor+2)^0,f,c
  3874  001030  320A               	rrcf	(___aodiv@divisor+1)^0,f,c
  3875  001032  3209               	rrcf	___aodiv@divisor^0,f,c
  3876  001034  2E11               	decfsz	___aodiv@counter^0,f,c
  3877  001036  EFE0  F007         	goto	l1880
  3878  00103A                     l1892:
  3879  00103A  5012               	movf	___aodiv@sign^0,w,c
  3880  00103C  B4D8               	btfsc	status,2,c
  3881  00103E  EF23  F008         	goto	u1031
  3882  001042  EF25  F008         	goto	u1030
  3883  001046                     u1031:
  3884  001046  EF35  F008         	goto	l1896
  3885  00104A                     u1030:
  3886  00104A  1E1A               	comf	(___aodiv@quotient+7)^0,f,c
  3887  00104C  1E19               	comf	(___aodiv@quotient+6)^0,f,c
  3888  00104E  1E18               	comf	(___aodiv@quotient+5)^0,f,c
  3889  001050  1E17               	comf	(___aodiv@quotient+4)^0,f,c
  3890  001052  1E16               	comf	(___aodiv@quotient+3)^0,f,c
  3891  001054  1E15               	comf	(___aodiv@quotient+2)^0,f,c
  3892  001056  1E14               	comf	(___aodiv@quotient+1)^0,f,c
  3893  001058  6C13               	negf	___aodiv@quotient^0,c
  3894  00105A  0E00               	movlw	0
  3895  00105C  2214               	addwfc	(___aodiv@quotient+1)^0,f,c
  3896  00105E  2215               	addwfc	(___aodiv@quotient+2)^0,f,c
  3897  001060  2216               	addwfc	(___aodiv@quotient+3)^0,f,c
  3898  001062  2217               	addwfc	(___aodiv@quotient+4)^0,f,c
  3899  001064  2218               	addwfc	(___aodiv@quotient+5)^0,f,c
  3900  001066  2219               	addwfc	(___aodiv@quotient+6)^0,f,c
  3901  001068  221A               	addwfc	(___aodiv@quotient+7)^0,f,c
  3902  00106A                     l1896:
  3903  00106A  C013  F001         	movff	___aodiv@quotient,?___aodiv
  3904  00106E  C014  F002         	movff	___aodiv@quotient+1,?___aodiv+1
  3905  001072  C015  F003         	movff	___aodiv@quotient+2,?___aodiv+2
  3906  001076  C016  F004         	movff	___aodiv@quotient+3,?___aodiv+3
  3907  00107A  C017  F005         	movff	___aodiv@quotient+4,?___aodiv+4
  3908  00107E  C018  F006         	movff	___aodiv@quotient+5,?___aodiv+5
  3909  001082  C019  F007         	movff	___aodiv@quotient+6,?___aodiv+6
  3910  001086  C01A  F008         	movff	___aodiv@quotient+7,?___aodiv+7
  3911  00108A  0012               	return		;funcret
  3912  00108C                     __end_of___aodiv:
  3913                           	callstack 0
  3914                           
  3915 ;; *************** function _LCD_String_xy *****************
  3916 ;; Defined at:
  3917 ;;		line 87 in file "LCD.c"
  3918 ;; Parameters:    Size  Location     Type
  3919 ;;  row             1    wreg     unsigned char 
  3920 ;;  pos             1    4[COMRAM] unsigned char 
  3921 ;;  msg             2    5[COMRAM] PTR const unsigned char 
  3922 ;;		 -> STR_4(14), STR_3(14), STR_2(15), STR_1(15), 
  3923 ;;		 -> Cadena(10), 
  3924 ;; Auto vars:     Size  Location     Type
  3925 ;;  row             1    7[COMRAM] unsigned char 
  3926 ;;  location        1    8[COMRAM] unsigned char 
  3927 ;; Return value:  Size  Location     Type
  3928 ;;                  1    wreg      void 
  3929 ;; Registers used:
  3930 ;;		wreg, fsr1l, fsr1h, status,2, status,0, tblptrl, tblptrh, tblptru, cstack
  3931 ;; Tracked objects:
  3932 ;;		On entry : 0/0
  3933 ;;		On exit  : 0/0
  3934 ;;		Unchanged: 0/0
  3935 ;; Data sizes:     COMRAM   BANK0   BANK1   BANK2   BANK3   BANK4   BANK5   BANK6   BANK7
  3936 ;;      Params:         3       0       0       0       0       0       0       0       0
  3937 ;;      Locals:         2       0       0       0       0       0       0       0       0
  3938 ;;      Temps:          0       0       0       0       0       0       0       0       0
  3939 ;;      Totals:         5       0       0       0       0       0       0       0       0
  3940 ;;Total ram usage:        5 bytes
  3941 ;; Hardware stack levels used: 1
  3942 ;; Hardware stack levels required when called: 2
  3943 ;; This function calls:
  3944 ;;		_LCD_Command
  3945 ;;		_LCD_String
  3946 ;; This function is called by:
  3947 ;;		_PedirDato
  3948 ;;		_MostrarHumedad
  3949 ;;		_MostrarTemperatura
  3950 ;; This function uses a non-reentrant model
  3951 ;;
  3952                           
  3953                           	psect	text22
  3954  001CEA                     __ptext22:
  3955                           	callstack 0
  3956  001CEA                     _LCD_String_xy:
  3957                           	callstack 26
  3958                           
  3959                           ;incstack = 0
  3960                           ;LCD_String_xy@row stored from wreg
  3961  001CEA  6E08               	movwf	LCD_String_xy@row^0,c
  3962  001CEC                     
  3963                           ;LCD.c: 90:     if(row<=1)
  3964  001CEC  0E02               	movlw	2
  3965  001CEE  6008               	cpfslt	LCD_String_xy@row^0,c
  3966  001CF0  EF7C  F00E         	goto	u1371
  3967  001CF4  EF7E  F00E         	goto	u1370
  3968  001CF8                     u1371:
  3969  001CF8  EF87  F00E         	goto	l2124
  3970  001CFC                     u1370:
  3971  001CFC                     
  3972                           ;LCD.c: 91:     {;LCD.c: 92:         location = (0x80) | ((pos) & 0x0f);
  3973  001CFC  5005               	movf	LCD_String_xy@pos^0,w,c
  3974  001CFE  0B0F               	andlw	15
  3975  001D00  0980               	iorlw	128
  3976  001D02  6E09               	movwf	LCD_String_xy@location^0,c
  3977  001D04                     
  3978                           ;LCD.c: 93:         LCD_Command(location);
  3979  001D04  5009               	movf	LCD_String_xy@location^0,w,c
  3980  001D06  EC0B  F00E         	call	_LCD_Command
  3981                           
  3982                           ;LCD.c: 94:     }
  3983  001D0A  EF8E  F00E         	goto	l2128
  3984  001D0E                     l2124:
  3985                           
  3986                           ;LCD.c: 96:     {;LCD.c: 97:         location = (0xC0) | ((pos) & 0x0f);
  3987  001D0E  5005               	movf	LCD_String_xy@pos^0,w,c
  3988  001D10  0B0F               	andlw	15
  3989  001D12  09C0               	iorlw	192
  3990  001D14  6E09               	movwf	LCD_String_xy@location^0,c
  3991  001D16                     
  3992                           ;LCD.c: 98:         LCD_Command(location);
  3993  001D16  5009               	movf	LCD_String_xy@location^0,w,c
  3994  001D18  EC0B  F00E         	call	_LCD_Command
  3995  001D1C                     l2128:
  3996                           
  3997                           ;LCD.c: 102:     LCD_String(msg);
  3998  001D1C  C006  F003         	movff	LCD_String_xy@msg,LCD_String@msg
  3999  001D20  C007  F004         	movff	LCD_String_xy@msg+1,LCD_String@msg+1
  4000  001D24  EC32  F00D         	call	_LCD_String	;wreg free
  4001  001D28  0012               	return		;funcret
  4002  001D2A                     __end_of_LCD_String_xy:
  4003                           	callstack 0
  4004                           
  4005 ;; *************** function _LCD_String *****************
  4006 ;; Defined at:
  4007 ;;		line 74 in file "LCD.c"
  4008 ;; Parameters:    Size  Location     Type
  4009 ;;  msg             2    2[COMRAM] PTR const unsigned char 
  4010 ;;		 -> STR_4(14), STR_3(14), STR_2(15), STR_1(15), 
  4011 ;;		 -> Cadena(10), 
  4012 ;; Auto vars:     Size  Location     Type
  4013 ;;		None
  4014 ;; Return value:  Size  Location     Type
  4015 ;;                  1    wreg      void 
  4016 ;; Registers used:
  4017 ;;		wreg, fsr1l, fsr1h, status,2, status,0, tblptrl, tblptrh, tblptru, cstack
  4018 ;; Tracked objects:
  4019 ;;		On entry : 0/0
  4020 ;;		On exit  : 0/0
  4021 ;;		Unchanged: 0/0
  4022 ;; Data sizes:     COMRAM   BANK0   BANK1   BANK2   BANK3   BANK4   BANK5   BANK6   BANK7
  4023 ;;      Params:         2       0       0       0       0       0       0       0       0
  4024 ;;      Locals:         0       0       0       0       0       0       0       0       0
  4025 ;;      Temps:          0       0       0       0       0       0       0       0       0
  4026 ;;      Totals:         2       0       0       0       0       0       0       0       0
  4027 ;;Total ram usage:        2 bytes
  4028 ;; Hardware stack levels used: 1
  4029 ;; Hardware stack levels required when called: 1
  4030 ;; This function calls:
  4031 ;;		_LCD_Char
  4032 ;; This function is called by:
  4033 ;;		_LCD_String_xy
  4034 ;;		_MostrarHumedad
  4035 ;;		_MostrarTemperatura
  4036 ;; This function uses a non-reentrant model
  4037 ;;
  4038                           
  4039                           	psect	text23
  4040  001A64                     __ptext23:
  4041                           	callstack 0
  4042  001A64                     _LCD_String:
  4043                           	callstack 26
  4044  001A64                     
  4045                           ;LCD.c: 74: void LCD_String(const char *msg);LCD.c: 75: {;LCD.c: 76:  while((*msg)!=0)
  4046  001A64  EF48  F00D         	goto	l2070
  4047  001A68                     l2066:
  4048                           
  4049                           ;LCD.c: 77:  {;LCD.c: 78:    LCD_Char(*msg);
  4050  001A68  C003  FFF6         	movff	LCD_String@msg,tblptrl
  4051  001A6C  C004  FFF7         	movff	LCD_String@msg+1,tblptrh
  4052  001A70  6AF8               	clrf	tblptru,c
  4053  001A72  0E07               	movlw	(high __ramtop+-1)
  4054  001A74  64F7               	cpfsgt	tblptrh,c
  4055  001A76  D003               	bra	u1307
  4056  001A78  0008               	tblrd		*
  4057  001A7A  50F5               	movf	tablat,w,c
  4058  001A7C  D005               	bra	u1300
  4059  001A7E                     u1307:
  4060  001A7E  CFF6 FFE1          	movff	tblptrl,fsr1l
  4061  001A82  CFF7 FFE2          	movff	tblptrh,fsr1h
  4062  001A86  50E7               	movf	indf1,w,c
  4063  001A88                     u1300:
  4064  001A88  ECE3  F00D         	call	_LCD_Char
  4065  001A8C                     
  4066                           ;LCD.c: 79:    msg++;
  4067  001A8C  4A03               	infsnz	LCD_String@msg^0,f,c
  4068  001A8E  2A04               	incf	(LCD_String@msg+1)^0,f,c
  4069  001A90                     l2070:
  4070                           
  4071                           ;LCD.c: 76:  while((*msg)!=0)
  4072  001A90  C003  FFF6         	movff	LCD_String@msg,tblptrl
  4073  001A94  C004  FFF7         	movff	LCD_String@msg+1,tblptrh
  4074  001A98  6AF8               	clrf	tblptru,c
  4075  001A9A  0E07               	movlw	(high __ramtop+-1)
  4076  001A9C  64F7               	cpfsgt	tblptrh,c
  4077  001A9E  D003               	bra	u1317
  4078  001AA0  0008               	tblrd		*
  4079  001AA2  50F5               	movf	tablat,w,c
  4080  001AA4  D005               	bra	u1310
  4081  001AA6                     u1317:
  4082  001AA6  CFF6 FFE1          	movff	tblptrl,fsr1l
  4083  001AAA  CFF7 FFE2          	movff	tblptrh,fsr1h
  4084  001AAE  50E7               	movf	indf1,w,c
  4085  001AB0                     u1310:
  4086  001AB0  0900               	iorlw	0
  4087  001AB2  A4D8               	btfss	status,2,c
  4088  001AB4  EF5E  F00D         	goto	u1321
  4089  001AB8  EF60  F00D         	goto	u1320
  4090  001ABC                     u1321:
  4091  001ABC  EF34  F00D         	goto	l2066
  4092  001AC0                     u1320:
  4093  001AC0  0012               	return		;funcret
  4094  001AC2                     __end_of_LCD_String:
  4095                           	callstack 0
  4096                           
  4097 ;; *************** function _LCD_Char *****************
  4098 ;; Defined at:
  4099 ;;		line 57 in file "LCD.c"
  4100 ;; Parameters:    Size  Location     Type
  4101 ;;  dat             1    wreg     unsigned char 
  4102 ;; Auto vars:     Size  Location     Type
  4103 ;;  dat             1    1[COMRAM] unsigned char 
  4104 ;; Return value:  Size  Location     Type
  4105 ;;                  1    wreg      void 
  4106 ;; Registers used:
  4107 ;;		wreg, status,2, status,0
  4108 ;; Tracked objects:
  4109 ;;		On entry : 0/0
  4110 ;;		On exit  : 0/0
  4111 ;;		Unchanged: 0/0
  4112 ;; Data sizes:     COMRAM   BANK0   BANK1   BANK2   BANK3   BANK4   BANK5   BANK6   BANK7
  4113 ;;      Params:         0       0       0       0       0       0       0       0       0
  4114 ;;      Locals:         1       0       0       0       0       0       0       0       0
  4115 ;;      Temps:          1       0       0       0       0       0       0       0       0
  4116 ;;      Totals:         2       0       0       0       0       0       0       0       0
  4117 ;;Total ram usage:        2 bytes
  4118 ;; Hardware stack levels used: 1
  4119 ;; This function calls:
  4120 ;;		Nothing
  4121 ;; This function is called by:
  4122 ;;		_LCD_String
  4123 ;;		_PedirDato
  4124 ;;		_MostrarHumedad
  4125 ;;		_MostrarTemperatura
  4126 ;; This function uses a non-reentrant model
  4127 ;;
  4128                           
  4129                           	psect	text24
  4130  001BC6                     __ptext24:
  4131                           	callstack 0
  4132  001BC6                     _LCD_Char:
  4133                           	callstack 26
  4134                           
  4135                           ;incstack = 0
  4136                           ;LCD_Char@dat stored from wreg
  4137  001BC6  6E02               	movwf	LCD_Char@dat^0,c
  4138  001BC8                     
  4139                           ;LCD.c: 57: void LCD_Char(unsigned char dat);LCD.c: 58: {;LCD.c: 59:  LATD = (LATD & 0x0
      +                          f) | (0xF0 & dat);
  4140  001BC8  C002  F001         	movff	LCD_Char@dat,??_LCD_Char
  4141  001BCC  0EF0               	movlw	240
  4142  001BCE  1601               	andwf	??_LCD_Char^0,f,c
  4143  001BD0  508C               	movf	140,w,c	;volatile
  4144  001BD2  0B0F               	andlw	15
  4145  001BD4  1001               	iorwf	??_LCD_Char^0,w,c
  4146  001BD6  6E8C               	movwf	140,c	;volatile
  4147  001BD8                     
  4148                           ;LCD.c: 60:  LATD0 = 1;
  4149  001BD8  808C               	bsf	3980,0,c	;volatile
  4150  001BDA                     
  4151                           ;LCD.c: 61:  LATD1 = 1;
  4152  001BDA  828C               	bsf	3980,1,c	;volatile
  4153  001BDC                     
  4154                           ;LCD.c: 62:  __nop();
  4155  001BDC  F000               	nop	
  4156  001BDE                     
  4157                           ;LCD.c: 63:  LATD1 = 0;
  4158  001BDE  928C               	bcf	3980,1,c	;volatile
  4159  001BE0                     
  4160                           ;LCD.c: 64:  _delay((unsigned long)((1)*(8000000L/4000.0)));
  4161  001BE0  0E03               	movlw	3
  4162  001BE2  6E01               	movwf	??_LCD_Char^0,c
  4163  001BE4  0E98               	movlw	152
  4164  001BE6                     u1907:
  4165  001BE6  2EE8               	decfsz	wreg,f,c
  4166  001BE8  D7FE               	bra	u1907
  4167  001BEA  2E01               	decfsz	??_LCD_Char^0,f,c
  4168  001BEC  D7FC               	bra	u1907
  4169  001BEE                     
  4170                           ;LCD.c: 65:     LATD = (LATD & 0x0f) | (dat<<4);
  4171  001BEE  C002  F001         	movff	LCD_Char@dat,??_LCD_Char
  4172  001BF2  3A01               	swapf	??_LCD_Char^0,f,c
  4173  001BF4  0EF0               	movlw	240
  4174  001BF6  1601               	andwf	??_LCD_Char^0,f,c
  4175  001BF8  508C               	movf	140,w,c	;volatile
  4176  001BFA  0B0F               	andlw	15
  4177  001BFC  1001               	iorwf	??_LCD_Char^0,w,c
  4178  001BFE  6E8C               	movwf	140,c	;volatile
  4179  001C00                     
  4180                           ;LCD.c: 66:  LATD1 = 1;
  4181  001C00  828C               	bsf	3980,1,c	;volatile
  4182  001C02                     
  4183                           ;LCD.c: 67:  __nop();
  4184  001C02  F000               	nop	
  4185  001C04                     
  4186                           ;LCD.c: 68:  LATD1 = 0;
  4187  001C04  928C               	bcf	3980,1,c	;volatile
  4188                           
  4189                           ;LCD.c: 69:  _delay((unsigned long)((3)*(8000000L/4000.0)));
  4190  001C06  0E08               	movlw	8
  4191  001C08  6E01               	movwf	??_LCD_Char^0,c
  4192  001C0A  0ECA               	movlw	202
  4193  001C0C                     u1917:
  4194  001C0C  2EE8               	decfsz	wreg,f,c
  4195  001C0E  D7FE               	bra	u1917
  4196  001C10  2E01               	decfsz	??_LCD_Char^0,f,c
  4197  001C12  D7FC               	bra	u1917
  4198  001C14  0012               	return		;funcret
  4199  001C16                     __end_of_LCD_Char:
  4200                           	callstack 0
  4201                           
  4202 ;; *************** function _LCD_Init *****************
  4203 ;; Defined at:
  4204 ;;		line 26 in file "LCD.c"
  4205 ;; Parameters:    Size  Location     Type
  4206 ;;		None
  4207 ;; Auto vars:     Size  Location     Type
  4208 ;;		None
  4209 ;; Return value:  Size  Location     Type
  4210 ;;                  1    wreg      void 
  4211 ;; Registers used:
  4212 ;;		wreg, status,2, status,0, cstack
  4213 ;; Tracked objects:
  4214 ;;		On entry : 0/0
  4215 ;;		On exit  : 0/0
  4216 ;;		Unchanged: 0/0
  4217 ;; Data sizes:     COMRAM   BANK0   BANK1   BANK2   BANK3   BANK4   BANK5   BANK6   BANK7
  4218 ;;      Params:         0       0       0       0       0       0       0       0       0
  4219 ;;      Locals:         0       0       0       0       0       0       0       0       0
  4220 ;;      Temps:          1       0       0       0       0       0       0       0       0
  4221 ;;      Totals:         1       0       0       0       0       0       0       0       0
  4222 ;;Total ram usage:        1 bytes
  4223 ;; Hardware stack levels used: 1
  4224 ;; Hardware stack levels required when called: 1
  4225 ;; This function calls:
  4226 ;;		_LCD_Command
  4227 ;; This function is called by:
  4228 ;;		_main
  4229 ;; This function uses a non-reentrant model
  4230 ;;
  4231                           
  4232                           	psect	text25
  4233  001DD4                     __ptext25:
  4234                           	callstack 0
  4235  001DD4                     _LCD_Init:
  4236                           	callstack 29
  4237  001DD4                     
  4238                           ;LCD.c: 28:     TRISD = 0;
  4239  001DD4  0E00               	movlw	0
  4240  001DD6  6E95               	movwf	149,c	;volatile
  4241  001DD8                     
  4242                           ;LCD.c: 29:     _delay((unsigned long)((15)*(8000000L/4000.0)));
  4243  001DD8  0E27               	movlw	39
  4244  001DDA  6E03               	movwf	??_LCD_Init^0,c
  4245  001DDC  0EF5               	movlw	245
  4246  001DDE                     u1927:
  4247  001DDE  2EE8               	decfsz	wreg,f,c
  4248  001DE0  D7FE               	bra	u1927
  4249  001DE2  2E03               	decfsz	??_LCD_Init^0,f,c
  4250  001DE4  D7FC               	bra	u1927
  4251  001DE6  F000               	nop	
  4252  001DE8                     
  4253                           ;LCD.c: 30:     LCD_Command(0x02);
  4254  001DE8  0E02               	movlw	2
  4255  001DEA  EC0B  F00E         	call	_LCD_Command
  4256  001DEE                     
  4257                           ;LCD.c: 32:     LCD_Command(0x28);
  4258  001DEE  0E28               	movlw	40
  4259  001DF0  EC0B  F00E         	call	_LCD_Command
  4260  001DF4                     
  4261                           ;LCD.c: 34:  LCD_Command(0x01);
  4262  001DF4  0E01               	movlw	1
  4263  001DF6  EC0B  F00E         	call	_LCD_Command
  4264  001DFA                     
  4265                           ;LCD.c: 35:     LCD_Command(0x0c);
  4266  001DFA  0E0C               	movlw	12
  4267  001DFC  EC0B  F00E         	call	_LCD_Command
  4268  001E00                     
  4269                           ;LCD.c: 36:  LCD_Command(0x06);
  4270  001E00  0E06               	movlw	6
  4271  001E02  EC0B  F00E         	call	_LCD_Command
  4272  001E06  0012               	return		;funcret
  4273  001E08                     __end_of_LCD_Init:
  4274                           	callstack 0
  4275                           
  4276 ;; *************** function _LCD_Command *****************
  4277 ;; Defined at:
  4278 ;;		line 41 in file "LCD.c"
  4279 ;; Parameters:    Size  Location     Type
  4280 ;;  cmd             1    wreg     unsigned char 
  4281 ;; Auto vars:     Size  Location     Type
  4282 ;;  cmd             1    1[COMRAM] unsigned char 
  4283 ;; Return value:  Size  Location     Type
  4284 ;;                  1    wreg      void 
  4285 ;; Registers used:
  4286 ;;		wreg, status,2, status,0
  4287 ;; Tracked objects:
  4288 ;;		On entry : 0/0
  4289 ;;		On exit  : 0/0
  4290 ;;		Unchanged: 0/0
  4291 ;; Data sizes:     COMRAM   BANK0   BANK1   BANK2   BANK3   BANK4   BANK5   BANK6   BANK7
  4292 ;;      Params:         0       0       0       0       0       0       0       0       0
  4293 ;;      Locals:         1       0       0       0       0       0       0       0       0
  4294 ;;      Temps:          1       0       0       0       0       0       0       0       0
  4295 ;;      Totals:         2       0       0       0       0       0       0       0       0
  4296 ;;Total ram usage:        2 bytes
  4297 ;; Hardware stack levels used: 1
  4298 ;; This function calls:
  4299 ;;		Nothing
  4300 ;; This function is called by:
  4301 ;;		_LCD_Init
  4302 ;;		_LCD_String_xy
  4303 ;;		_LCD_Clear
  4304 ;;		_PedirDato
  4305 ;; This function uses a non-reentrant model
  4306 ;;
  4307                           
  4308                           	psect	text26
  4309  001C16                     __ptext26:
  4310                           	callstack 0
  4311  001C16                     _LCD_Command:
  4312                           	callstack 27
  4313                           
  4314                           ;incstack = 0
  4315                           ;LCD_Command@cmd stored from wreg
  4316  001C16  6E02               	movwf	LCD_Command@cmd^0,c
  4317  001C18                     
  4318                           ;LCD.c: 41: void LCD_Command(unsigned char cmd );LCD.c: 42: {;LCD.c: 43:  LATD = (LATD &
      +                           0x0f) |(0xF0 & cmd);
  4319  001C18  C002  F001         	movff	LCD_Command@cmd,??_LCD_Command
  4320  001C1C  0EF0               	movlw	240
  4321  001C1E  1601               	andwf	??_LCD_Command^0,f,c
  4322  001C20  508C               	movf	140,w,c	;volatile
  4323  001C22  0B0F               	andlw	15
  4324  001C24  1001               	iorwf	??_LCD_Command^0,w,c
  4325  001C26  6E8C               	movwf	140,c	;volatile
  4326  001C28                     
  4327                           ;LCD.c: 44:  LATD0 = 0;
  4328  001C28  908C               	bcf	3980,0,c	;volatile
  4329  001C2A                     
  4330                           ;LCD.c: 45:  LATD1 = 1;
  4331  001C2A  828C               	bsf	3980,1,c	;volatile
  4332  001C2C                     
  4333                           ;LCD.c: 46:  __nop();
  4334  001C2C  F000               	nop	
  4335  001C2E                     
  4336                           ;LCD.c: 47:  LATD1 = 0;
  4337  001C2E  928C               	bcf	3980,1,c	;volatile
  4338  001C30                     
  4339                           ;LCD.c: 48:  _delay((unsigned long)((1)*(8000000L/4000.0)));
  4340  001C30  0E03               	movlw	3
  4341  001C32  6E01               	movwf	??_LCD_Command^0,c
  4342  001C34  0E98               	movlw	152
  4343  001C36                     u1937:
  4344  001C36  2EE8               	decfsz	wreg,f,c
  4345  001C38  D7FE               	bra	u1937
  4346  001C3A  2E01               	decfsz	??_LCD_Command^0,f,c
  4347  001C3C  D7FC               	bra	u1937
  4348  001C3E                     
  4349                           ;LCD.c: 49:     LATD = (LATD & 0x0f) | (cmd<<4);
  4350  001C3E  C002  F001         	movff	LCD_Command@cmd,??_LCD_Command
  4351  001C42  3A01               	swapf	??_LCD_Command^0,f,c
  4352  001C44  0EF0               	movlw	240
  4353  001C46  1601               	andwf	??_LCD_Command^0,f,c
  4354  001C48  508C               	movf	140,w,c	;volatile
  4355  001C4A  0B0F               	andlw	15
  4356  001C4C  1001               	iorwf	??_LCD_Command^0,w,c
  4357  001C4E  6E8C               	movwf	140,c	;volatile
  4358  001C50                     
  4359                           ;LCD.c: 50:  LATD1 = 1;
  4360  001C50  828C               	bsf	3980,1,c	;volatile
  4361  001C52                     
  4362                           ;LCD.c: 51:  __nop();
  4363  001C52  F000               	nop	
  4364  001C54                     
  4365                           ;LCD.c: 52:  LATD1 = 0;
  4366  001C54  928C               	bcf	3980,1,c	;volatile
  4367                           
  4368                           ;LCD.c: 53:  _delay((unsigned long)((3)*(8000000L/4000.0)));
  4369  001C56  0E08               	movlw	8
  4370  001C58  6E01               	movwf	??_LCD_Command^0,c
  4371  001C5A  0ECA               	movlw	202
  4372  001C5C                     u1947:
  4373  001C5C  2EE8               	decfsz	wreg,f,c
  4374  001C5E  D7FE               	bra	u1947
  4375  001C60  2E01               	decfsz	??_LCD_Command^0,f,c
  4376  001C62  D7FC               	bra	u1947
  4377  001C64  0012               	return		;funcret
  4378  001C66                     __end_of_LCD_Command:
  4379                           	callstack 0
  4380                           
  4381 ;; *************** function _DatosSensorTH *****************
  4382 ;; Defined at:
  4383 ;;		line 57 in file "DHT11.c"
  4384 ;; Parameters:    Size  Location     Type
  4385 ;;  Datos           2    2[COMRAM] PTR unsigned char 
  4386 ;;		 -> Datos(2), 
  4387 ;; Auto vars:     Size  Location     Type
  4388 ;;  T_Integral      1    5[COMRAM] unsigned char 
  4389 ;;  RH_Integral     1    4[COMRAM] unsigned char 
  4390 ;;  Checksum        1    0        unsigned char 
  4391 ;;  T_Decimal       1    0        unsigned char 
  4392 ;;  RH_Decimal      1    0        unsigned char 
  4393 ;; Return value:  Size  Location     Type
  4394 ;;                  1    wreg      void 
  4395 ;; Registers used:
  4396 ;;		wreg, fsr2l, fsr2h, status,2, status,0, cstack
  4397 ;; Tracked objects:
  4398 ;;		On entry : 0/0
  4399 ;;		On exit  : 0/0
  4400 ;;		Unchanged: 0/0
  4401 ;; Data sizes:     COMRAM   BANK0   BANK1   BANK2   BANK3   BANK4   BANK5   BANK6   BANK7
  4402 ;;      Params:         2       0       0       0       0       0       0       0       0
  4403 ;;      Locals:         2       0       0       0       0       0       0       0       0
  4404 ;;      Temps:          0       0       0       0       0       0       0       0       0
  4405 ;;      Totals:         4       0       0       0       0       0       0       0       0
  4406 ;;Total ram usage:        4 bytes
  4407 ;; Hardware stack levels used: 1
  4408 ;; Hardware stack levels required when called: 1
  4409 ;; This function calls:
  4410 ;;		_DHT11_CheckResponse
  4411 ;;		_DHT11_ReadData
  4412 ;;		_DHT11_Start
  4413 ;; This function is called by:
  4414 ;;		_main
  4415 ;; This function uses a non-reentrant model
  4416 ;;
  4417                           
  4418                           	psect	text27
  4419  001D2A                     __ptext27:
  4420                           	callstack 0
  4421  001D2A                     _DatosSensorTH:
  4422                           	callstack 29
  4423  001D2A                     
  4424                           ;DHT11.c: 58:          char RH_Decimal,RH_Integral,T_Decimal,T_Integral;;DHT11.c: 59:   
      +                                 char Checksum;;DHT11.c: 60:          DHT11_Start();
  4425  001D2A  EC42  F00F         	call	_DHT11_Start	;wreg free
  4426  001D2E                     
  4427                           ;DHT11.c: 61:          DHT11_CheckResponse();
  4428  001D2E  EC04  F00F         	call	_DHT11_CheckResponse	;wreg free
  4429  001D32                     
  4430                           ;DHT11.c: 64:          RH_Integral = DHT11_ReadData();
  4431  001D32  EC61  F00D         	call	_DHT11_ReadData	;wreg free
  4432  001D36  6E05               	movwf	DatosSensorTH@RH_Integral^0,c
  4433  001D38  EC61  F00D         	call	_DHT11_ReadData	;wreg free
  4434  001D3C                     
  4435                           ;DHT11.c: 68:          T_Integral = DHT11_ReadData();
  4436  001D3C  EC61  F00D         	call	_DHT11_ReadData	;wreg free
  4437  001D40  6E06               	movwf	DatosSensorTH@T_Integral^0,c
  4438  001D42  EC61  F00D         	call	_DHT11_ReadData	;wreg free
  4439  001D46  EC61  F00D         	call	_DHT11_ReadData	;wreg free
  4440  001D4A                     
  4441                           ;DHT11.c: 74:          Datos[0]=T_Integral;
  4442  001D4A  C003  FFD9         	movff	DatosSensorTH@Datos,fsr2l
  4443  001D4E  C004  FFDA         	movff	DatosSensorTH@Datos+1,fsr2h
  4444  001D52  C006  FFDF         	movff	DatosSensorTH@T_Integral,indf2
  4445  001D56                     
  4446                           ;DHT11.c: 75:          Datos[1]=RH_Integral;
  4447  001D56  EE20 F001          	lfsr	2,1
  4448  001D5A  5003               	movf	DatosSensorTH@Datos^0,w,c
  4449  001D5C  26D9               	addwf	fsr2l,f,c
  4450  001D5E  5004               	movf	(DatosSensorTH@Datos+1)^0,w,c
  4451  001D60  22DA               	addwfc	fsr2h,f,c
  4452  001D62  C005  FFDF         	movff	DatosSensorTH@RH_Integral,indf2
  4453  001D66  0012               	return		;funcret
  4454  001D68                     __end_of_DatosSensorTH:
  4455                           	callstack 0
  4456                           
  4457 ;; *************** function _DHT11_Start *****************
  4458 ;; Defined at:
  4459 ;;		line 31 in file "DHT11.c"
  4460 ;; Parameters:    Size  Location     Type
  4461 ;;		None
  4462 ;; Auto vars:     Size  Location     Type
  4463 ;;		None
  4464 ;; Return value:  Size  Location     Type
  4465 ;;                  1    wreg      void 
  4466 ;; Registers used:
  4467 ;;		wreg
  4468 ;; Tracked objects:
  4469 ;;		On entry : 0/0
  4470 ;;		On exit  : 0/0
  4471 ;;		Unchanged: 0/0
  4472 ;; Data sizes:     COMRAM   BANK0   BANK1   BANK2   BANK3   BANK4   BANK5   BANK6   BANK7
  4473 ;;      Params:         0       0       0       0       0       0       0       0       0
  4474 ;;      Locals:         0       0       0       0       0       0       0       0       0
  4475 ;;      Temps:          1       0       0       0       0       0       0       0       0
  4476 ;;      Totals:         1       0       0       0       0       0       0       0       0
  4477 ;;Total ram usage:        1 bytes
  4478 ;; Hardware stack levels used: 1
  4479 ;; This function calls:
  4480 ;;		Nothing
  4481 ;; This function is called by:
  4482 ;;		_DatosSensorTH
  4483 ;; This function uses a non-reentrant model
  4484 ;;
  4485                           
  4486                           	psect	text28
  4487  001E84                     __ptext28:
  4488                           	callstack 0
  4489  001E84                     _DHT11_Start:
  4490                           	callstack 29
  4491  001E84                     
  4492                           ;DHT11.c: 34:     TRISAbits.RA0 = 0;
  4493  001E84  9092               	bcf	146,0,c	;volatile
  4494                           
  4495                           ;DHT11.c: 35:     LATA0 = 0;
  4496  001E86  9089               	bcf	3977,0,c	;volatile
  4497  001E88                     
  4498                           ;DHT11.c: 36:     _delay((unsigned long)((18)*(8000000L/4000.0)));
  4499  001E88  0E2F               	movlw	47
  4500  001E8A  6E01               	movwf	??_DHT11_Start^0,c
  4501  001E8C  0EC0               	movlw	192
  4502  001E8E                     u1957:
  4503  001E8E  2EE8               	decfsz	wreg,f,c
  4504  001E90  D7FE               	bra	u1957
  4505  001E92  2E01               	decfsz	??_DHT11_Start^0,f,c
  4506  001E94  D7FC               	bra	u1957
  4507  001E96                     
  4508                           ;DHT11.c: 37:     LATA0 = 1;
  4509  001E96  8089               	bsf	3977,0,c	;volatile
  4510                           
  4511                           ;DHT11.c: 38:     _delay((unsigned long)((20)*(8000000L/4000000.0)));
  4512  001E98  0E0D               	movlw	13
  4513  001E9A                     u1967:
  4514  001E9A  2EE8               	decfsz	wreg,f,c
  4515  001E9C  D7FE               	bra	u1967
  4516  001E9E  F000               	nop	
  4517  001EA0                     
  4518                           ;DHT11.c: 39:     TRISAbits.RA0 = 1;
  4519  001EA0  8092               	bsf	146,0,c	;volatile
  4520  001EA2  0012               	return		;funcret
  4521  001EA4                     __end_of_DHT11_Start:
  4522                           	callstack 0
  4523                           
  4524 ;; *************** function _DHT11_ReadData *****************
  4525 ;; Defined at:
  4526 ;;		line 14 in file "DHT11.c"
  4527 ;; Parameters:    Size  Location     Type
  4528 ;;		None
  4529 ;; Auto vars:     Size  Location     Type
  4530 ;;  data            1    1[COMRAM] unsigned char 
  4531 ;;  i               1    0[COMRAM] unsigned char 
  4532 ;; Return value:  Size  Location     Type
  4533 ;;                  1    wreg      unsigned char 
  4534 ;; Registers used:
  4535 ;;		wreg, status,2, status,0
  4536 ;; Tracked objects:
  4537 ;;		On entry : 0/0
  4538 ;;		On exit  : 0/0
  4539 ;;		Unchanged: 0/0
  4540 ;; Data sizes:     COMRAM   BANK0   BANK1   BANK2   BANK3   BANK4   BANK5   BANK6   BANK7
  4541 ;;      Params:         0       0       0       0       0       0       0       0       0
  4542 ;;      Locals:         2       0       0       0       0       0       0       0       0
  4543 ;;      Temps:          0       0       0       0       0       0       0       0       0
  4544 ;;      Totals:         2       0       0       0       0       0       0       0       0
  4545 ;;Total ram usage:        2 bytes
  4546 ;; Hardware stack levels used: 1
  4547 ;; This function calls:
  4548 ;;		Nothing
  4549 ;; This function is called by:
  4550 ;;		_DatosSensorTH
  4551 ;; This function uses a non-reentrant model
  4552 ;;
  4553                           
  4554                           	psect	text29
  4555  001AC2                     __ptext29:
  4556                           	callstack 0
  4557  001AC2                     _DHT11_ReadData:
  4558                           	callstack 29
  4559  001AC2                     
  4560                           ;DHT11.c: 16:   char i,data = 0;
  4561  001AC2  0E00               	movlw	0
  4562  001AC4  6E02               	movwf	DHT11_ReadData@data^0,c
  4563                           
  4564                           ;DHT11.c: 17:     for(i=0;i<8;i++)
  4565  001AC6  0E00               	movlw	0
  4566  001AC8  6E01               	movwf	DHT11_ReadData@i^0,c
  4567  001ACA                     l214:
  4568  001ACA  A080               	btfss	128,0,c	;volatile
  4569  001ACC  EF6A  F00D         	goto	u1571
  4570  001AD0  EF6C  F00D         	goto	u1570
  4571  001AD4                     u1571:
  4572  001AD4  EF65  F00D         	goto	l214
  4573  001AD8                     u1570:
  4574  001AD8                     
  4575                           ;DHT11.c: 20:         _delay((unsigned long)((30)*(8000000L/4000000.0)));
  4576  001AD8  0E14               	movlw	20
  4577  001ADA                     u1977:
  4578  001ADA  2EE8               	decfsz	wreg,f,c
  4579  001ADC  D7FE               	bra	u1977
  4580  001ADE                     
  4581                           ;DHT11.c: 21:         if(PORTAbits.RA0 & 1)
  4582  001ADE  A080               	btfss	128,0,c	;volatile
  4583  001AE0  EF74  F00D         	goto	u1581
  4584  001AE4  EF76  F00D         	goto	u1580
  4585  001AE8                     u1581:
  4586  001AE8  EF7A  F00D         	goto	l2292
  4587  001AEC                     u1580:
  4588  001AEC                     
  4589                           ;DHT11.c: 22:           data = ((data<<1) | 1);
  4590  001AEC  80D8               	bsf	status,0,c
  4591  001AEE  3602               	rlcf	DHT11_ReadData@data^0,f,c
  4592  001AF0  EF7D  F00D         	goto	l219
  4593  001AF4                     l2292:
  4594                           
  4595                           ;DHT11.c: 24:           data = (data<<1);
  4596  001AF4  5002               	movf	DHT11_ReadData@data^0,w,c
  4597  001AF6  2402               	addwf	DHT11_ReadData@data^0,w,c
  4598  001AF8  6E02               	movwf	DHT11_ReadData@data^0,c
  4599  001AFA                     l219:
  4600  001AFA  B080               	btfsc	128,0,c	;volatile
  4601  001AFC  EF82  F00D         	goto	u1591
  4602  001B00  EF84  F00D         	goto	u1590
  4603  001B04                     u1591:
  4604  001B04  EF7D  F00D         	goto	l219
  4605  001B08                     u1590:
  4606  001B08                     
  4607                           ;DHT11.c: 26:     }
  4608  001B08  2A01               	incf	DHT11_ReadData@i^0,f,c
  4609  001B0A  0E07               	movlw	7
  4610  001B0C  6401               	cpfsgt	DHT11_ReadData@i^0,c
  4611  001B0E  EF8B  F00D         	goto	u1601
  4612  001B12  EF8D  F00D         	goto	u1600
  4613  001B16                     u1601:
  4614  001B16  EF65  F00D         	goto	l214
  4615  001B1A                     u1600:
  4616  001B1A                     
  4617                           ;DHT11.c: 27:   return data;
  4618  001B1A  5002               	movf	DHT11_ReadData@data^0,w,c
  4619  001B1C  0012               	return		;funcret
  4620  001B1E                     __end_of_DHT11_ReadData:
  4621                           	callstack 0
  4622                           
  4623 ;; *************** function _DHT11_CheckResponse *****************
  4624 ;; Defined at:
  4625 ;;		line 45 in file "DHT11.c"
  4626 ;; Parameters:    Size  Location     Type
  4627 ;;		None
  4628 ;; Auto vars:     Size  Location     Type
  4629 ;;		None
  4630 ;; Return value:  Size  Location     Type
  4631 ;;                  1    wreg      void 
  4632 ;; Registers used:
  4633 ;;		None
  4634 ;; Tracked objects:
  4635 ;;		On entry : 0/0
  4636 ;;		On exit  : 0/0
  4637 ;;		Unchanged: 0/0
  4638 ;; Data sizes:     COMRAM   BANK0   BANK1   BANK2   BANK3   BANK4   BANK5   BANK6   BANK7
  4639 ;;      Params:         0       0       0       0       0       0       0       0       0
  4640 ;;      Locals:         0       0       0       0       0       0       0       0       0
  4641 ;;      Temps:          0       0       0       0       0       0       0       0       0
  4642 ;;      Totals:         0       0       0       0       0       0       0       0       0
  4643 ;;Total ram usage:        0 bytes
  4644 ;; Hardware stack levels used: 1
  4645 ;; This function calls:
  4646 ;;		Nothing
  4647 ;; This function is called by:
  4648 ;;		_DatosSensorTH
  4649 ;; This function uses a non-reentrant model
  4650 ;;
  4651                           
  4652                           	psect	text30
  4653  001E08                     __ptext30:
  4654                           	callstack 0
  4655  001E08                     _DHT11_CheckResponse:
  4656                           	callstack 29
  4657  001E08                     l228:
  4658  001E08  B080               	btfsc	128,0,c	;volatile
  4659  001E0A  EF09  F00F         	goto	u1611
  4660  001E0E  EF0B  F00F         	goto	u1610
  4661  001E12                     u1611:
  4662  001E12  EF04  F00F         	goto	l228
  4663  001E16                     u1610:
  4664  001E16                     l231:
  4665  001E16  A080               	btfss	128,0,c	;volatile
  4666  001E18  EF10  F00F         	goto	u1621
  4667  001E1C  EF12  F00F         	goto	u1620
  4668  001E20                     u1621:
  4669  001E20  EF0B  F00F         	goto	l231
  4670  001E24                     u1620:
  4671  001E24                     l234:
  4672  001E24  B080               	btfsc	128,0,c	;volatile
  4673  001E26  EF17  F00F         	goto	u1631
  4674  001E2A  EF19  F00F         	goto	u1630
  4675  001E2E                     u1631:
  4676  001E2E  EF12  F00F         	goto	l234
  4677  001E32                     u1630:
  4678  001E32  0012               	return		;funcret
  4679  001E34                     __end_of_DHT11_CheckResponse:
  4680                           	callstack 0
  4681                           
  4682 ;; *************** function _DatoDigitadoAEntero *****************
  4683 ;; Defined at:
  4684 ;;		line 138 in file "keypad.c"
  4685 ;; Parameters:    Size  Location     Type
  4686 ;;  prmTemperatu    2    6[COMRAM] PTR unsigned char 
  4687 ;;		 -> Humedad(2), Temperatura(2), 
  4688 ;; Auto vars:     Size  Location     Type
  4689 ;;  Decena          2   13[COMRAM] int 
  4690 ;;  Resultado       2   11[COMRAM] int 
  4691 ;;  Unidad          2    9[COMRAM] int 
  4692 ;; Return value:  Size  Location     Type
  4693 ;;                  2    6[COMRAM] int 
  4694 ;; Registers used:
  4695 ;;		wreg, fsr2l, fsr2h, status,2, status,0, prodl, prodh, cstack
  4696 ;; Tracked objects:
  4697 ;;		On entry : 0/0
  4698 ;;		On exit  : 0/0
  4699 ;;		Unchanged: 0/0
  4700 ;; Data sizes:     COMRAM   BANK0   BANK1   BANK2   BANK3   BANK4   BANK5   BANK6   BANK7
  4701 ;;      Params:         2       0       0       0       0       0       0       0       0
  4702 ;;      Locals:         6       0       0       0       0       0       0       0       0
  4703 ;;      Temps:          1       0       0       0       0       0       0       0       0
  4704 ;;      Totals:         9       0       0       0       0       0       0       0       0
  4705 ;;Total ram usage:        9 bytes
  4706 ;; Hardware stack levels used: 1
  4707 ;; Hardware stack levels required when called: 1
  4708 ;; This function calls:
  4709 ;;		___wmul
  4710 ;; This function is called by:
  4711 ;;		_main
  4712 ;; This function uses a non-reentrant model
  4713 ;;
  4714                           
  4715                           	psect	text31
  4716  0018AC                     __ptext31:
  4717                           	callstack 0
  4718  0018AC                     _DatoDigitadoAEntero:
  4719                           	callstack 29
  4720  0018AC                     
  4721                           ;keypad.c: 140:     int Unidad = 0;
  4722  0018AC  0E00               	movlw	0
  4723  0018AE  6E0B               	movwf	(DatoDigitadoAEntero@Unidad+1)^0,c
  4724  0018B0  0E00               	movlw	0
  4725  0018B2  6E0A               	movwf	DatoDigitadoAEntero@Unidad^0,c
  4726                           
  4727                           ;keypad.c: 142:     int Resultado=0;
  4728  0018B4  0E00               	movlw	0
  4729  0018B6  6E0D               	movwf	(DatoDigitadoAEntero@Resultado+1)^0,c
  4730  0018B8  0E00               	movlw	0
  4731  0018BA  6E0C               	movwf	DatoDigitadoAEntero@Resultado^0,c
  4732  0018BC                     
  4733                           ;keypad.c: 144:     Decena = prmTemperatura[0]-'0';
  4734  0018BC  C007  FFD9         	movff	DatoDigitadoAEntero@prmTemperatura,fsr2l
  4735  0018C0  C008  FFDA         	movff	DatoDigitadoAEntero@prmTemperatura+1,fsr2h
  4736  0018C4  50DF               	movf	indf2,w,c
  4737  0018C6  6E09               	movwf	??_DatoDigitadoAEntero^0,c
  4738  0018C8  0ED0               	movlw	208
  4739  0018CA  2409               	addwf	??_DatoDigitadoAEntero^0,w,c
  4740  0018CC  6E0E               	movwf	DatoDigitadoAEntero@Decena^0,c
  4741  0018CE  6A0F               	clrf	(DatoDigitadoAEntero@Decena+1)^0,c
  4742  0018D0  0EFF               	movlw	255
  4743  0018D2  220F               	addwfc	(DatoDigitadoAEntero@Decena+1)^0,f,c
  4744  0018D4                     
  4745                           ;keypad.c: 145:     Unidad = prmTemperatura[1]-'0';
  4746  0018D4  EE20 F001          	lfsr	2,1
  4747  0018D8  5007               	movf	DatoDigitadoAEntero@prmTemperatura^0,w,c
  4748  0018DA  26D9               	addwf	fsr2l,f,c
  4749  0018DC  5008               	movf	(DatoDigitadoAEntero@prmTemperatura+1)^0,w,c
  4750  0018DE  22DA               	addwfc	fsr2h,f,c
  4751  0018E0  50DF               	movf	indf2,w,c
  4752  0018E2  6E09               	movwf	??_DatoDigitadoAEntero^0,c
  4753  0018E4  0ED0               	movlw	208
  4754  0018E6  2409               	addwf	??_DatoDigitadoAEntero^0,w,c
  4755  0018E8  6E0A               	movwf	DatoDigitadoAEntero@Unidad^0,c
  4756  0018EA  6A0B               	clrf	(DatoDigitadoAEntero@Unidad+1)^0,c
  4757  0018EC  0EFF               	movlw	255
  4758  0018EE  220B               	addwfc	(DatoDigitadoAEntero@Unidad+1)^0,f,c
  4759  0018F0                     
  4760                           ;keypad.c: 147:     Decena = Decena * 10;
  4761  0018F0  C00E  F001         	movff	DatoDigitadoAEntero@Decena,___wmul@multiplier
  4762  0018F4  C00F  F002         	movff	DatoDigitadoAEntero@Decena+1,___wmul@multiplier+1
  4763  0018F8  0E00               	movlw	0
  4764  0018FA  6E04               	movwf	(___wmul@multiplicand+1)^0,c
  4765  0018FC  0E0A               	movlw	10
  4766  0018FE  6E03               	movwf	___wmul@multiplicand^0,c
  4767  001900  EC2F  F00F         	call	___wmul	;wreg free
  4768  001904  C001  F00E         	movff	?___wmul,DatoDigitadoAEntero@Decena
  4769  001908  C002  F00F         	movff	?___wmul+1,DatoDigitadoAEntero@Decena+1
  4770  00190C                     
  4771                           ;keypad.c: 148:     Resultado = Decena + Unidad;
  4772  00190C  500A               	movf	DatoDigitadoAEntero@Unidad^0,w,c
  4773  00190E  240E               	addwf	DatoDigitadoAEntero@Decena^0,w,c
  4774  001910  6E0C               	movwf	DatoDigitadoAEntero@Resultado^0,c
  4775  001912  500B               	movf	(DatoDigitadoAEntero@Unidad+1)^0,w,c
  4776  001914  200F               	addwfc	(DatoDigitadoAEntero@Decena+1)^0,w,c
  4777  001916  6E0D               	movwf	(DatoDigitadoAEntero@Resultado+1)^0,c
  4778  001918                     
  4779                           ;keypad.c: 150:     return Resultado;
  4780  001918  C00C  F007         	movff	DatoDigitadoAEntero@Resultado,?_DatoDigitadoAEntero
  4781  00191C  C00D  F008         	movff	DatoDigitadoAEntero@Resultado+1,?_DatoDigitadoAEntero+1
  4782  001920  0012               	return		;funcret
  4783  001922                     __end_of_DatoDigitadoAEntero:
  4784                           	callstack 0
  4785                           
  4786 ;; *************** function ___wmul *****************
  4787 ;; Defined at:
  4788 ;;		line 15 in file "D:\XC8 compilador para el MPLAB\pic\sources\c99\common\Umul16.c"
  4789 ;; Parameters:    Size  Location     Type
  4790 ;;  multiplier      2    0[COMRAM] unsigned int 
  4791 ;;  multiplicand    2    2[COMRAM] unsigned int 
  4792 ;; Auto vars:     Size  Location     Type
  4793 ;;  product         2    4[COMRAM] unsigned int 
  4794 ;; Return value:  Size  Location     Type
  4795 ;;                  2    0[COMRAM] unsigned int 
  4796 ;; Registers used:
  4797 ;;		wreg, status,2, status,0, prodl, prodh
  4798 ;; Tracked objects:
  4799 ;;		On entry : 0/0
  4800 ;;		On exit  : 0/0
  4801 ;;		Unchanged: 0/0
  4802 ;; Data sizes:     COMRAM   BANK0   BANK1   BANK2   BANK3   BANK4   BANK5   BANK6   BANK7
  4803 ;;      Params:         4       0       0       0       0       0       0       0       0
  4804 ;;      Locals:         2       0       0       0       0       0       0       0       0
  4805 ;;      Temps:          0       0       0       0       0       0       0       0       0
  4806 ;;      Totals:         6       0       0       0       0       0       0       0       0
  4807 ;;Total ram usage:        6 bytes
  4808 ;; Hardware stack levels used: 1
  4809 ;; This function calls:
  4810 ;;		Nothing
  4811 ;; This function is called by:
  4812 ;;		_DatoDigitadoAEntero
  4813 ;; This function uses a non-reentrant model
  4814 ;;
  4815                           
  4816                           	psect	text32
  4817  001E5E                     __ptext32:
  4818                           	callstack 0
  4819  001E5E                     ___wmul:
  4820                           	callstack 29
  4821  001E5E  5001               	movf	___wmul@multiplier^0,w,c
  4822  001E60  0203               	mulwf	___wmul@multiplicand^0,c
  4823  001E62  CFF3 F005          	movff	prodl,___wmul@product
  4824  001E66  CFF4 F006          	movff	prodh,___wmul@product+1
  4825  001E6A  5001               	movf	___wmul@multiplier^0,w,c
  4826  001E6C  0204               	mulwf	(___wmul@multiplicand+1)^0,c
  4827  001E6E  50F3               	movf	243,w,c
  4828  001E70  2606               	addwf	(___wmul@product+1)^0,f,c
  4829  001E72  5002               	movf	(___wmul@multiplier+1)^0,w,c
  4830  001E74  0203               	mulwf	___wmul@multiplicand^0,c
  4831  001E76  50F3               	movf	243,w,c
  4832  001E78  2606               	addwf	(___wmul@product+1)^0,f,c
  4833  001E7A  C005  F001         	movff	___wmul@product,?___wmul
  4834  001E7E  C006  F002         	movff	___wmul@product+1,?___wmul+1
  4835  001E82  0012               	return		;funcret
  4836  001E84                     __end_of___wmul:
  4837                           	callstack 0
  4838                           
  4839 ;; *************** function _ControlTemperaturaCalefactorVentilador *****************
  4840 ;; Defined at:
  4841 ;;		line 114 in file "Actuadores.c"
  4842 ;; Parameters:    Size  Location     Type
  4843 ;;  TempActual      2    0[COMRAM] PTR unsigned char 
  4844 ;;		 -> Datos(2), 
  4845 ;;  TempDigitada    2    2[COMRAM] int 
  4846 ;;  MargenErrorT    2    4[COMRAM] int 
  4847 ;; Auto vars:     Size  Location     Type
  4848 ;;		None
  4849 ;; Return value:  Size  Location     Type
  4850 ;;                  1    wreg      void 
  4851 ;; Registers used:
  4852 ;;		wreg, fsr2l, fsr2h, status,2, status,0, cstack
  4853 ;; Tracked objects:
  4854 ;;		On entry : 0/0
  4855 ;;		On exit  : 0/0
  4856 ;;		Unchanged: 0/0
  4857 ;; Data sizes:     COMRAM   BANK0   BANK1   BANK2   BANK3   BANK4   BANK5   BANK6   BANK7
  4858 ;;      Params:         6       0       0       0       0       0       0       0       0
  4859 ;;      Locals:         0       0       0       0       0       0       0       0       0
  4860 ;;      Temps:          5       0       0       0       0       0       0       0       0
  4861 ;;      Totals:        11       0       0       0       0       0       0       0       0
  4862 ;;Total ram usage:       11 bytes
  4863 ;; Hardware stack levels used: 1
  4864 ;; Hardware stack levels required when called: 1
  4865 ;; This function calls:
  4866 ;;		_ApagarCalefactor
  4867 ;;		_ApagarVentiladores
  4868 ;;		_PrenderCalefactor
  4869 ;;		_PrenderVentiladores
  4870 ;; This function is called by:
  4871 ;;		_main
  4872 ;; This function uses a non-reentrant model
  4873 ;;
  4874                           
  4875                           	psect	text33
  4876  001690                     __ptext33:
  4877                           	callstack 0
  4878  001690                     _ControlTemperaturaCalefactorVentilador:
  4879                           	callstack 29
  4880  001690                     
  4881                           ;Actuadores.c: 115:     if(*TempActual>TempDigitada+MargenErrorT){
  4882  001690  C001  FFD9         	movff	ControlTemperaturaCalefactorVentilador@TempActual,fsr2l
  4883  001694  C002  FFDA         	movff	ControlTemperaturaCalefactorVentilador@TempActual+1,fsr2h
  4884  001698  50DF               	movf	indf2,w,c
  4885  00169A  6E07               	movwf	??_ControlTemperaturaCalefactorVentilador^0,c
  4886  00169C  6A08               	clrf	(??_ControlTemperaturaCalefactorVentilador+1)^0,c
  4887  00169E  5005               	movf	ControlTemperaturaCalefactorVentilador@MargenErrorT^0,w,c
  4888  0016A0  2403               	addwf	ControlTemperaturaCalefactorVentilador@TempDigitada^0,w,c
  4889  0016A2  6E09               	movwf	(??_ControlTemperaturaCalefactorVentilador+2)^0,c
  4890  0016A4  5006               	movf	(ControlTemperaturaCalefactorVentilador@MargenErrorT+1)^0,w,c
  4891  0016A6  2004               	addwfc	(ControlTemperaturaCalefactorVentilador@TempDigitada+1)^0,w,c
  4892  0016A8  6E0A               	movwf	(??_ControlTemperaturaCalefactorVentilador+3)^0,c
  4893  0016AA  5007               	movf	??_ControlTemperaturaCalefactorVentilador^0,w,c
  4894  0016AC  5C09               	subwf	(??_ControlTemperaturaCalefactorVentilador+2)^0,w,c
  4895  0016AE  500A               	movf	(??_ControlTemperaturaCalefactorVentilador+3)^0,w,c
  4896  0016B0  0A80               	xorlw	128
  4897  0016B2  6E0B               	movwf	(??_ControlTemperaturaCalefactorVentilador+4)^0,c
  4898  0016B4  5008               	movf	(??_ControlTemperaturaCalefactorVentilador+1)^0,w,c
  4899  0016B6  0A80               	xorlw	128
  4900  0016B8  580B               	subwfb	(??_ControlTemperaturaCalefactorVentilador+4)^0,w,c
  4901  0016BA  B0D8               	btfsc	status,0,c
  4902  0016BC  EF62  F00B         	goto	u1761
  4903  0016C0  EF64  F00B         	goto	u1760
  4904  0016C4                     u1761:
  4905  0016C4  EF74  F00B         	goto	l2446
  4906  0016C8                     u1760:
  4907  0016C8                     
  4908                           ;Actuadores.c: 116:         if(VentiladoresEncendidosHum!=1){
  4909  0016C8  0100               	movlb	0	; () banked
  4910  0016CA  0570               	decf	_VentiladoresEncendidosHum& (0+255),w,b
  4911  0016CC  B4D8               	btfsc	status,2,c
  4912  0016CE  EF6B  F00B         	goto	u1771
  4913  0016D2  EF6D  F00B         	goto	u1770
  4914  0016D6                     u1771:
  4915  0016D6  EFA4  F00B         	goto	l327
  4916  0016DA                     u1770:
  4917  0016DA                     
  4918                           ; BSR set to: 0
  4919                           ;Actuadores.c: 117:         PrenderVentiladores();
  4920  0016DA  EC65  F00F         	call	_PrenderVentiladores	;wreg free
  4921  0016DE                     
  4922                           ;Actuadores.c: 118:         VentiladoresEncendidosTemp=1;
  4923  0016DE  0E01               	movlw	1
  4924  0016E0  0100               	movlb	0	; () banked
  4925  0016E2  6F71               	movwf	_VentiladoresEncendidosTemp& (0+255),b
  4926  0016E4  EFA4  F00B         	goto	l327
  4927  0016E8                     l2446:
  4928  0016E8  5005               	movf	ControlTemperaturaCalefactorVentilador@MargenErrorT^0,w,c
  4929  0016EA  5C03               	subwf	ControlTemperaturaCalefactorVentilador@TempDigitada^0,w,c
  4930  0016EC  6E07               	movwf	??_ControlTemperaturaCalefactorVentilador^0,c
  4931  0016EE  5006               	movf	(ControlTemperaturaCalefactorVentilador@MargenErrorT+1)^0,w,c
  4932  0016F0  5804               	subwfb	(ControlTemperaturaCalefactorVentilador@TempDigitada+1)^0,w,c
  4933  0016F2  6E08               	movwf	(??_ControlTemperaturaCalefactorVentilador+1)^0,c
  4934  0016F4  C001  FFD9         	movff	ControlTemperaturaCalefactorVentilador@TempActual,fsr2l
  4935  0016F8  C002  FFDA         	movff	ControlTemperaturaCalefactorVentilador@TempActual+1,fsr2h
  4936  0016FC  50DF               	movf	indf2,w,c
  4937  0016FE  6E09               	movwf	(??_ControlTemperaturaCalefactorVentilador+2)^0,c
  4938  001700  6A0A               	clrf	(??_ControlTemperaturaCalefactorVentilador+3)^0,c
  4939  001702  5007               	movf	??_ControlTemperaturaCalefactorVentilador^0,w,c
  4940  001704  5C09               	subwf	(??_ControlTemperaturaCalefactorVentilador+2)^0,w,c
  4941  001706  500A               	movf	(??_ControlTemperaturaCalefactorVentilador+3)^0,w,c
  4942  001708  0A80               	xorlw	128
  4943  00170A  6E0B               	movwf	(??_ControlTemperaturaCalefactorVentilador+4)^0,c
  4944  00170C  5008               	movf	(??_ControlTemperaturaCalefactorVentilador+1)^0,w,c
  4945  00170E  0A80               	xorlw	128
  4946  001710  580B               	subwfb	(??_ControlTemperaturaCalefactorVentilador+4)^0,w,c
  4947  001712  B0D8               	btfsc	status,0,c
  4948  001714  EF8E  F00B         	goto	u1781
  4949  001718  EF90  F00B         	goto	u1780
  4950  00171C                     u1781:
  4951  00171C  EF94  F00B         	goto	l2450
  4952  001720                     u1780:
  4953  001720                     
  4954                           ;Actuadores.c: 121:         PrenderCalefactor();
  4955  001720  EC76  F00F         	call	_PrenderCalefactor	;wreg free
  4956                           
  4957                           ;Actuadores.c: 123:     }else{
  4958  001724  EFA4  F00B         	goto	l327
  4959  001728                     l2450:
  4960                           
  4961                           ;Actuadores.c: 124:         ApagarCalefactor();
  4962  001728  EC78  F00F         	call	_ApagarCalefactor	;wreg free
  4963  00172C                     
  4964                           ;Actuadores.c: 125:         if(VentiladoresEncendidosHum!=1){
  4965  00172C  0100               	movlb	0	; () banked
  4966  00172E  0570               	decf	_VentiladoresEncendidosHum& (0+255),w,b
  4967  001730  B4D8               	btfsc	status,2,c
  4968  001732  EF9D  F00B         	goto	u1791
  4969  001736  EF9F  F00B         	goto	u1790
  4970  00173A                     u1791:
  4971  00173A  EFA4  F00B         	goto	l327
  4972  00173E                     u1790:
  4973  00173E                     
  4974                           ; BSR set to: 0
  4975                           ;Actuadores.c: 126:           ApagarVentiladores();
  4976  00173E  EC6B  F00F         	call	_ApagarVentiladores	;wreg free
  4977  001742                     
  4978                           ;Actuadores.c: 127:           VentiladoresEncendidosTemp=0;
  4979  001742  0E00               	movlw	0
  4980  001744  0100               	movlb	0	; () banked
  4981  001746  6F71               	movwf	_VentiladoresEncendidosTemp& (0+255),b
  4982  001748                     l327:
  4983  001748  0012               	return		;funcret
  4984  00174A                     __end_of_ControlTemperaturaCalefactorVentilador:
  4985                           	callstack 0
  4986                           
  4987 ;; *************** function _PrenderCalefactor *****************
  4988 ;; Defined at:
  4989 ;;		line 53 in file "Actuadores.c"
  4990 ;; Parameters:    Size  Location     Type
  4991 ;;		None
  4992 ;; Auto vars:     Size  Location     Type
  4993 ;;		None
  4994 ;; Return value:  Size  Location     Type
  4995 ;;                  1    wreg      void 
  4996 ;; Registers used:
  4997 ;;		None
  4998 ;; Tracked objects:
  4999 ;;		On entry : 0/0
  5000 ;;		On exit  : 0/0
  5001 ;;		Unchanged: 0/0
  5002 ;; Data sizes:     COMRAM   BANK0   BANK1   BANK2   BANK3   BANK4   BANK5   BANK6   BANK7
  5003 ;;      Params:         0       0       0       0       0       0       0       0       0
  5004 ;;      Locals:         0       0       0       0       0       0       0       0       0
  5005 ;;      Temps:          0       0       0       0       0       0       0       0       0
  5006 ;;      Totals:         0       0       0       0       0       0       0       0       0
  5007 ;;Total ram usage:        0 bytes
  5008 ;; Hardware stack levels used: 1
  5009 ;; This function calls:
  5010 ;;		Nothing
  5011 ;; This function is called by:
  5012 ;;		_ControlTemperaturaCalefactorVentilador
  5013 ;; This function uses a non-reentrant model
  5014 ;;
  5015                           
  5016                           	psect	text34
  5017  001EEC                     __ptext34:
  5018                           	callstack 0
  5019  001EEC                     _PrenderCalefactor:
  5020                           	callstack 29
  5021  001EEC                     
  5022                           ;Actuadores.c: 54:     LATC7=1;
  5023  001EEC  8E8B               	bsf	3979,7,c	;volatile
  5024  001EEE  0012               	return		;funcret
  5025  001EF0                     __end_of_PrenderCalefactor:
  5026                           	callstack 0
  5027                           
  5028 ;; *************** function _ApagarCalefactor *****************
  5029 ;; Defined at:
  5030 ;;		line 32 in file "Actuadores.c"
  5031 ;; Parameters:    Size  Location     Type
  5032 ;;		None
  5033 ;; Auto vars:     Size  Location     Type
  5034 ;;		None
  5035 ;; Return value:  Size  Location     Type
  5036 ;;                  1    wreg      void 
  5037 ;; Registers used:
  5038 ;;		None
  5039 ;; Tracked objects:
  5040 ;;		On entry : 0/0
  5041 ;;		On exit  : 0/0
  5042 ;;		Unchanged: 0/0
  5043 ;; Data sizes:     COMRAM   BANK0   BANK1   BANK2   BANK3   BANK4   BANK5   BANK6   BANK7
  5044 ;;      Params:         0       0       0       0       0       0       0       0       0
  5045 ;;      Locals:         0       0       0       0       0       0       0       0       0
  5046 ;;      Temps:          0       0       0       0       0       0       0       0       0
  5047 ;;      Totals:         0       0       0       0       0       0       0       0       0
  5048 ;;Total ram usage:        0 bytes
  5049 ;; Hardware stack levels used: 1
  5050 ;; This function calls:
  5051 ;;		Nothing
  5052 ;; This function is called by:
  5053 ;;		_ControlTemperaturaCalefactorVentilador
  5054 ;; This function uses a non-reentrant model
  5055 ;;
  5056                           
  5057                           	psect	text35
  5058  001EF0                     __ptext35:
  5059                           	callstack 0
  5060  001EF0                     _ApagarCalefactor:
  5061                           	callstack 29
  5062  001EF0                     
  5063                           ;Actuadores.c: 33:     LATC7=0;
  5064  001EF0  9E8B               	bcf	3979,7,c	;volatile
  5065  001EF2  0012               	return		;funcret
  5066  001EF4                     __end_of_ApagarCalefactor:
  5067                           	callstack 0
  5068                           
  5069 ;; *************** function _ControlHumedadAspersorVentilador *****************
  5070 ;; Defined at:
  5071 ;;		line 89 in file "Actuadores.c"
  5072 ;; Parameters:    Size  Location     Type
  5073 ;;  HumedadActua    2    0[COMRAM] PTR unsigned char 
  5074 ;;		 -> Datos(2), 
  5075 ;;  HumedadDigit    2    2[COMRAM] int 
  5076 ;;  MargenErrorH    2    4[COMRAM] int 
  5077 ;; Auto vars:     Size  Location     Type
  5078 ;;		None
  5079 ;; Return value:  Size  Location     Type
  5080 ;;                  1    wreg      void 
  5081 ;; Registers used:
  5082 ;;		wreg, fsr2l, fsr2h, status,2, status,0, cstack
  5083 ;; Tracked objects:
  5084 ;;		On entry : 0/0
  5085 ;;		On exit  : 0/0
  5086 ;;		Unchanged: 0/0
  5087 ;; Data sizes:     COMRAM   BANK0   BANK1   BANK2   BANK3   BANK4   BANK5   BANK6   BANK7
  5088 ;;      Params:         6       0       0       0       0       0       0       0       0
  5089 ;;      Locals:         0       0       0       0       0       0       0       0       0
  5090 ;;      Temps:          5       0       0       0       0       0       0       0       0
  5091 ;;      Totals:        11       0       0       0       0       0       0       0       0
  5092 ;;Total ram usage:       11 bytes
  5093 ;; Hardware stack levels used: 1
  5094 ;; Hardware stack levels required when called: 1
  5095 ;; This function calls:
  5096 ;;		_ApagarAspersores
  5097 ;;		_ApagarVentiladores
  5098 ;;		_PrenderAspersores
  5099 ;;		_PrenderVentiladores
  5100 ;; This function is called by:
  5101 ;;		_main
  5102 ;; This function uses a non-reentrant model
  5103 ;;
  5104                           
  5105                           	psect	text36
  5106  00174A                     __ptext36:
  5107                           	callstack 0
  5108  00174A                     _ControlHumedadAspersorVentilador:
  5109                           	callstack 29
  5110  00174A                     
  5111                           ;Actuadores.c: 90:     if(*HumedadActual<HumedadDigitada-MargenErrorH){
  5112  00174A  5005               	movf	ControlHumedadAspersorVentilador@MargenErrorH^0,w,c
  5113  00174C  5C03               	subwf	ControlHumedadAspersorVentilador@HumedadDigitada^0,w,c
  5114  00174E  6E07               	movwf	??_ControlHumedadAspersorVentilador^0,c
  5115  001750  5006               	movf	(ControlHumedadAspersorVentilador@MargenErrorH+1)^0,w,c
  5116  001752  5804               	subwfb	(ControlHumedadAspersorVentilador@HumedadDigitada+1)^0,w,c
  5117  001754  6E08               	movwf	(??_ControlHumedadAspersorVentilador+1)^0,c
  5118  001756  C001  FFD9         	movff	ControlHumedadAspersorVentilador@HumedadActual,fsr2l
  5119  00175A  C002  FFDA         	movff	ControlHumedadAspersorVentilador@HumedadActual+1,fsr2h
  5120  00175E  50DF               	movf	indf2,w,c
  5121  001760  6E09               	movwf	(??_ControlHumedadAspersorVentilador+2)^0,c
  5122  001762  6A0A               	clrf	(??_ControlHumedadAspersorVentilador+3)^0,c
  5123  001764  5007               	movf	??_ControlHumedadAspersorVentilador^0,w,c
  5124  001766  5C09               	subwf	(??_ControlHumedadAspersorVentilador+2)^0,w,c
  5125  001768  500A               	movf	(??_ControlHumedadAspersorVentilador+3)^0,w,c
  5126  00176A  0A80               	xorlw	128
  5127  00176C  6E0B               	movwf	(??_ControlHumedadAspersorVentilador+4)^0,c
  5128  00176E  5008               	movf	(??_ControlHumedadAspersorVentilador+1)^0,w,c
  5129  001770  0A80               	xorlw	128
  5130  001772  580B               	subwfb	(??_ControlHumedadAspersorVentilador+4)^0,w,c
  5131  001774  B0D8               	btfsc	status,0,c
  5132  001776  EFBF  F00B         	goto	u1721
  5133  00177A  EFC1  F00B         	goto	u1720
  5134  00177E                     u1721:
  5135  00177E  EFC5  F00B         	goto	l2422
  5136  001782                     u1720:
  5137  001782                     
  5138                           ;Actuadores.c: 91:         PrenderAspersores();
  5139  001782  EC68  F00F         	call	_PrenderAspersores	;wreg free
  5140                           
  5141                           ;Actuadores.c: 92:     }else if(*HumedadActual>HumedadDigitada+MargenErrorH){
  5142  001786  EF01  F00C         	goto	l318
  5143  00178A                     l2422:
  5144  00178A  C001  FFD9         	movff	ControlHumedadAspersorVentilador@HumedadActual,fsr2l
  5145  00178E  C002  FFDA         	movff	ControlHumedadAspersorVentilador@HumedadActual+1,fsr2h
  5146  001792  50DF               	movf	indf2,w,c
  5147  001794  6E07               	movwf	??_ControlHumedadAspersorVentilador^0,c
  5148  001796  6A08               	clrf	(??_ControlHumedadAspersorVentilador+1)^0,c
  5149  001798  5005               	movf	ControlHumedadAspersorVentilador@MargenErrorH^0,w,c
  5150  00179A  2403               	addwf	ControlHumedadAspersorVentilador@HumedadDigitada^0,w,c
  5151  00179C  6E09               	movwf	(??_ControlHumedadAspersorVentilador+2)^0,c
  5152  00179E  5006               	movf	(ControlHumedadAspersorVentilador@MargenErrorH+1)^0,w,c
  5153  0017A0  2004               	addwfc	(ControlHumedadAspersorVentilador@HumedadDigitada+1)^0,w,c
  5154  0017A2  6E0A               	movwf	(??_ControlHumedadAspersorVentilador+3)^0,c
  5155  0017A4  5007               	movf	??_ControlHumedadAspersorVentilador^0,w,c
  5156  0017A6  5C09               	subwf	(??_ControlHumedadAspersorVentilador+2)^0,w,c
  5157  0017A8  500A               	movf	(??_ControlHumedadAspersorVentilador+3)^0,w,c
  5158  0017AA  0A80               	xorlw	128
  5159  0017AC  6E0B               	movwf	(??_ControlHumedadAspersorVentilador+4)^0,c
  5160  0017AE  5008               	movf	(??_ControlHumedadAspersorVentilador+1)^0,w,c
  5161  0017B0  0A80               	xorlw	128
  5162  0017B2  580B               	subwfb	(??_ControlHumedadAspersorVentilador+4)^0,w,c
  5163  0017B4  B0D8               	btfsc	status,0,c
  5164  0017B6  EFDF  F00B         	goto	u1731
  5165  0017BA  EFE1  F00B         	goto	u1730
  5166  0017BE                     u1731:
  5167  0017BE  EFF1  F00B         	goto	l2430
  5168  0017C2                     u1730:
  5169  0017C2                     
  5170                           ;Actuadores.c: 93:         if(VentiladoresEncendidosTemp!=1){
  5171  0017C2  0100               	movlb	0	; () banked
  5172  0017C4  0571               	decf	_VentiladoresEncendidosTemp& (0+255),w,b
  5173  0017C6  B4D8               	btfsc	status,2,c
  5174  0017C8  EFE8  F00B         	goto	u1741
  5175  0017CC  EFEA  F00B         	goto	u1740
  5176  0017D0                     u1741:
  5177  0017D0  EF01  F00C         	goto	l318
  5178  0017D4                     u1740:
  5179  0017D4                     
  5180                           ; BSR set to: 0
  5181                           ;Actuadores.c: 94:             PrenderVentiladores();
  5182  0017D4  EC65  F00F         	call	_PrenderVentiladores	;wreg free
  5183  0017D8                     
  5184                           ;Actuadores.c: 95:             VentiladoresEncendidosHum=1;
  5185  0017D8  0E01               	movlw	1
  5186  0017DA  0100               	movlb	0	; () banked
  5187  0017DC  6F70               	movwf	_VentiladoresEncendidosHum& (0+255),b
  5188  0017DE  EF01  F00C         	goto	l318
  5189  0017E2                     l2430:
  5190                           
  5191                           ;Actuadores.c: 98:         ApagarAspersores();
  5192  0017E2  EC6E  F00F         	call	_ApagarAspersores	;wreg free
  5193  0017E6                     
  5194                           ;Actuadores.c: 99:         if(VentiladoresEncendidosTemp!=1){
  5195  0017E6  0100               	movlb	0	; () banked
  5196  0017E8  0571               	decf	_VentiladoresEncendidosTemp& (0+255),w,b
  5197  0017EA  B4D8               	btfsc	status,2,c
  5198  0017EC  EFFA  F00B         	goto	u1751
  5199  0017F0  EFFC  F00B         	goto	u1750
  5200  0017F4                     u1751:
  5201  0017F4  EF01  F00C         	goto	l318
  5202  0017F8                     u1750:
  5203  0017F8                     
  5204                           ; BSR set to: 0
  5205                           ;Actuadores.c: 100:             ApagarVentiladores();
  5206  0017F8  EC6B  F00F         	call	_ApagarVentiladores	;wreg free
  5207  0017FC                     
  5208                           ;Actuadores.c: 101:             VentiladoresEncendidosHum=0;
  5209  0017FC  0E00               	movlw	0
  5210  0017FE  0100               	movlb	0	; () banked
  5211  001800  6F70               	movwf	_VentiladoresEncendidosHum& (0+255),b
  5212  001802                     l318:
  5213  001802  0012               	return		;funcret
  5214  001804                     __end_of_ControlHumedadAspersorVentilador:
  5215                           	callstack 0
  5216                           
  5217 ;; *************** function _PrenderVentiladores *****************
  5218 ;; Defined at:
  5219 ;;		line 46 in file "Actuadores.c"
  5220 ;; Parameters:    Size  Location     Type
  5221 ;;		None
  5222 ;; Auto vars:     Size  Location     Type
  5223 ;;		None
  5224 ;; Return value:  Size  Location     Type
  5225 ;;                  1    wreg      void 
  5226 ;; Registers used:
  5227 ;;		None
  5228 ;; Tracked objects:
  5229 ;;		On entry : 0/0
  5230 ;;		On exit  : 0/0
  5231 ;;		Unchanged: 0/0
  5232 ;; Data sizes:     COMRAM   BANK0   BANK1   BANK2   BANK3   BANK4   BANK5   BANK6   BANK7
  5233 ;;      Params:         0       0       0       0       0       0       0       0       0
  5234 ;;      Locals:         0       0       0       0       0       0       0       0       0
  5235 ;;      Temps:          0       0       0       0       0       0       0       0       0
  5236 ;;      Totals:         0       0       0       0       0       0       0       0       0
  5237 ;;Total ram usage:        0 bytes
  5238 ;; Hardware stack levels used: 1
  5239 ;; This function calls:
  5240 ;;		Nothing
  5241 ;; This function is called by:
  5242 ;;		_ControlHumedadAspersorVentilador
  5243 ;;		_ControlTemperaturaCalefactorVentilador
  5244 ;; This function uses a non-reentrant model
  5245 ;;
  5246                           
  5247                           	psect	text37
  5248  001ECA                     __ptext37:
  5249                           	callstack 0
  5250  001ECA                     _PrenderVentiladores:
  5251                           	callstack 29
  5252  001ECA                     
  5253                           ;Actuadores.c: 47:     LATC2=1;
  5254  001ECA  848B               	bsf	3979,2,c	;volatile
  5255                           
  5256                           ;Actuadores.c: 48:     LATC6=1;
  5257  001ECC  8C8B               	bsf	3979,6,c	;volatile
  5258  001ECE  0012               	return		;funcret
  5259  001ED0                     __end_of_PrenderVentiladores:
  5260                           	callstack 0
  5261                           
  5262 ;; *************** function _PrenderAspersores *****************
  5263 ;; Defined at:
  5264 ;;		line 38 in file "Actuadores.c"
  5265 ;; Parameters:    Size  Location     Type
  5266 ;;		None
  5267 ;; Auto vars:     Size  Location     Type
  5268 ;;		None
  5269 ;; Return value:  Size  Location     Type
  5270 ;;                  1    wreg      void 
  5271 ;; Registers used:
  5272 ;;		None
  5273 ;; Tracked objects:
  5274 ;;		On entry : 0/0
  5275 ;;		On exit  : 0/0
  5276 ;;		Unchanged: 0/0
  5277 ;; Data sizes:     COMRAM   BANK0   BANK1   BANK2   BANK3   BANK4   BANK5   BANK6   BANK7
  5278 ;;      Params:         0       0       0       0       0       0       0       0       0
  5279 ;;      Locals:         0       0       0       0       0       0       0       0       0
  5280 ;;      Temps:          0       0       0       0       0       0       0       0       0
  5281 ;;      Totals:         0       0       0       0       0       0       0       0       0
  5282 ;;Total ram usage:        0 bytes
  5283 ;; Hardware stack levels used: 1
  5284 ;; This function calls:
  5285 ;;		Nothing
  5286 ;; This function is called by:
  5287 ;;		_ControlHumedadAspersorVentilador
  5288 ;; This function uses a non-reentrant model
  5289 ;;
  5290                           
  5291                           	psect	text38
  5292  001ED0                     __ptext38:
  5293                           	callstack 0
  5294  001ED0                     _PrenderAspersores:
  5295                           	callstack 29
  5296  001ED0                     
  5297                           ;Actuadores.c: 39:     LATC0=1;
  5298  001ED0  808B               	bsf	3979,0,c	;volatile
  5299                           
  5300                           ;Actuadores.c: 40:     LATC1=1;
  5301  001ED2  828B               	bsf	3979,1,c	;volatile
  5302  001ED4  0012               	return		;funcret
  5303  001ED6                     __end_of_PrenderAspersores:
  5304                           	callstack 0
  5305                           
  5306 ;; *************** function _ApagarVentiladores *****************
  5307 ;; Defined at:
  5308 ;;		line 26 in file "Actuadores.c"
  5309 ;; Parameters:    Size  Location     Type
  5310 ;;		None
  5311 ;; Auto vars:     Size  Location     Type
  5312 ;;		None
  5313 ;; Return value:  Size  Location     Type
  5314 ;;                  1    wreg      void 
  5315 ;; Registers used:
  5316 ;;		None
  5317 ;; Tracked objects:
  5318 ;;		On entry : 0/0
  5319 ;;		On exit  : 0/0
  5320 ;;		Unchanged: 0/0
  5321 ;; Data sizes:     COMRAM   BANK0   BANK1   BANK2   BANK3   BANK4   BANK5   BANK6   BANK7
  5322 ;;      Params:         0       0       0       0       0       0       0       0       0
  5323 ;;      Locals:         0       0       0       0       0       0       0       0       0
  5324 ;;      Temps:          0       0       0       0       0       0       0       0       0
  5325 ;;      Totals:         0       0       0       0       0       0       0       0       0
  5326 ;;Total ram usage:        0 bytes
  5327 ;; Hardware stack levels used: 1
  5328 ;; This function calls:
  5329 ;;		Nothing
  5330 ;; This function is called by:
  5331 ;;		_main
  5332 ;;		_ControlHumedadAspersorVentilador
  5333 ;;		_ControlTemperaturaCalefactorVentilador
  5334 ;; This function uses a non-reentrant model
  5335 ;;
  5336                           
  5337                           	psect	text39
  5338  001ED6                     __ptext39:
  5339                           	callstack 0
  5340  001ED6                     _ApagarVentiladores:
  5341                           	callstack 29
  5342  001ED6                     
  5343                           ;Actuadores.c: 27:     LATC2=0;
  5344  001ED6  948B               	bcf	3979,2,c	;volatile
  5345                           
  5346                           ;Actuadores.c: 28:     LATC6=0;
  5347  001ED8  9C8B               	bcf	3979,6,c	;volatile
  5348  001EDA  0012               	return		;funcret
  5349  001EDC                     __end_of_ApagarVentiladores:
  5350                           	callstack 0
  5351                           
  5352 ;; *************** function _ApagarAspersores *****************
  5353 ;; Defined at:
  5354 ;;		line 19 in file "Actuadores.c"
  5355 ;; Parameters:    Size  Location     Type
  5356 ;;		None
  5357 ;; Auto vars:     Size  Location     Type
  5358 ;;		None
  5359 ;; Return value:  Size  Location     Type
  5360 ;;                  1    wreg      void 
  5361 ;; Registers used:
  5362 ;;		None
  5363 ;; Tracked objects:
  5364 ;;		On entry : 0/0
  5365 ;;		On exit  : 0/0
  5366 ;;		Unchanged: 0/0
  5367 ;; Data sizes:     COMRAM   BANK0   BANK1   BANK2   BANK3   BANK4   BANK5   BANK6   BANK7
  5368 ;;      Params:         0       0       0       0       0       0       0       0       0
  5369 ;;      Locals:         0       0       0       0       0       0       0       0       0
  5370 ;;      Temps:          0       0       0       0       0       0       0       0       0
  5371 ;;      Totals:         0       0       0       0       0       0       0       0       0
  5372 ;;Total ram usage:        0 bytes
  5373 ;; Hardware stack levels used: 1
  5374 ;; This function calls:
  5375 ;;		Nothing
  5376 ;; This function is called by:
  5377 ;;		_main
  5378 ;;		_ControlHumedadAspersorVentilador
  5379 ;; This function uses a non-reentrant model
  5380 ;;
  5381                           
  5382                           	psect	text40
  5383  001EDC                     __ptext40:
  5384                           	callstack 0
  5385  001EDC                     _ApagarAspersores:
  5386                           	callstack 29
  5387  001EDC                     
  5388                           ;Actuadores.c: 20:     LATC0=0;
  5389  001EDC  908B               	bcf	3979,0,c	;volatile
  5390                           
  5391                           ;Actuadores.c: 21:     LATC1=0;
  5392  001EDE  928B               	bcf	3979,1,c	;volatile
  5393  001EE0  0012               	return		;funcret
  5394  001EE2                     __end_of_ApagarAspersores:
  5395                           	callstack 0
  5396                           
  5397 ;; *************** function _ConfigurarPuertosLCD *****************
  5398 ;; Defined at:
  5399 ;;		line 144 in file "LCD.c"
  5400 ;; Parameters:    Size  Location     Type
  5401 ;;		None
  5402 ;; Auto vars:     Size  Location     Type
  5403 ;;		None
  5404 ;; Return value:  Size  Location     Type
  5405 ;;                  1    wreg      void 
  5406 ;; Registers used:
  5407 ;;		wreg, status,2
  5408 ;; Tracked objects:
  5409 ;;		On entry : 0/0
  5410 ;;		On exit  : 0/0
  5411 ;;		Unchanged: 0/0
  5412 ;; Data sizes:     COMRAM   BANK0   BANK1   BANK2   BANK3   BANK4   BANK5   BANK6   BANK7
  5413 ;;      Params:         0       0       0       0       0       0       0       0       0
  5414 ;;      Locals:         0       0       0       0       0       0       0       0       0
  5415 ;;      Temps:          0       0       0       0       0       0       0       0       0
  5416 ;;      Totals:         0       0       0       0       0       0       0       0       0
  5417 ;;Total ram usage:        0 bytes
  5418 ;; Hardware stack levels used: 1
  5419 ;; This function calls:
  5420 ;;		Nothing
  5421 ;; This function is called by:
  5422 ;;		_main
  5423 ;; This function uses a non-reentrant model
  5424 ;;
  5425                           
  5426                           	psect	text41
  5427  001EE2                     __ptext41:
  5428                           	callstack 0
  5429  001EE2                     _ConfigurarPuertosLCD:
  5430                           	callstack 30
  5431  001EE2                     
  5432                           ;LCD.c: 145: TRISD=0x00;
  5433  001EE2  0E00               	movlw	0
  5434  001EE4  6E95               	movwf	149,c	;volatile
  5435  001EE6  0012               	return		;funcret
  5436  001EE8                     __end_of_ConfigurarPuertosLCD:
  5437                           	callstack 0
  5438                           
  5439 ;; *************** function _Comparar_T_H_Adecuados *****************
  5440 ;; Defined at:
  5441 ;;		line 87 in file "DHT11.c"
  5442 ;; Parameters:    Size  Location     Type
  5443 ;;  TempActual      2    2[COMRAM] PTR unsigned char 
  5444 ;;		 -> Datos(2), 
  5445 ;;  HumActual       2    4[COMRAM] PTR unsigned char 
  5446 ;;		 -> Datos(2), 
  5447 ;;  TempDigitada    2    6[COMRAM] int 
  5448 ;;  HumDigitada     2    8[COMRAM] int 
  5449 ;;  MargenErrorT    2   10[COMRAM] int 
  5450 ;;  MargenErrorH    2   12[COMRAM] int 
  5451 ;; Auto vars:     Size  Location     Type
  5452 ;;  HumedadAdecu    1   20[COMRAM] _Bool 
  5453 ;;  TemperaturaA    1   19[COMRAM] _Bool 
  5454 ;; Return value:  Size  Location     Type
  5455 ;;                  1    wreg      void 
  5456 ;; Registers used:
  5457 ;;		wreg, fsr2l, fsr2h, status,2, status,0, cstack
  5458 ;; Tracked objects:
  5459 ;;		On entry : 0/0
  5460 ;;		On exit  : 0/0
  5461 ;;		Unchanged: 0/0
  5462 ;; Data sizes:     COMRAM   BANK0   BANK1   BANK2   BANK3   BANK4   BANK5   BANK6   BANK7
  5463 ;;      Params:        12       0       0       0       0       0       0       0       0
  5464 ;;      Locals:         2       0       0       0       0       0       0       0       0
  5465 ;;      Temps:          5       0       0       0       0       0       0       0       0
  5466 ;;      Totals:        19       0       0       0       0       0       0       0       0
  5467 ;;Total ram usage:       19 bytes
  5468 ;; Hardware stack levels used: 1
  5469 ;; Hardware stack levels required when called: 2
  5470 ;; This function calls:
  5471 ;;		_PrenderLed
  5472 ;; This function is called by:
  5473 ;;		_main
  5474 ;; This function uses a non-reentrant model
  5475 ;;
  5476                           
  5477                           	psect	text42
  5478  00134A                     __ptext42:
  5479                           	callstack 0
  5480  00134A                     _Comparar_T_H_Adecuados:
  5481                           	callstack 28
  5482  00134A                     
  5483                           ;DHT11.c: 87: void Comparar_T_H_Adecuados(char *TempActual,char *HumActual,int TempDigit
      +                          ada,;DHT11.c: 88:         int HumDigitada,int MargenErrorT,int MargenErrorH){;DHT11.c: 8
      +                          9:     _Bool TemperaturaAdecuada= 1;
  5484  00134A  0E01               	movlw	1
  5485  00134C  6E14               	movwf	Comparar_T_H_Adecuados@TemperaturaAdecuada^0,c
  5486                           
  5487                           ;DHT11.c: 90:     _Bool HumedadAdecuada =1;
  5488  00134E  0E01               	movlw	1
  5489  001350  6E15               	movwf	Comparar_T_H_Adecuados@HumedadAdecuada^0,c
  5490  001352                     
  5491                           ;DHT11.c: 91:     if(*TempActual<TempDigitada-MargenErrorT || *TempActual >TempDigitada+
      +                          MargenErrorT){
  5492  001352  500B               	movf	Comparar_T_H_Adecuados@MargenErrorT^0,w,c
  5493  001354  5C07               	subwf	Comparar_T_H_Adecuados@TempDigitada^0,w,c
  5494  001356  6E0F               	movwf	??_Comparar_T_H_Adecuados^0,c
  5495  001358  500C               	movf	(Comparar_T_H_Adecuados@MargenErrorT+1)^0,w,c
  5496  00135A  5808               	subwfb	(Comparar_T_H_Adecuados@TempDigitada+1)^0,w,c
  5497  00135C  6E10               	movwf	(??_Comparar_T_H_Adecuados+1)^0,c
  5498  00135E  C003  FFD9         	movff	Comparar_T_H_Adecuados@TempActual,fsr2l
  5499  001362  C004  FFDA         	movff	Comparar_T_H_Adecuados@TempActual+1,fsr2h
  5500  001366  50DF               	movf	indf2,w,c
  5501  001368  6E11               	movwf	(??_Comparar_T_H_Adecuados+2)^0,c
  5502  00136A  6A12               	clrf	(??_Comparar_T_H_Adecuados+3)^0,c
  5503  00136C  500F               	movf	??_Comparar_T_H_Adecuados^0,w,c
  5504  00136E  5C11               	subwf	(??_Comparar_T_H_Adecuados+2)^0,w,c
  5505  001370  5012               	movf	(??_Comparar_T_H_Adecuados+3)^0,w,c
  5506  001372  0A80               	xorlw	128
  5507  001374  6E13               	movwf	(??_Comparar_T_H_Adecuados+4)^0,c
  5508  001376  5010               	movf	(??_Comparar_T_H_Adecuados+1)^0,w,c
  5509  001378  0A80               	xorlw	128
  5510  00137A  5813               	subwfb	(??_Comparar_T_H_Adecuados+4)^0,w,c
  5511  00137C  A0D8               	btfss	status,0,c
  5512  00137E  EFC3  F009         	goto	u1681
  5513  001382  EFC5  F009         	goto	u1680
  5514  001386                     u1681:
  5515  001386  EFE1  F009         	goto	l2408
  5516  00138A                     u1680:
  5517  00138A  C003  FFD9         	movff	Comparar_T_H_Adecuados@TempActual,fsr2l
  5518  00138E  C004  FFDA         	movff	Comparar_T_H_Adecuados@TempActual+1,fsr2h
  5519  001392  50DF               	movf	indf2,w,c
  5520  001394  6E0F               	movwf	??_Comparar_T_H_Adecuados^0,c
  5521  001396  6A10               	clrf	(??_Comparar_T_H_Adecuados+1)^0,c
  5522  001398  500B               	movf	Comparar_T_H_Adecuados@MargenErrorT^0,w,c
  5523  00139A  2407               	addwf	Comparar_T_H_Adecuados@TempDigitada^0,w,c
  5524  00139C  6E11               	movwf	(??_Comparar_T_H_Adecuados+2)^0,c
  5525  00139E  500C               	movf	(Comparar_T_H_Adecuados@MargenErrorT+1)^0,w,c
  5526  0013A0  2008               	addwfc	(Comparar_T_H_Adecuados@TempDigitada+1)^0,w,c
  5527  0013A2  6E12               	movwf	(??_Comparar_T_H_Adecuados+3)^0,c
  5528  0013A4  500F               	movf	??_Comparar_T_H_Adecuados^0,w,c
  5529  0013A6  5C11               	subwf	(??_Comparar_T_H_Adecuados+2)^0,w,c
  5530  0013A8  5012               	movf	(??_Comparar_T_H_Adecuados+3)^0,w,c
  5531  0013AA  0A80               	xorlw	128
  5532  0013AC  6E13               	movwf	(??_Comparar_T_H_Adecuados+4)^0,c
  5533  0013AE  5010               	movf	(??_Comparar_T_H_Adecuados+1)^0,w,c
  5534  0013B0  0A80               	xorlw	128
  5535  0013B2  5813               	subwfb	(??_Comparar_T_H_Adecuados+4)^0,w,c
  5536  0013B4  B0D8               	btfsc	status,0,c
  5537  0013B6  EFDF  F009         	goto	u1691
  5538  0013BA  EFE1  F009         	goto	u1690
  5539  0013BE                     u1691:
  5540  0013BE  EFE3  F009         	goto	l2410
  5541  0013C2                     u1690:
  5542  0013C2                     l2408:
  5543                           
  5544                           ;DHT11.c: 92:            TemperaturaAdecuada=0;
  5545  0013C2  0E00               	movlw	0
  5546  0013C4  6E14               	movwf	Comparar_T_H_Adecuados@TemperaturaAdecuada^0,c
  5547  0013C6                     l2410:
  5548                           
  5549                           ;DHT11.c: 94:     if(*HumActual<HumDigitada-MargenErrorH || *HumActual>HumDigitada+Marge
      +                          nErrorH){
  5550  0013C6  500D               	movf	Comparar_T_H_Adecuados@MargenErrorH^0,w,c
  5551  0013C8  5C09               	subwf	Comparar_T_H_Adecuados@HumDigitada^0,w,c
  5552  0013CA  6E0F               	movwf	??_Comparar_T_H_Adecuados^0,c
  5553  0013CC  500E               	movf	(Comparar_T_H_Adecuados@MargenErrorH+1)^0,w,c
  5554  0013CE  580A               	subwfb	(Comparar_T_H_Adecuados@HumDigitada+1)^0,w,c
  5555  0013D0  6E10               	movwf	(??_Comparar_T_H_Adecuados+1)^0,c
  5556  0013D2  C005  FFD9         	movff	Comparar_T_H_Adecuados@HumActual,fsr2l
  5557  0013D6  C006  FFDA         	movff	Comparar_T_H_Adecuados@HumActual+1,fsr2h
  5558  0013DA  50DF               	movf	indf2,w,c
  5559  0013DC  6E11               	movwf	(??_Comparar_T_H_Adecuados+2)^0,c
  5560  0013DE  6A12               	clrf	(??_Comparar_T_H_Adecuados+3)^0,c
  5561  0013E0  500F               	movf	??_Comparar_T_H_Adecuados^0,w,c
  5562  0013E2  5C11               	subwf	(??_Comparar_T_H_Adecuados+2)^0,w,c
  5563  0013E4  5012               	movf	(??_Comparar_T_H_Adecuados+3)^0,w,c
  5564  0013E6  0A80               	xorlw	128
  5565  0013E8  6E13               	movwf	(??_Comparar_T_H_Adecuados+4)^0,c
  5566  0013EA  5010               	movf	(??_Comparar_T_H_Adecuados+1)^0,w,c
  5567  0013EC  0A80               	xorlw	128
  5568  0013EE  5813               	subwfb	(??_Comparar_T_H_Adecuados+4)^0,w,c
  5569  0013F0  A0D8               	btfss	status,0,c
  5570  0013F2  EFFD  F009         	goto	u1701
  5571  0013F6  EFFF  F009         	goto	u1700
  5572  0013FA                     u1701:
  5573  0013FA  EF1B  F00A         	goto	l2414
  5574  0013FE                     u1700:
  5575  0013FE  C005  FFD9         	movff	Comparar_T_H_Adecuados@HumActual,fsr2l
  5576  001402  C006  FFDA         	movff	Comparar_T_H_Adecuados@HumActual+1,fsr2h
  5577  001406  50DF               	movf	indf2,w,c
  5578  001408  6E0F               	movwf	??_Comparar_T_H_Adecuados^0,c
  5579  00140A  6A10               	clrf	(??_Comparar_T_H_Adecuados+1)^0,c
  5580  00140C  500D               	movf	Comparar_T_H_Adecuados@MargenErrorH^0,w,c
  5581  00140E  2409               	addwf	Comparar_T_H_Adecuados@HumDigitada^0,w,c
  5582  001410  6E11               	movwf	(??_Comparar_T_H_Adecuados+2)^0,c
  5583  001412  500E               	movf	(Comparar_T_H_Adecuados@MargenErrorH+1)^0,w,c
  5584  001414  200A               	addwfc	(Comparar_T_H_Adecuados@HumDigitada+1)^0,w,c
  5585  001416  6E12               	movwf	(??_Comparar_T_H_Adecuados+3)^0,c
  5586  001418  500F               	movf	??_Comparar_T_H_Adecuados^0,w,c
  5587  00141A  5C11               	subwf	(??_Comparar_T_H_Adecuados+2)^0,w,c
  5588  00141C  5012               	movf	(??_Comparar_T_H_Adecuados+3)^0,w,c
  5589  00141E  0A80               	xorlw	128
  5590  001420  6E13               	movwf	(??_Comparar_T_H_Adecuados+4)^0,c
  5591  001422  5010               	movf	(??_Comparar_T_H_Adecuados+1)^0,w,c
  5592  001424  0A80               	xorlw	128
  5593  001426  5813               	subwfb	(??_Comparar_T_H_Adecuados+4)^0,w,c
  5594  001428  B0D8               	btfsc	status,0,c
  5595  00142A  EF19  F00A         	goto	u1711
  5596  00142E  EF1B  F00A         	goto	u1710
  5597  001432                     u1711:
  5598  001432  EF1D  F00A         	goto	l2416
  5599  001436                     u1710:
  5600  001436                     l2414:
  5601                           
  5602                           ;DHT11.c: 95:         HumedadAdecuada=0;
  5603  001436  0E00               	movlw	0
  5604  001438  6E15               	movwf	Comparar_T_H_Adecuados@HumedadAdecuada^0,c
  5605  00143A                     l2416:
  5606                           
  5607                           ;DHT11.c: 97:    PrenderLed(TemperaturaAdecuada,HumedadAdecuada);
  5608  00143A  C015  F001         	movff	Comparar_T_H_Adecuados@HumedadAdecuada,PrenderLed@HumedadAdecuada
  5609  00143E  5014               	movf	Comparar_T_H_Adecuados@TemperaturaAdecuada^0,w,c
  5610  001440  EC8F  F00D         	call	_PrenderLed
  5611  001444  0012               	return		;funcret
  5612  001446                     __end_of_Comparar_T_H_Adecuados:
  5613                           	callstack 0
  5614                           
  5615 ;; *************** function _PrenderLed *****************
  5616 ;; Defined at:
  5617 ;;		line 71 in file "Actuadores.c"
  5618 ;; Parameters:    Size  Location     Type
  5619 ;;  TemperaturaA    1    wreg     _Bool 
  5620 ;;  HumedadAdecu    1    0[COMRAM] _Bool 
  5621 ;; Auto vars:     Size  Location     Type
  5622 ;;  TemperaturaA    1    1[COMRAM] _Bool 
  5623 ;; Return value:  Size  Location     Type
  5624 ;;                  1    wreg      void 
  5625 ;; Registers used:
  5626 ;;		wreg, status,2, cstack
  5627 ;; Tracked objects:
  5628 ;;		On entry : 0/0
  5629 ;;		On exit  : 0/0
  5630 ;;		Unchanged: 0/0
  5631 ;; Data sizes:     COMRAM   BANK0   BANK1   BANK2   BANK3   BANK4   BANK5   BANK6   BANK7
  5632 ;;      Params:         1       0       0       0       0       0       0       0       0
  5633 ;;      Locals:         1       0       0       0       0       0       0       0       0
  5634 ;;      Temps:          0       0       0       0       0       0       0       0       0
  5635 ;;      Totals:         2       0       0       0       0       0       0       0       0
  5636 ;;Total ram usage:        2 bytes
  5637 ;; Hardware stack levels used: 1
  5638 ;; Hardware stack levels required when called: 1
  5639 ;; This function calls:
  5640 ;;		_ApagarLeds
  5641 ;; This function is called by:
  5642 ;;		_Comparar_T_H_Adecuados
  5643 ;; This function uses a non-reentrant model
  5644 ;;
  5645                           
  5646                           	psect	text43
  5647  001B1E                     __ptext43:
  5648                           	callstack 0
  5649  001B1E                     _PrenderLed:
  5650                           	callstack 28
  5651                           
  5652                           ;incstack = 0
  5653                           ;PrenderLed@TemperaturaAdecuada stored from wreg
  5654  001B1E  6E02               	movwf	PrenderLed@TemperaturaAdecuada^0,c
  5655  001B20                     
  5656                           ;Actuadores.c: 72:     ApagarLeds();
  5657  001B20  EC5E  F00F         	call	_ApagarLeds	;wreg free
  5658  001B24                     
  5659                           ;Actuadores.c: 73:     if(TemperaturaAdecuada==0 && HumedadAdecuada==0){
  5660  001B24  5002               	movf	PrenderLed@TemperaturaAdecuada^0,w,c
  5661  001B26  A4D8               	btfss	status,2,c
  5662  001B28  EF98  F00D         	goto	u1641
  5663  001B2C  EF9A  F00D         	goto	u1640
  5664  001B30                     u1641:
  5665  001B30  EFA5  F00D         	goto	l2320
  5666  001B34                     u1640:
  5667  001B34  5001               	movf	PrenderLed@HumedadAdecuada^0,w,c
  5668  001B36  A4D8               	btfss	status,2,c
  5669  001B38  EFA0  F00D         	goto	u1651
  5670  001B3C  EFA2  F00D         	goto	u1650
  5671  001B40                     u1651:
  5672  001B40  EFA5  F00D         	goto	l2320
  5673  001B44                     u1650:
  5674  001B44                     
  5675                           ;Actuadores.c: 74:         LATE0=1;
  5676  001B44  808D               	bsf	3981,0,c	;volatile
  5677                           
  5678                           ;Actuadores.c: 75:     }else if(TemperaturaAdecuada==0 || HumedadAdecuada==0){
  5679  001B46  EFB9  F00D         	goto	l309
  5680  001B4A                     l2320:
  5681  001B4A  5002               	movf	PrenderLed@TemperaturaAdecuada^0,w,c
  5682  001B4C  B4D8               	btfsc	status,2,c
  5683  001B4E  EFAB  F00D         	goto	u1661
  5684  001B52  EFAD  F00D         	goto	u1660
  5685  001B56                     u1661:
  5686  001B56  EFB5  F00D         	goto	l307
  5687  001B5A                     u1660:
  5688  001B5A  5001               	movf	PrenderLed@HumedadAdecuada^0,w,c
  5689  001B5C  A4D8               	btfss	status,2,c
  5690  001B5E  EFB3  F00D         	goto	u1671
  5691  001B62  EFB5  F00D         	goto	u1670
  5692  001B66                     u1671:
  5693  001B66  EFB8  F00D         	goto	l305
  5694  001B6A                     u1670:
  5695  001B6A                     l307:
  5696                           
  5697                           ;Actuadores.c: 76:         LATE1=1;
  5698  001B6A  828D               	bsf	3981,1,c	;volatile
  5699                           
  5700                           ;Actuadores.c: 77:     }else{
  5701  001B6C  EFB9  F00D         	goto	l309
  5702  001B70                     l305:
  5703                           
  5704                           ;Actuadores.c: 78:         LATE2=1;
  5705  001B70  848D               	bsf	3981,2,c	;volatile
  5706  001B72                     l309:
  5707  001B72  0012               	return		;funcret
  5708  001B74                     __end_of_PrenderLed:
  5709                           	callstack 0
  5710                           
  5711 ;; *************** function _ApagarLeds *****************
  5712 ;; Defined at:
  5713 ;;		line 59 in file "Actuadores.c"
  5714 ;; Parameters:    Size  Location     Type
  5715 ;;		None
  5716 ;; Auto vars:     Size  Location     Type
  5717 ;;		None
  5718 ;; Return value:  Size  Location     Type
  5719 ;;                  1    wreg      void 
  5720 ;; Registers used:
  5721 ;;		None
  5722 ;; Tracked objects:
  5723 ;;		On entry : 0/0
  5724 ;;		On exit  : 0/0
  5725 ;;		Unchanged: 0/0
  5726 ;; Data sizes:     COMRAM   BANK0   BANK1   BANK2   BANK3   BANK4   BANK5   BANK6   BANK7
  5727 ;;      Params:         0       0       0       0       0       0       0       0       0
  5728 ;;      Locals:         0       0       0       0       0       0       0       0       0
  5729 ;;      Temps:          0       0       0       0       0       0       0       0       0
  5730 ;;      Totals:         0       0       0       0       0       0       0       0       0
  5731 ;;Total ram usage:        0 bytes
  5732 ;; Hardware stack levels used: 1
  5733 ;; This function calls:
  5734 ;;		Nothing
  5735 ;; This function is called by:
  5736 ;;		_main
  5737 ;;		_PrenderLed
  5738 ;; This function uses a non-reentrant model
  5739 ;;
  5740                           
  5741                           	psect	text44
  5742  001EBC                     __ptext44:
  5743                           	callstack 0
  5744  001EBC                     _ApagarLeds:
  5745                           	callstack 28
  5746  001EBC                     
  5747                           ;Actuadores.c: 60:     LATE1=0;
  5748  001EBC  928D               	bcf	3981,1,c	;volatile
  5749                           
  5750                           ;Actuadores.c: 61:     LATE0=0;
  5751  001EBE  908D               	bcf	3981,0,c	;volatile
  5752                           
  5753                           ;Actuadores.c: 62:     LATE2=0;
  5754  001EC0  948D               	bcf	3981,2,c	;volatile
  5755  001EC2  0012               	return		;funcret
  5756  001EC4                     __end_of_ApagarLeds:
  5757                           	callstack 0
  5758                           
  5759                           	psect	rparam
  5760  0000                     
  5761                           	psect	idloc
  5762                           
  5763                           ;Config register IDLOC0 @ 0x200000
  5764                           ;	unspecified, using default values
  5765  200000                     	org	2097152
  5766  200000  FF                 	db	255
  5767                           
  5768                           ;Config register IDLOC1 @ 0x200001
  5769                           ;	unspecified, using default values
  5770  200001                     	org	2097153
  5771  200001  FF                 	db	255
  5772                           
  5773                           ;Config register IDLOC2 @ 0x200002
  5774                           ;	unspecified, using default values
  5775  200002                     	org	2097154
  5776  200002  FF                 	db	255
  5777                           
  5778                           ;Config register IDLOC3 @ 0x200003
  5779                           ;	unspecified, using default values
  5780  200003                     	org	2097155
  5781  200003  FF                 	db	255
  5782                           
  5783                           ;Config register IDLOC4 @ 0x200004
  5784                           ;	unspecified, using default values
  5785  200004                     	org	2097156
  5786  200004  FF                 	db	255
  5787                           
  5788                           ;Config register IDLOC5 @ 0x200005
  5789                           ;	unspecified, using default values
  5790  200005                     	org	2097157
  5791  200005  FF                 	db	255
  5792                           
  5793                           ;Config register IDLOC6 @ 0x200006
  5794                           ;	unspecified, using default values
  5795  200006                     	org	2097158
  5796  200006  FF                 	db	255
  5797                           
  5798                           ;Config register IDLOC7 @ 0x200007
  5799                           ;	unspecified, using default values
  5800  200007                     	org	2097159
  5801  200007  FF                 	db	255
  5802                           
  5803                           	psect	config
  5804                           
  5805                           ;Config register CONFIG1L @ 0x300000
  5806                           ;	unspecified, using default values
  5807                           ;	PLL Prescaler Selection bits
  5808                           ;	PLLDIV = 0x0, unprogrammed default
  5809                           ;	System Clock Postscaler Selection bits
  5810                           ;	CPUDIV = 0x0, unprogrammed default
  5811                           ;	USB Clock Selection bit (used in Full-Speed USB mode only; UCFG:FSEN = 1)
  5812                           ;	USBDIV = 0x0, unprogrammed default
  5813  300000                     	org	3145728
  5814  300000  00                 	db	0
  5815                           
  5816                           ;Config register CONFIG1H @ 0x300001
  5817                           ;	Oscillator Selection bits
  5818                           ;	FOSC = INTOSC_EC, Internal oscillator, CLKO function on RA6, EC used by USB (INTCKO)
  5819                           ;	Fail-Safe Clock Monitor Enable bit
  5820                           ;	FCMEN = OFF, Fail-Safe Clock Monitor disabled
  5821                           ;	Internal/External Oscillator Switchover bit
  5822                           ;	IESO = OFF, Oscillator Switchover mode disabled
  5823  300001                     	org	3145729
  5824  300001  09                 	db	9
  5825                           
  5826                           ;Config register CONFIG2L @ 0x300002
  5827                           ;	Power-up Timer Enable bit
  5828                           ;	PWRT = OFF, PWRT disabled
  5829                           ;	Brown-out Reset Enable bits
  5830                           ;	BOR = ON, Brown-out Reset enabled in hardware only (SBOREN is disabled)
  5831                           ;	Brown-out Reset Voltage bits
  5832                           ;	BORV = 3, Minimum setting 2.05V
  5833                           ;	USB Voltage Regulator Enable bit
  5834                           ;	VREGEN = OFF, USB voltage regulator disabled
  5835  300002                     	org	3145730
  5836  300002  1F                 	db	31
  5837                           
  5838                           ;Config register CONFIG2H @ 0x300003
  5839                           ;	Watchdog Timer Enable bit
  5840                           ;	WDT = OFF, WDT disabled (control is placed on the SWDTEN bit)
  5841                           ;	Watchdog Timer Postscale Select bits
  5842                           ;	WDTPS = 32768, 1:32768
  5843  300003                     	org	3145731
  5844  300003  1E                 	db	30
  5845                           
  5846                           ; Padding undefined space
  5847  300004                     	org	3145732
  5848  300004  FF                 	db	255
  5849                           
  5850                           ;Config register CONFIG3H @ 0x300005
  5851                           ;	CCP2 MUX bit
  5852                           ;	CCP2MX = ON, CCP2 input/output is multiplexed with RC1
  5853                           ;	PORTB A/D Enable bit
  5854                           ;	PBADEN = OFF, PORTB<4:0> pins are configured as digital I/O on Reset
  5855                           ;	Low-Power Timer 1 Oscillator Enable bit
  5856                           ;	LPT1OSC = OFF, Timer1 configured for higher power operation
  5857                           ;	MCLR Pin Enable bit
  5858                           ;	MCLRE = ON, MCLR pin enabled; RE3 input pin disabled
  5859  300005                     	org	3145733
  5860  300005  81                 	db	129
  5861                           
  5862                           ;Config register CONFIG4L @ 0x300006
  5863                           ;	Stack Full/Underflow Reset Enable bit
  5864                           ;	STVREN = ON, Stack full/underflow will cause Reset
  5865                           ;	Single-Supply ICSP Enable bit
  5866                           ;	LVP = OFF, Single-Supply ICSP disabled
  5867                           ;	Dedicated In-Circuit Debug/Programming Port (ICPORT) Enable bit
  5868                           ;	ICPRT = OFF, ICPORT disabled
  5869                           ;	Extended Instruction Set Enable bit
  5870                           ;	XINST = OFF, Instruction set extension and Indexed Addressing mode disabled (Legacy mo
      +                          de)
  5871                           ;	Background Debugger Enable bit
  5872                           ;	DEBUG = 0x1, unprogrammed default
  5873  300006                     	org	3145734
  5874  300006  81                 	db	129
  5875                           
  5876                           ; Padding undefined space
  5877  300007                     	org	3145735
  5878  300007  FF                 	db	255
  5879                           
  5880                           ;Config register CONFIG5L @ 0x300008
  5881                           ;	Code Protection bit
  5882                           ;	CP0 = OFF, Block 0 (000800-001FFFh) is not code-protected
  5883                           ;	Code Protection bit
  5884                           ;	CP1 = OFF, Block 1 (002000-003FFFh) is not code-protected
  5885                           ;	Code Protection bit
  5886                           ;	CP2 = OFF, Block 2 (004000-005FFFh) is not code-protected
  5887                           ;	Code Protection bit
  5888                           ;	CP3 = OFF, Block 3 (006000-007FFFh) is not code-protected
  5889  300008                     	org	3145736
  5890  300008  0F                 	db	15
  5891                           
  5892                           ;Config register CONFIG5H @ 0x300009
  5893                           ;	Boot Block Code Protection bit
  5894                           ;	CPB = OFF, Boot block (000000-0007FFh) is not code-protected
  5895                           ;	Data EEPROM Code Protection bit
  5896                           ;	CPD = OFF, Data EEPROM is not code-protected
  5897  300009                     	org	3145737
  5898  300009  C0                 	db	192
  5899                           
  5900                           ;Config register CONFIG6L @ 0x30000A
  5901                           ;	Write Protection bit
  5902                           ;	WRT0 = OFF, Block 0 (000800-001FFFh) is not write-protected
  5903                           ;	Write Protection bit
  5904                           ;	WRT1 = OFF, Block 1 (002000-003FFFh) is not write-protected
  5905                           ;	Write Protection bit
  5906                           ;	WRT2 = OFF, Block 2 (004000-005FFFh) is not write-protected
  5907                           ;	Write Protection bit
  5908                           ;	WRT3 = OFF, Block 3 (006000-007FFFh) is not write-protected
  5909  30000A                     	org	3145738
  5910  30000A  0F                 	db	15
  5911                           
  5912                           ;Config register CONFIG6H @ 0x30000B
  5913                           ;	Configuration Register Write Protection bit
  5914                           ;	WRTC = OFF, Configuration registers (300000-3000FFh) are not write-protected
  5915                           ;	Boot Block Write Protection bit
  5916                           ;	WRTB = OFF, Boot block (000000-0007FFh) is not write-protected
  5917                           ;	Data EEPROM Write Protection bit
  5918                           ;	WRTD = OFF, Data EEPROM is not write-protected
  5919  30000B                     	org	3145739
  5920  30000B  E0                 	db	224
  5921                           
  5922                           ;Config register CONFIG7L @ 0x30000C
  5923                           ;	Table Read Protection bit
  5924                           ;	EBTR0 = OFF, Block 0 (000800-001FFFh) is not protected from table reads executed in ot
      +                          her blocks
  5925                           ;	Table Read Protection bit
  5926                           ;	EBTR1 = OFF, Block 1 (002000-003FFFh) is not protected from table reads executed in ot
      +                          her blocks
  5927                           ;	Table Read Protection bit
  5928                           ;	EBTR2 = OFF, Block 2 (004000-005FFFh) is not protected from table reads executed in ot
      +                          her blocks
  5929                           ;	Table Read Protection bit
  5930                           ;	EBTR3 = OFF, Block 3 (006000-007FFFh) is not protected from table reads executed in ot
      +                          her blocks
  5931  30000C                     	org	3145740
  5932  30000C  0F                 	db	15
  5933                           
  5934                           ;Config register CONFIG7H @ 0x30000D
  5935                           ;	Boot Block Table Read Protection bit
  5936                           ;	EBTRB = OFF, Boot block (000000-0007FFh) is not protected from table reads executed in
      +                           other blocks
  5937  30000D                     	org	3145741
  5938  30000D  40                 	db	64
  5939                           tosu	equ	0xFFF
  5940                           tosh	equ	0xFFE
  5941                           tosl	equ	0xFFD
  5942                           stkptr	equ	0xFFC
  5943                           pclatu	equ	0xFFB
  5944                           pclath	equ	0xFFA
  5945                           pcl	equ	0xFF9
  5946                           tblptru	equ	0xFF8
  5947                           tblptrh	equ	0xFF7
  5948                           tblptrl	equ	0xFF6
  5949                           tablat	equ	0xFF5
  5950                           prodh	equ	0xFF4
  5951                           prodl	equ	0xFF3
  5952                           indf0	equ	0xFEF
  5953                           postinc0	equ	0xFEE
  5954                           postdec0	equ	0xFED
  5955                           preinc0	equ	0xFEC
  5956                           plusw0	equ	0xFEB
  5957                           fsr0h	equ	0xFEA
  5958                           fsr0l	equ	0xFE9
  5959                           wreg	equ	0xFE8
  5960                           indf1	equ	0xFE7
  5961                           postinc1	equ	0xFE6
  5962                           postdec1	equ	0xFE5
  5963                           preinc1	equ	0xFE4
  5964                           plusw1	equ	0xFE3
  5965                           fsr1h	equ	0xFE2
  5966                           fsr1l	equ	0xFE1
  5967                           bsr	equ	0xFE0
  5968                           indf2	equ	0xFDF
  5969                           postinc2	equ	0xFDE
  5970                           postdec2	equ	0xFDD
  5971                           preinc2	equ	0xFDC
  5972                           plusw2	equ	0xFDB
  5973                           fsr2h	equ	0xFDA
  5974                           fsr2l	equ	0xFD9
  5975                           status	equ	0xFD8

Data Sizes:
    Strings     77
    Constant    0
    Data        13
    BSS         71
    Persistent  0
    Stack       0

Auto Spaces:
    Space          Size  Autos    Used
    COMRAM           95     95      95
    BANK0           160     11      95
    BANK1           256      0       0
    BANK2           256      0       0
    BANK3           256      0       0
    BANK4           256      0       0
    BANK5           256      0       0
    BANK6           256      0       0
    BANK7           256      0       0

Pointer List with Targets:

    strlen@s	PTR const unsigned char  size(2) Largest target is 32
		 -> dbuf(BANK0[32]), 

    strlen@a	PTR const unsigned char  size(2) Largest target is 32
		 -> dbuf(BANK0[32]), 

    fputs@s	PTR const unsigned char  size(2) Largest target is 32
		 -> dbuf(BANK0[32]), 

    fputs@fp	PTR struct _IO_FILE size(2) Largest target is 7
		 -> sprintf@f(BANK0[6]), 

    fputc@fp.buffer	PTR unsigned char  size(2) Largest target is 10
		 -> Cadena(BANK0[10]), 

    fputc@fp	PTR struct _IO_FILE size(2) Largest target is 7
		 -> sprintf@f(BANK0[6]), 

    vfprintf@ap	PTR PTR void  size(2) Largest target is 2
		 -> sprintf@ap(BANK0[2]), 

    vfprintf@fp	PTR struct _IO_FILE size(2) Largest target is 7
		 -> sprintf@f(BANK0[6]), 

    vfprintf@fmt	PTR const unsigned char  size(2) Largest target is 8
		 -> STR_10(CODE[8]), STR_9(CODE[4]), STR_8(CODE[3]), STR_7(CODE[7]), 
		 -> STR_6(CODE[4]), STR_5(CODE[3]), 

    vfprintf@cfmt	PTR unsigned char  size(2) Largest target is 8
		 -> STR_10(CODE[8]), STR_9(CODE[4]), STR_8(CODE[3]), STR_7(CODE[7]), 
		 -> STR_6(CODE[4]), STR_5(CODE[3]), 

    vfpfcnvrt@fp	PTR struct _IO_FILE size(2) Largest target is 7
		 -> sprintf@f(BANK0[6]), 

    vfpfcnvrt@ap	PTR PTR void  size(2) Largest target is 2
		 -> sprintf@ap(BANK0[2]), 

    vfpfcnvrt@fmt	PTR PTR unsigned char  size(2) Largest target is 2
		 -> vfprintf@cfmt(COMRAM[2]), 

    dtoa@fp	PTR struct _IO_FILE size(2) Largest target is 7
		 -> sprintf@f(BANK0[6]), 

    pad@fp	PTR struct _IO_FILE size(2) Largest target is 7
		 -> sprintf@f(BANK0[6]), 

    pad@buf	PTR unsigned char  size(2) Largest target is 32
		 -> dbuf(BANK0[32]), 

    sprintf@fmt	PTR const unsigned char  size(2) Largest target is 8
		 -> STR_10(CODE[8]), STR_9(CODE[4]), STR_8(CODE[3]), STR_7(CODE[7]), 
		 -> STR_6(CODE[4]), STR_5(CODE[3]), 

    sprintf@s	PTR unsigned char  size(2) Largest target is 10
		 -> Cadena(BANK0[10]), 

    sprintf@ap	PTR void [1] size(2) Largest target is 2
		 -> ?_sprintf(COMRAM[2]), 

    S885_IO_FILE$buffer	PTR unsigned char  size(2) Largest target is 10
		 -> Cadena(BANK0[10]), 

    f.buffer	PTR unsigned char  size(2) Largest target is 10
		 -> Cadena(BANK0[10]), 

    ControlTemperaturaCalefactorVentilador@TempActual	PTR unsigned char  size(2) Largest target is 2
		 -> Datos(BANK0[2]), 

    ControlHumedadAspersorVentilador@HumedadActual	PTR unsigned char  size(2) Largest target is 2
		 -> Datos(BANK0[2]), 

    Comparar_T_H_Adecuados@HumActual	PTR unsigned char  size(2) Largest target is 2
		 -> Datos(BANK0[2]), 

    Comparar_T_H_Adecuados@TempActual	PTR unsigned char  size(2) Largest target is 2
		 -> Datos(BANK0[2]), 

    DatosSensorTH@Datos	PTR unsigned char  size(2) Largest target is 2
		 -> Datos(BANK0[2]), 

    DatoDigitadoAEntero@prmTemperatura	PTR unsigned char  size(2) Largest target is 2
		 -> Humedad(BANK0[2]), Temperatura(BANK0[2]), 

    MostrarTemperatura@Cadena	PTR unsigned char  size(2) Largest target is 10
		 -> Cadena(BANK0[10]), 

    MostrarHumedad@Cadena	PTR unsigned char  size(2) Largest target is 10
		 -> Cadena(BANK0[10]), 

    PedirTodosLosDatos@MargenErrorH	PTR unsigned char  size(2) Largest target is 1
		 -> MargenErrorH(BANK0[1]), 

    PedirTodosLosDatos@Humedad	PTR unsigned char  size(2) Largest target is 2
		 -> Humedad(BANK0[2]), 

    PedirTodosLosDatos@MargenErrorT	PTR unsigned char  size(2) Largest target is 1
		 -> MargenErrorT(BANK0[1]), 

    PedirTodosLosDatos@Temperatura	PTR unsigned char  size(2) Largest target is 2
		 -> Temperatura(BANK0[2]), 

    PedirDato@vecLlenar	PTR unsigned char  size(2) Largest target is 2
		 -> MargenErrorH(BANK0[1]), MargenErrorT(BANK0[1]), Humedad(BANK0[2]), Temperatura(BANK0[2]), 

    PedirDato@Etiqueta	PTR unsigned char  size(2) Largest target is 15
		 -> STR_4(CODE[14]), STR_3(CODE[14]), STR_2(CODE[15]), STR_1(CODE[15]), 

    LCD_String_xy@msg	PTR const unsigned char  size(2) Largest target is 15
		 -> STR_4(CODE[14]), STR_3(CODE[14]), STR_2(CODE[15]), STR_1(CODE[15]), 
		 -> Cadena(BANK0[10]), 

    LCD_String@msg	PTR const unsigned char  size(2) Largest target is 15
		 -> STR_4(CODE[14]), STR_3(CODE[14]), STR_2(CODE[15]), STR_1(CODE[15]), 
		 -> Cadena(BANK0[10]), 


Critical Paths under _main in COMRAM

    _PedirTodosLosDatos->_PedirDato
    _PedirDato->_LCD_String_xy
    _LCD_Clear->_LCD_Command
    _MostrarTemperatura->_sprintf
    _MostrarHumedad->_sprintf
    _sprintf->_vfprintf
    _vfprintf->_vfpfcnvrt
    _vfpfcnvrt->_dtoa
    _dtoa->_pad
    _pad->_fputs
    _fputs->_fputc
    _abs->___aomod
    _LCD_String_xy->_LCD_String
    _LCD_String->_LCD_Char
    _LCD_Init->_LCD_Command
    _DatosSensorTH->_DHT11_ReadData
    _DatoDigitadoAEntero->___wmul
    _Comparar_T_H_Adecuados->_PrenderLed

Critical Paths under _main in BANK0

    _main->_MostrarHumedad
    _main->_MostrarTemperatura
    _MostrarTemperatura->_sprintf
    _MostrarHumedad->_sprintf

Critical Paths under _main in BANK1

    None.

Critical Paths under _main in BANK2

    None.

Critical Paths under _main in BANK3

    None.

Critical Paths under _main in BANK4

    None.

Critical Paths under _main in BANK5

    None.

Critical Paths under _main in BANK6

    None.

Critical Paths under _main in BANK7

    None.

Call Graph Tables:

 ---------------------------------------------------------------------------------
 (Depth) Function   	        Calls       Base Space   Used Autos Params    Refs
 ---------------------------------------------------------------------------------
 (0) _main                                                 2     2      0   22889
                                             93 COMRAM     2     2      0
                   _ApagarAspersores
                         _ApagarLeds
                 _ApagarVentiladores
             _Comparar_T_H_Adecuados
               _ConfigurarPuertosLCD
   _ControlHumedadAspersorVentilador
_ControlTemperaturaCalefactorVentila
                _DatoDigitadoAEntero
                      _DatosSensorTH
                           _LCD_Init
                     _MostrarHumedad
                 _MostrarTemperatura
                 _PedirTodosLosDatos
                     _initActuadores
                          _initDHT11
                        _initTeclado
 ---------------------------------------------------------------------------------
 (1) _initTeclado                                          0     0      0       0
 ---------------------------------------------------------------------------------
 (1) _initDHT11                                            0     0      0       0
 ---------------------------------------------------------------------------------
 (1) _initActuadores                                       0     0      0       0
 ---------------------------------------------------------------------------------
 (1) _PedirTodosLosDatos                                  10     2      8    2589
                                             20 COMRAM    10     2      8
                          _PedirDato
 ---------------------------------------------------------------------------------
 (2) _PedirDato                                           11     5      6    2197
                                              9 COMRAM    11     5      6
                           _LCD_Char
                          _LCD_Clear
                        _LCD_Command
                      _LCD_String_xy
                            _keyfind
 ---------------------------------------------------------------------------------
 (3) _keyfind                                              1     1      0       0
                                              0 COMRAM     1     1      0
 ---------------------------------------------------------------------------------
 (3) _LCD_Clear                                            1     1      0      44
                                              2 COMRAM     1     1      0
                        _LCD_Command
 ---------------------------------------------------------------------------------
 (1) _MostrarTemperatura                                   3     0      3    8813
                                              8 BANK0      3     0      3
                           _LCD_Char
                         _LCD_String
                      _LCD_String_xy
                            _sprintf
 ---------------------------------------------------------------------------------
 (1) _MostrarHumedad                                       3     0      3    8813
                                              8 BANK0      3     0      3
                           _LCD_Char
                         _LCD_String
                      _LCD_String_xy
                            _sprintf
 ---------------------------------------------------------------------------------
 (2) _sprintf                                             16    10      6    7216
                                             87 COMRAM     6     0      6
                                              0 BANK0      8     8      0
                           _vfprintf
 ---------------------------------------------------------------------------------
 (3) _vfprintf                                             8     2      6    6105
                                             79 COMRAM     8     2      6
                          _vfpfcnvrt
 ---------------------------------------------------------------------------------
 (4) _vfpfcnvrt                                           42    36      6    5751
                                             63 COMRAM    16    10      6
                               _dtoa
                              _fputc
 ---------------------------------------------------------------------------------
 (5) _dtoa                                                36    26     10    4358
                                             27 COMRAM    36    26     10
                            ___aodiv
                            ___aomod
                                _abs
                                _pad
 ---------------------------------------------------------------------------------
 (6) _pad                                                 11     5      6    2709
                                             16 COMRAM    11     5      6
                              _fputc
                              _fputs
                             _strlen
 ---------------------------------------------------------------------------------
 (7) _strlen                                               4     2      2     166
                                              0 COMRAM     4     2      2
 ---------------------------------------------------------------------------------
 (7) _fputs                                                7     3      4    1235
                                              9 COMRAM     7     3      4
                              _fputc
 ---------------------------------------------------------------------------------
 (5) _fputc                                                9     5      4     834
                                              0 COMRAM     9     5      4
                              _putch
 ---------------------------------------------------------------------------------
 (6) _putch                                                1     1      0       0
 ---------------------------------------------------------------------------------
 (6) _abs                                                  4     2      2     142
                                             18 COMRAM     4     2      2
                            ___aomod (ARG)
 ---------------------------------------------------------------------------------
 (6) ___aomod                                             18     2     16     448
                                              0 COMRAM    18     2     16
 ---------------------------------------------------------------------------------
 (6) ___aodiv                                             26    10     16     452
                                              0 COMRAM    26    10     16
 ---------------------------------------------------------------------------------
 (3) _LCD_String_xy                                        5     2      3     952
                                              4 COMRAM     5     2      3
                        _LCD_Command
                         _LCD_String
 ---------------------------------------------------------------------------------
 (4) _LCD_String                                           2     0      2     317
                                              2 COMRAM     2     0      2
                           _LCD_Char
 ---------------------------------------------------------------------------------
 (5) _LCD_Char                                             2     2      0      44
                                              0 COMRAM     2     2      0
 ---------------------------------------------------------------------------------
 (1) _LCD_Init                                             1     1      0      44
                                              2 COMRAM     1     1      0
                        _LCD_Command
 ---------------------------------------------------------------------------------
 (4) _LCD_Command                                          2     2      0      44
                                              0 COMRAM     2     2      0
 ---------------------------------------------------------------------------------
 (1) _DatosSensorTH                                        7     5      2     284
                                              2 COMRAM     4     2      2
                _DHT11_CheckResponse
                     _DHT11_ReadData
                        _DHT11_Start
 ---------------------------------------------------------------------------------
 (2) _DHT11_Start                                          1     1      0       0
                                              0 COMRAM     1     1      0
 ---------------------------------------------------------------------------------
 (2) _DHT11_ReadData                                       2     2      0     115
                                              0 COMRAM     2     2      0
 ---------------------------------------------------------------------------------
 (2) _DHT11_CheckResponse                                  0     0      0       0
 ---------------------------------------------------------------------------------
 (1) _DatoDigitadoAEntero                                  9     7      2     694
                                              6 COMRAM     9     7      2
                             ___wmul
 ---------------------------------------------------------------------------------
 (2) ___wmul                                               6     2      4     403
                                              0 COMRAM     6     2      4
 ---------------------------------------------------------------------------------
 (1) _ControlTemperaturaCalefactorVentilador              11     5      6     360
                                              0 COMRAM    11     5      6
                   _ApagarCalefactor
                 _ApagarVentiladores
                  _PrenderCalefactor
                _PrenderVentiladores
 ---------------------------------------------------------------------------------
 (2) _PrenderCalefactor                                    0     0      0       0
 ---------------------------------------------------------------------------------
 (2) _ApagarCalefactor                                     0     0      0       0
 ---------------------------------------------------------------------------------
 (1) _ControlHumedadAspersorVentilador                    11     5      6     360
                                              0 COMRAM    11     5      6
                   _ApagarAspersores
                 _ApagarVentiladores
                  _PrenderAspersores
                _PrenderVentiladores
 ---------------------------------------------------------------------------------
 (2) _PrenderVentiladores                                  0     0      0       0
 ---------------------------------------------------------------------------------
 (2) _PrenderAspersores                                    0     0      0       0
 ---------------------------------------------------------------------------------
 (2) _ApagarVentiladores                                   0     0      0       0
 ---------------------------------------------------------------------------------
 (2) _ApagarAspersores                                     0     0      0       0
 ---------------------------------------------------------------------------------
 (1) _ConfigurarPuertosLCD                                 0     0      0       0
 ---------------------------------------------------------------------------------
 (1) _Comparar_T_H_Adecuados                              19     7     12     932
                                              2 COMRAM    19     7     12
                         _PrenderLed
 ---------------------------------------------------------------------------------
 (2) _PrenderLed                                           2     1      1     164
                                              0 COMRAM     2     1      1
                         _ApagarLeds
 ---------------------------------------------------------------------------------
 (3) _ApagarLeds                                           0     0      0       0
 ---------------------------------------------------------------------------------
 Estimated maximum stack depth 7
 ---------------------------------------------------------------------------------

 Call Graph Graphs:

 _main (ROOT)
   _ApagarAspersores
   _ApagarLeds
   _ApagarVentiladores
   _Comparar_T_H_Adecuados
     _PrenderLed
       _ApagarLeds
   _ConfigurarPuertosLCD
   _ControlHumedadAspersorVentilador
     _ApagarAspersores
     _ApagarVentiladores
     _PrenderAspersores
     _PrenderVentiladores
   _ControlTemperaturaCalefactorVentilador
     _ApagarCalefactor
     _ApagarVentiladores
     _PrenderCalefactor
     _PrenderVentiladores
   _DatoDigitadoAEntero
     ___wmul
   _DatosSensorTH
     _DHT11_CheckResponse
     _DHT11_ReadData
     _DHT11_Start
   _LCD_Init
     _LCD_Command
   _MostrarHumedad
     _LCD_Char
     _LCD_String
       _LCD_Char
     _LCD_String_xy
       _LCD_Command
       _LCD_String
     _sprintf
       _vfprintf
         _vfpfcnvrt
           _dtoa
             ___aodiv
             ___aomod
             _abs
               ___aomod (ARG)
             _pad
               _fputc
                 _putch
               _fputs
                 _fputc
               _strlen
           _fputc
   _MostrarTemperatura
     _LCD_Char
     _LCD_String
     _LCD_String_xy
     _sprintf
   _PedirTodosLosDatos
     _PedirDato
       _LCD_Char
       _LCD_Clear
         _LCD_Command
       _LCD_Command
       _LCD_String_xy
       _keyfind
   _initActuadores
   _initDHT11
   _initTeclado

 Address spaces:
Name               Size   Autos  Total    Cost      Usage
BIGRAM             7FF      0       0      21        0.0%
EEDATA             100      0       0       0        0.0%
BITBANK7           100      0       0      18        0.0%
BANK7              100      0       0      19        0.0%
BITBANK6           100      0       0      16        0.0%
BANK6              100      0       0      17        0.0%
BITBANK5           100      0       0      14        0.0%
BANK5              100      0       0      15        0.0%
BITBANK4           100      0       0      12        0.0%
BANK4              100      0       0      13        0.0%
BITBANK3           100      0       0      10        0.0%
BANK3              100      0       0      11        0.0%
BITBANK2           100      0       0       8        0.0%
BANK2              100      0       0       9        0.0%
BITBANK1           100      0       0       6        0.0%
BANK1              100      0       0       7        0.0%
BITBANK0            A0      0       0       4        0.0%
BANK0               A0      B      5F       5       59.4%
BITCOMRAM           5F      0       0       0        0.0%
COMRAM              5F     5F      5F       1      100.0%
BITSFR               0      0       0     200        0.0%
SFR                  0      0       0     200        0.0%
STACK                0      0       0       2        0.0%
NULL                 0      0       0       0        0.0%
ABS                  0      0      BE      20        0.0%
DATA                 0      0      BE       3        0.0%
CODE                 0      0       0       0        0.0%


Microchip Technology PIC18 Macro Assembler V2.32 build 20210201212658 
Symbol Table                                                                                   Mon Oct 11 23:30:59 2021

                         __size_of_ApagarCalefactor 0004                  Comparar_T_H_Adecuados@TempDigitada 0007  
                                      ?_LCD_Command 0001                                                  l63 1214  
                                                l91 1C64                                                  l94 1C14  
                                                l88 1E06                                 _PrenderVentiladores 1ECA  
                               ___wmul@multiplicand 0003                                         ?_LCD_String 0003  
                       __size_of_ApagarVentiladores 0006                                                 l100 1AC0  
                                               l105 1D28                                                 l122 168E  
                                               l300 1EC2                                                 l108 1E5C  
                                               l116 18AA                                                 l125 1A00  
                                               l222 1B1C                                                 l214 1ACA  
                                               l119 1EE6                                                 l231 1E16  
                                               l240 1D66                                                 l128 1990  
                                               l305 1B70                                                 l225 1EA2  
                                               l330 1E82                                                 l234 1E24  
                                               l307 1B6A                                                 l219 1AFA  
                                               l171 0C3C                                                 l228 1E08  
                                               l252 1EC8                                                 l309 1B72  
                                               l237 1E32                                                 l318 1802  
                                               l166 0BF8                                                 l327 1748  
                                               l175 0C80                                                 l249 1444  
                                               l185 0D4E                                                 l169 0CDA  
                                               l282 1EE0                                                 l194 1920  
                                               l291 1ED4                                                 l179 0CC4  
                                               l444 108A                                                 l285 1EDA  
                                               l197 1EEA                                                 l294 1ECE  
                                               l279 1EBA                                                 l288 1EF2  
                                               l297 1EEE                                                 l457 11EE  
                                               u910 1458                                                 u911 1454  
                                               u920 146A                                                 u921 1466  
                                               u930 1492                                                 u931 148E  
                                               u940 14C8                                                 u941 14C4  
                                               u950 1CA8                                                 u951 1CA4  
                                               u960 1DC6                                                 u961 1DC2  
                                               u970 0F16                                                 u971 0F12  
                                               u980 0F48                                                 u981 0F44  
                                               u991 0F72                                                 _abs 1CAA  
                                               _pad 1510                                                 prod 000FF3  
                                               wreg 000FE8                           PedirTodosLosDatos@Humedad 0017  
                                       LCD_Char@dat 0002                                      PedirDato@tecla 0014  
                              MostrarHumedad@Cadena 00BC                                                l1110 1EF4  
                                              l1040 15D4                                                l2000 0920  
                                              l1008 1BC4                                                l2010 09BE  
                                              l2002 0926                                                l1107 1CA8  
                                              l1035 1556                                                ?_abs 0013  
                                              l1116 1DD2                                                l2020 0A66  
                                              l2012 09C4                                                l2004 092E  
                                              l2100 0EB2                                                l1038 1598  
                                              l2030 0ACC                                                l2022 0A80  
                                              l2014 09CA                                                l2006 0936  
                                              l1046 08F0                                                l2102 0EC0  
                                              l2120 1CFC                                                l2032 0AD2  
                                              l2040 0B08                                                l2024 0A9A  
                                              l2008 093C                                                l2016 0A2E  
                                              l1048 08F8                                                l1080 1A62  
                                              l2200 0CA4                                                l1073 0F02  
                                              l2114 1EBC                                                l2050 1C2C  
                                              l2122 1D04                                                l1066 0B30  
                                              l2034 0AE4                                                l2018 0A48  
                                              l2026 0AAA                                                l2106 0ECC  
                                              l2130 1E34                                                l2202 0CB6  
                                              l2060 1C52                                                l2052 1C2E  
                                              l2044 1C18                                                l2124 1D0E  
                                              l2116 1CEC                                                l1084 1CE0  
                                              l2036 0AF0                                                l2028 0ABC  
                                              l2108 0EF0                                                l2132 1E3A  
                                              l2204 0CBE                                                l2140 0B42  
                                              l2310 1E08                                                l2302 1E84  
                                              l2062 1C54                                                l2054 1C30  
                                              l2046 1C28                                                l2070 1A90  
                                              l2126 1D16                                                l2118 1CEC  
                                              l2038 0AF8                                                l2230 1A02  
                                              l2134 1E48                                                l2222 0D2A  
                                              l2214 0D02                                                l2206 0CDA  
                                              l2150 0B88                                                l2142 0B54  
                                              l1087 1CE8                                                l1079 1A5A  
                                              l2320 1B4A                                                l2312 1B20  
                                              l2240 1ED6                                                l2304 1E88  
                                              l2400 1D56                                                l2056 1C3E  
                                              l2048 1C2A                                                l2064 1A64  
                                              l2128 1D1C                                                l2080 0D98  
                                              l2072 0D50                                                l2232 1A0A  
                                              l2224 0D3C                                                l2216 0D14  
                                              l2208 0CEC                                                l2160 0BCE  
                                              l2152 0B9A                                                l2144 0B6C  
                                              l2136 0B32                                                l2322 1B5A  
                                              l2314 1B24                                                l2410 13C6  
                                              l2402 134A                                                l2330 1EEC  
                                              l2306 1E96                                                l2058 1C50  
                                              l2066 1A68                                                l2090 0E60  
                                              l2082 0DBC                                                l2074 0D74  
                                              l2234 1A18                                                l2170 0C0E  
                                              l2162 0BD4                                                l2154 0BB2  
                                              l2146 0B7C                                                l2138 0B3A  
                                              l2250 182C                                                l2242 1804  
                                              l1099 150E                                                l2316 1B34  
                                              l2412 13FE                                                l2404 1352  
                                              l2420 1782                                                l2324 1EF0  
                                              l2332 1E5E                                                l2308 1EA0  
                                              l2068 1A8C                                                l2092 0E84  
                                              l2084 0DE0                                                l2076 0D82  
                                              l2236 1A3E                                                l2180 0C36  
                                              l2172 0C12                                                l2164 0BD8  
                                              l2156 0BC2                                                l2148 0B80  
                                              l2260 186C                                                l2252 1832  
                                              l2244 1808                                                l2340 1EC4  
                                              l2500 1226                                                l2318 1B44  
                                              l2414 1436                                                l2406 138A  
                                              l2238 1EDC                                                l2326 1ED0  
                                              l2430 17E2                                                l2422 178A  
                                              l2334 1E7A                                                l2350 1DEE  
                                              l2094 0E92                                                l2086 0E28  
                                              l2078 0D94                                                l2270 1B86  
                                              l2190 0C72                                                l2182 0C52  
                                              l2174 0C18                                                l2166 0BEA  
                                              l2158 0BCA                                                l2254 1844  
                                              l2262 1870                                                l2246 181A  
                                              l2342 1EB2                                                l2510 128C  
                                              l2502 124A                                                l2416 143A  
                                              l2408 13C2                                                l2328 1ECA  
                                              l2432 17E6                                                l2424 17C2  
                                              l2440 16C8                                                l2280 1AC2  
                                              l2352 1DF4                                                l2344 1DD4  
                                              l2096 0EA6                                                l2272 1B8E  
                                              l2192 0C7A                                                l2184 0C56  
                                              l2176 0C1C                                                l2168 0BF2  
                                              l2264 188E                                                l2256 1856  
                                              l2248 1820                                                l2360 15D6  
                                              l2520 1308                                                l2504 125E  
                                              l2512 1290                                                l2338 1EE2  
                                              l2434 17F8                                                l2426 17D4  
                                              l2418 174A                                                l2450 1728  
                                              l2442 16DA                                                l2370 18AC  
                                              l2290 1AEC                                                l2354 1DFA  
                                              l2346 1DD8                                                l2274 1B96  
                                              l2194 0C96                                                l2186 0C5C  
                                              l2178 0C2E                                                l2266 18A6  
                                              l2258 185C                                                l2362 15F2  
                                              l2522 131A                                                l2514 129C  
                                              l2506 1272                                                l2436 17FC  
                                              l2428 17D8                                                l2452 172C  
                                              l2444 16DE                                                l2380 1918  
                                              l2372 18BC                                                l2292 1AF4  
                                              l2356 1E00                                                l2348 1DE8  
                                              l1900 108C                                                l2276 1BB2  
                                              l2268 1B74                                                l2460 19AC  
                                              l2196 0C9A                                                l2188 0C60  
                                              l2364 160A                                                l2524 132C  
                                              l2516 12D0                                                l2508 1280  
                                              l2454 173E                                                l2446 16E8  
                                              l2438 1690                                                l2374 18D4  
                                              l2294 1B08                                                l2286 1AD8  
                                              l2390 1D38                                                l1910 10D0  
                                              l1902 1090                                                l1830 1474  
                                              l2462 19BE                                                l2470 1922  
                                              l2198 0CA0                                                l2366 163E  
                                              l2358 1EE8                                                l2518 12EC  
                                              l2456 1742                                                l2448 1720  
                                              l2376 18F0                                                l2296 1B0A  
                                              l2288 1ADE                                                l2392 1D3C  
                                              l2384 1D2A                                                l1920 1138  
                                              l1912 10F0                                                l1904 109E  
                                              l1832 1492                                                l1824 1446  
                                              l1840 1C72                                                l2464 19DA  
                                              l2480 1984                                                l2472 193C  
                                              l2368 165A                                                l2378 190C  
                                              l2298 1B1A                                                l2394 1D42  
                                              l2386 1D2E                                                l1930 11AE  
                                              l1922 1166                                                l1914 110E  
                                              l1906 10BE                                                l1834 14C8  
                                              l1826 1458                                                l1842 1C84  
                                              l1850 1DAE                                                l2466 19E0  
                                              l2458 1992                                                l2474 194E  
                                              l2490 1200                                                l2482 11F0  
                                              l2396 1D46                                                l2388 1D32  
                                              l1860 0F16                                                l1932 11CE  
                                              l1924 1186                                                l1916 1116  
                                              l1908 10C2                                                l1828 146A  
                                              l1844 1C88                                                l1852 1DC6  
                                              l1940 1534                                                l2468 19F4  
                                              l2476 196A                                                l2492 1204  
                                              l2484 11F4                                                l2398 1D4A  
                                              l1870 0F6C                                                l1862 0F36  
                                              l1926 1198                                                l1918 112A  
                                              l1838 1C66                                                l1846 1D9E  
                                              l1950 157A                                                l1942 1542  
                                              l2478 1970                                                l2494 1208  
                                              l2486 11F8                                                l1880 0FC0  
                                              l1872 0F78                                                l1864 0F3A  
                                              l1856 0F04                                                l1928 119E  
                                              l1960 1CC4                                                l1848 1DAA  
                                              l1952 15A8                                                l1944 154E  
                                              l1936 1510                                                l2496 120C  
                                              l2488 11FC                                                l1970 1BDE  
                                              l1962 1BC8                                                l1890 1034  
                                              l1882 0FD2                                                l1874 0F96  
                                              l1866 0F48                                                l1858 0F08  
                                              l1954 15BC                                                l1946 1562  
                                              l1938 1520                                                l2498 1210  
                                              l1980 1C04                                                l1972 1BE0  
                                              l1964 1BD8                                                l1884 1000  
                                              l1876 0F9E                                                l1892 103A  
                                              l1868 0F68                                                l1948 1576  
                                              l1974 1BEE                                                l1966 1BDA  
                                              l1894 104A                                                l1886 1020  
                                              l1878 0FB2                                                l1958 1CAA  
                                              l1990 08C8                                                l1982 0850  
                                              ?_pad 0011                                                l1976 1C00  
                                              l1968 1BDC                                                l1896 106A  
                                              l1888 1022                                                l1992 08CA  
                                              l1984 0870                                                l1978 1C02  
                                              l1994 08E4                                                l1986 0898  
                                              l1996 0900                                                l1988 08B8  
                                              l1998 0912                                                STR_1 0801  
                                              STR_2 0810                                                STR_3 081F  
                                              STR_4 082D                                                STR_5 084B  
                                              STR_6 084A                                                STR_7 0843  
                                              STR_8 084B                                                STR_9 084A  
                                              u1000 0F96                                                u1001 0F92  
                                              u1010 0FC0                                                u1011 0FBC  
                                              u1020 1000                                                u1100 1520  
                                              u1021 0FFC                                                u1101 151C  
                                              u1030 104A                                                u1110 1542  
                                              u1031 1046                                                u1111 153E  
                                              u1040 109E                                                u1120 1598  
                                              u1200 0912                                                u1041 109A  
                                              u1121 1594                                                u1201 090E  
                                              u1050 10D0                                                u1130 15A8  
                                              u1210 0920                                                u1051 10CC  
                                              u1131 15A4                                                u1211 091C  
                                              u1300 1A88                                                u1060 110E  
                                              u1140 1CC4                                                u1220 0A48  
                                              u1061 110A                                                u1141 1CC0  
                                              u1221 0A44                                                u1310 1AB0  
                                              u1070 1138                                                u1230 0A66  
                                              u1150 0880                                                u1071 1134  
                                              u1231 0A62                                                u1151 087A  
                                              u1320 1AC0                                                u1080 1166  
                                              u1240 0A80                                                u1160 0882  
                                              u1400 0B9A                                                u1321 1ABC  
                                              u1081 1162                                                u1241 0A7C  
                                              u1401 0B96                                                u1090 11AE  
                                              u1250 0A9A                                                u1170 0898  
                                              u1330 0D74                                                u1410 0BB2  
                                              u1307 1A7E                                                u1091 11AA  
                                              u1251 0A96                                                u1171 0894  
                                              u1331 0D70                                                u1411 0BAE  
                                              u1260 0AAA                                                u1180 08C8  
                                              u1340 0DBC                                                u1500 0CEC  
                                              u1420 0BEA                                                u1317 1AA6  
                                              u1261 0AA6                                                u1181 08C4  
                                              u1341 0DB8                                                u1501 0CE8  
                                              u1421 0BE6                                                u1270 0ABC  
                                              u1190 08E4                                                u1350 0DE0  
                                              u1510 0D14                                                u1430 0C0A  
                                              _LATB 000F8A                                                u1271 0AB8  
                                              u1191 08E0                                                u1351 0DDC  
                                              u1511 0D10                                                u1431 0C06  
                                              u1600 1B1A                                                u1280 0ACC  
                                              u1360 0E84                                                u1520 0D3C  
                                              u1440 0C2E                                                _LATD 000F8C  
                                              u1601 1B16                                                u1281 0AC8  
                                              u1361 0E80                                                u1521 0D38  
                                              u1441 0C2A                                                u1610 1E16  
                                              u1370 1CFC                                                u1290 0AE4  
                                              u1530 1A5A                                                u1450 0C4E  
                                              u1611 1E12                                                u1371 1CF8  
                                              u1291 0AE0                                                u1531 1A56  
                                              u1451 0C4A                                                u1700 13FE  
                                              u1620 1E24                                                u1460 0C72  
                                              u1380 0B54                                                u1540 1844  
                                              u1701 13FA                                                u1621 1E20  
                                              u1461 0C6E                                                u1381 0B50  
                                              u1541 1840                                                u1710 1436  
                                              u1630 1E32                                                u1470 0C92  
                                              u1390 0B6C                                                u1550 1856  
                                              u1711 1432                                                u1631 1E2E  
                                              u1471 0C8E                                                u1391 0B68  
                                              u1551 1852                                                u1640 1B34  
                                              u1720 1782                                                u1480 0CB6  
                                              u1560 188E                                                u1800 1226  
                                              u1641 1B30                                                u1721 177E  
                                              u1481 0CB2                                                u1561 188A  
                                              u1801 1222                                                u1650 1B44  
                                              u1730 17C2                                                u1570 1AD8  
                                              u1490 0CD6                                                u1651 1B40  
                                              u1731 17BE                                                u1571 1AD4  
                                              u1491 0CD2                                                u1660 1B5A  
                                              u1740 17D4                                                u1580 1AEC  
                                              u1661 1B56                                                u1741 17D0  
                                              u1581 1AE8                                                u1670 1B6A  
                                              u1750 17F8                                                u1590 1B08  
                                              u1671 1B66                                                u1751 17F4  
                                              u1591 1B04                                                u1680 138A  
                                              u1760 16C8                                                u1681 1386  
                                              u1761 16C4                                                u1817 1336  
                                              u1690 13C2                                                u1770 16DA  
                                              u1691 13BE                                                u1771 16D6  
                                              u1907 1BE6                                                u1827 15FC  
                                              u1780 1720                                ?_PrenderVentiladores 0001  
                                              u1781 171C                                                u1917 1C0C  
                                              u1837 1630                                                u1790 173E  
                                              u1791 173A                                                u1927 1DDE  
                                              u1847 1664                                                u1937 1C36  
                                              u1857 1898                                                u1947 1C5C  
                                              u1867 0B72                                                u1957 1E8E  
                                              u1877 0BB8                                                u1967 1E9A  
                                              u1887 1E40                                                u1977 1ADA  
                                              u1897 1E54                                                _RBPU 007F8F  
  ControlTemperaturaCalefactorVentilador@TempActual 0001                            ??_Comparar_T_H_Adecuados 000F  
                                        _ApagarLeds 1EBC                                                abs@a 0013  
                                              _dbuf 0075                                   _PrenderCalefactor 1EEC  
                                              _main 11F0                                                _dtoa 0850  
                                __size_of_LCD_Clear 002A                                                _prec 0064  
                                              _nout 0060                                                pad@i 0018  
                                              pad@p 0015                                                fsr1h 000FE2  
                                              fsr2h 000FDA                                                indf1 000FE7  
                                              indf2 000FDF                                                fsr1l 000FE1  
                                              pad@w 001A                                                fsr2l 000FD9  
                                              prodh 000FF4                                                prodl 000FF3  
                                              start 0000                                  ?_PrenderCalefactor 0001  
                                  ??_DHT11_ReadData 0001                                       _LCD_String_xy 1CEA  
                              __size_of_DHT11_Start 0020                                          PedirDato@i 0012  
                                      ___param_bank 000000                               __end_of_DatosSensorTH 1D68  
                                             ??_abs 0015                                        ?_initTeclado 0001  
                               ??_PrenderCalefactor 0001                                               ??_pad 0017  
                                  __end_of_LCD_Char 1C16                                    __end_of_LCD_Init 1E08  
                                   __end_of___aodiv 108C                                               ?_main 0001  
                                             ?_dtoa 001C                                     __end_of___aomod 11F0  
                                             STR_10 083B                           __size_of_ApagarAspersores 0006  
                                             _LATA0 007C48                                               _LATC0 007C58  
                                             _LATC1 007C59                                               _LATD0 007C60  
                                             _LATC2 007C5A                                               _LATD1 007C61  
                                             _LATE0 007C68                                               _LATE1 007C69  
                                             _LATC6 007C5E                                               _LATE2 007C6A  
                                             _LATC7 007C5F                                        vfpfcnvrt@fmt 0042  
                                             _PORTB 000F81                                               _TRISB 000F93  
                                             _TRISC 000F94                                               _TRISD 000F95  
                                             _TRISE 000F96                                               _Datos 009F  
                             MostrarHumedad@Humedad 00BE                                               _flags 0066  
                                             _fputc 1446                                     __end_of_keyfind 0D50  
                                             _fputs 1C66                                               pad@fp 0011  
                             ??_PrenderVentiladores 0001                                               _width 0062  
                                             _putch 1EF4                                               dtoa@d 001E  
                                             dtoa@i 003E                                               dtoa@n 0036  
                                             dtoa@p 0030                                               dtoa@s 0034  
                                             dtoa@w 0032                           __end_of_PrenderCalefactor 1EF0  
                                             tablat 000FF5               Comparar_T_H_Adecuados@HumedadAdecuada 0015  
                                             status 000FD8                                 __size_of_LCD_String 005E  
                                   __end_of_sprintf 1BC6                       PedirTodosLosDatos@Temperatura 0015  
                                    ?_LCD_String_xy 0005                                   _PrenderAspersores 1ED0  
                                   __initialization 1D68                                        __end_of_main 134A  
                                      __end_of_dtoa 0B32                          __end_of_PedirTodosLosDatos 1690  
                                ?_PrenderAspersores 0001                             __size_of_MostrarHumedad 0070  
                   Comparar_T_H_Adecuados@HumActual 0005                                              ??_main 005E  
                                            ??_dtoa 0026                                   __end_of_LCD_Clear 1E5E  
                               ??_PrenderAspersores 0001                                       __activetblptr 000002  
                           __size_of_initActuadores 000A                                              _ADCON1 000FC1  
                                            ?_fputc 0001                                              ?_fputs 000A  
                                            ?_putch 0001                                 _DHT11_CheckResponse 1E08  
                                  LCD_String_xy@msg 0006                                    LCD_String_xy@pos 0005  
                                  LCD_String_xy@row 0008                                              _OSCCON 000FD3  
                                       ?_ApagarLeds 0001                     __size_of_Comparar_T_H_Adecuados 00FC  
          __end_of_ControlHumedadAspersorVentilador 1804           __size_of_ControlHumedadAspersorVentilador 00BA  
                ??_ControlHumedadAspersorVentilador 0007                   ?_ControlHumedadAspersorVentilador 0001  
                  _ControlHumedadAspersorVentilador 174A                                              _Cadena 0095  
                       __end_of_DatoDigitadoAEntero 1922                                  __size_of_PedirDato 00A8  
                         __end_of_PrenderAspersores 1ED6                                        vfprintf@cfmt 0056  
                                        _PrenderLed 1B1E                                           ??___aodiv 0011  
                                         ??___aomod 0011                                              ___wmul 1E5E  
                                  _ApagarCalefactor 1EF0                                ?_DHT11_CheckResponse 0001  
                                            _keypad 00A7                                          _PrimeraVez 00B3  
                                            clear_0 1D8E                                              isa$std 000001  
                                            pad@buf 0013                                              _rowloc 0073  
                              __size_of_LCD_Command 0050                                              dtoa@fp 001C  
                                            _strlen 1D9E                                              fputc@c 0001  
                                            fputs@c 000E                                              fputs@i 000F  
                                            fputs@s 000A                                           ??_keyfind 0001  
                                      __mediumconst 0000                                              tblptrh 000FF7  
                                            tblptrl 000FF6                                              tblptru 000FF8  
                                            putch@c 0001                                    __end_of_vfprintf 1A64  
                                         ??_sprintf 005E                          __size_of_PrenderCalefactor 0004  
                                 PedirDato@Etiqueta 000A                                           ?_LCD_Char 0001  
                                        __accesstop 0060                             __end_of__initialization 1D94  
                        __end_of_MostrarTemperatura 1992                                           ?_LCD_Init 0001  
                                   ??_LCD_String_xy 0008                        __end_of_ConfigurarPuertosLCD 1EE8  
                                     ___rparam_used 000001                                      __pcstackCOMRAM 0001  
                                      __pidataBANK0 1EA4                               ??_DHT11_CheckResponse 0001  
                                     __end_of_fputc 1510                                       __end_of_fputs 1CAA  
                                     __end_of_putch 1EF6                                        ??_LCD_String 0005  
                            _Comparar_T_H_Adecuados 134A                                __size_of_initTeclado 0004  
                                  _ApagarAspersores 1EDC                                 __size_of_ApagarLeds 0008  
                                 __end_of_PedirDato 18AC                                  DatosSensorTH@Datos 0003  
                                           ??_fputc 0005                                             ??_fputs 000E  
    __end_of_ControlTemperaturaCalefactorVentilador 174A     __size_of_ControlTemperaturaCalefactorVentilador 00BA  
          ??_ControlTemperaturaCalefactorVentilador 0007             ?_ControlTemperaturaCalefactorVentilador 0001  
            _ControlTemperaturaCalefactorVentilador 1690                                  __size_of_initDHT11 0006  
                                           ??_putch 0001                                          __pbssBANK0 0060  
                                        ??_LCD_Char 0001                                          ??_LCD_Init 0003  
                        __size_of_PrenderAspersores 0006                                  __end_of_LCD_String 1AC2  
                                       ?_PrenderLed 0001                                             ?___wmul 0001  
                                    _MostrarHumedad 1992                          __end_of_ApagarVentiladores 1EDC  
   ControlHumedadAspersorVentilador@HumedadDigitada 0003                    Comparar_T_H_Adecuados@TempActual 0003  
                                           ?_strlen 0001                                      _initActuadores 1EB2  
                      DatoDigitadoAEntero@Resultado 000C                                  __size_of_vfpfcnvrt 01B4  
                                     ??_DHT11_Start 0001                                       LCD_String@msg 0003  
                                           _Humedad 00A1                                             __Hparam 0000  
                                           __Lparam 0000                              __end_of_MostrarHumedad 1A02  
                                           ___aodiv 0F04                                             ___aomod 108C  
                                   __size_of___wmul 0026                                           ?_vfprintf 0050  
                                 __end_of_initDHT11 1ECA                                        __psmallconst 0800  
                                       _Temperatura 00A3                                             __pcinit 1D68  
                                           __ramtop 0800                       PrenderLed@TemperaturaAdecuada 0002  
                                           __ptext0 11F0                                             __ptext1 1EE8  
                                           __ptext2 1EC4                                             __ptext3 1EB2  
                                           __ptext4 15D6                                             __ptext5 1804  
                                           __ptext6 0B32                                             __ptext7 1E34  
                                           __ptext8 1922                                             __ptext9 1992  
                            __end_of_initActuadores 1EBC                                             _col_loc 0074  
                                   __size_of_strlen 0036                                        __size_of_abs 0040  
                                      __size_of_pad 00C6                                             _keyfind 0B32  
                       __end_of_PrenderVentiladores 1ED0                                _ConfigurarPuertosLCD 1EE2  
                                _PedirTodosLosDatos 15D6                                           _LCD_Clear 1E34  
                                           _sprintf 1B74                            __end_of_ApagarCalefactor 1EF4  
                               __size_of_PrenderLed 0056                                  PedirDato@CantDatos 000E  
                            __size_of_DatosSensorTH 003E                                end_of_initialization 1D94  
                               ?_PedirTodosLosDatos 0015                                        ??_ApagarLeds 0001  
                                           fputc@fp 0003                                      LCD_Command@cmd 0002  
                                     __Lmediumconst 0000                                             fputs@fp 000C  
                                   ?_MostrarHumedad 00BC                                   __end_of_vfpfcnvrt 0F04  
                               __end_of_DHT11_Start 1EA4                                             postdec1 000FE5  
                                           postdec2 000FDD                                             postinc0 000FEE  
                                           postinc1 000FE6                                             postinc2 000FDE  
                                        ??_vfprintf 0056                                ??_PedirTodosLosDatos 001D  
                                           strlen@a 0003                                             strlen@s 0001  
                                         _PORTAbits 000F80                                     ?_initActuadores 0001  
                           __size_of_DHT11_ReadData 005C                               ?_ConfigurarPuertosLCD 0001  
                                __end_of_ApagarLeds 1EC4                                           _TRISAbits 000F92  
                                        ?_LCD_Clear 0001                                        _MargenErrorH 00A5  
                                      _MargenErrorT 00A6                            __end_of_ApagarAspersores 1EE2  
                    PedirTodosLosDatos@MargenErrorH 001B                      PedirTodosLosDatos@MargenErrorT 0019  
                                 __size_of_LCD_Char 0050                                   __size_of_LCD_Init 0034  
                                DHT11_ReadData@data 0002                             DatosSensorTH@T_Integral 0006  
                           ?_Comparar_T_H_Adecuados 0003                          _VentiladoresEncendidosTemp 0071  
                      __size_of_DatoDigitadoAEntero 0076                                       _DatosSensorTH 1D2A  
                                     ??_LCD_Command 0001  ControlTemperaturaCalefactorVentilador@MargenErrorT 0005  
                                _MostrarTemperatura 1922                                         vfpfcnvrt@ap 0044  
                                       vfpfcnvrt@fp 0040                                         vfpfcnvrt@ll 0048  
                                    __end_of___wmul 1E84                                 ?_MostrarTemperatura 00BC  
                                    __end_of_strlen 1DD4                                 start_initialization 1D68  
                                       __end_of_abs 1CEA                                         __end_of_pad 15D6  
                                         _PedirDato 1804                   Comparar_T_H_Adecuados@HumDigitada 0009  
                                       _DHT11_Start 1E84                         __end_of_DHT11_CheckResponse 1E34  
                              ??_MostrarTemperatura 005E                               __end_of_LCD_String_xy 1D2A  
                 DatoDigitadoAEntero@prmTemperatura 0007                      __end_of_Comparar_T_H_Adecuados 1446  
                                       vfprintf@fmt 0052                                        ??_PrenderLed 0002  
                                    ?_DatosSensorTH 0003                                            ??___wmul 0005  
                                     ??_initTeclado 0001                                         __pdataBANK0 00A7  
                            ??_ConfigurarPuertosLCD 0001                                            ??_strlen 0003  
                               __end_of_LCD_Command 1C66                                       __pcstackBANK0 00B4  
                                  ___aodiv@dividend 0001                                  _ApagarVentiladores 1ED6  
                                       ??_LCD_Clear 0003                                          ?_PedirDato 000A  
                                PedirDato@vecLlenar 000C                                  __end_of_PrenderLed 1B74  
                     MostrarTemperatura@Temperatura 00BE                                 ?_ApagarVentiladores 0001  
                                          ?___aodiv 0001                                            ?___aomod 0001  
                                  ___aodiv@quotient 0013                                ??_ApagarVentiladores 0001  
                                    _DHT11_ReadData 1AC2                                   __size_of_vfprintf 0062  
                                         _initDHT11 1EC4                                         __smallconst 0800  
                               __end_of_initTeclado 1EEC                                            ?_keyfind 0001  
                             LCD_String_xy@location 0009                                            ?_sprintf 0058  
                                    __size_of_fputc 00CA                                      __size_of_fputs 0044  
                                    __size_of_putch 0002                                   ?_ApagarCalefactor 0001  
                                          _LCD_Char 1BC6                                    ??_MostrarHumedad 005E  
                                          _LCD_Init 1DD4                                  ??_ApagarCalefactor 0001  
                                    ___wmul@product 0005                                     ??_DatosSensorTH 0005  
                                  ??_initActuadores 0001                              __end_of_DHT11_ReadData 1B1E  
                                       _LCD_Command 1C16                                           _vfpfcnvrt 0D50  
                                 ___wmul@multiplier 0001                                          ?_initDHT11 0001  
                Comparar_T_H_Adecuados@MargenErrorH 000D                  Comparar_T_H_Adecuados@MargenErrorT 000B  
                                       ??_PedirDato 0010                           _VentiladoresEncendidosHum 0070  
                               _DatoDigitadoAEntero 18AC                                         _INTCON2bits 000FF1  
                                         copy_data0 1D7C                        __size_of_PrenderVentiladores 0006  
                                          _MargenEH 006C                                            _MargenET 006E  
ControlTemperaturaCalefactorVentilador@TempDigitada 0003        ControlHumedadAspersorVentilador@MargenErrorH 0005  
     ControlHumedadAspersorVentilador@HumedadActual 0001                                   ?_ApagarAspersores 0001  
                                          __Hrparam 0000                                  ??_ApagarAspersores 0001  
                                        vfprintf@ap 0054                                            __Lrparam 0000  
                                        vfprintf@fp 0050                            MostrarTemperatura@Cadena 00BC  
                              ?_DatoDigitadoAEntero 0007                                     ?_DHT11_ReadData 0001  
                                       _initTeclado 1EE8                                    __size_of___aodiv 0188  
                                  __size_of___aomod 0164                                          ?_vfpfcnvrt 0040  
                       __size_of_PedirTodosLosDatos 00BA                                     DHT11_ReadData@i 0001  
                                   ___aodiv@divisor 0009                                     ___aodiv@counter 0011  
         Comparar_T_H_Adecuados@TemperaturaAdecuada 0014                                          sprintf@fmt 005A  
                                  __size_of_keyfind 021E                                            _dtoa$958 002E  
                                          __ptext10 1B74                                            __ptext11 1A02  
                                          __ptext20 108C                                            __ptext12 0D50  
                                          __ptext21 0F04                                            __ptext13 0850  
                                          __ptext30 1E08                                            __ptext22 1CEA  
                                          __ptext14 1510                                            __ptext31 18AC  
                                          __ptext23 1A64                                            __ptext15 1D9E  
                                          __ptext40 1EDC                                            __ptext32 1E5E  
                                          __ptext24 1BC6                                            __ptext16 1C66  
                                          __ptext41 1EE2                                            __ptext33 1690  
                                          __ptext25 1DD4                                            __ptext17 1446  
                                          __ptext42 134A                                            __ptext34 1EEC  
                                          __ptext26 1C16                                            __ptext18 1EF4  
                                          __ptext43 1B1E                                            __ptext35 1EF0  
                                          __ptext27 1D2A                                            __ptext19 1CAA  
                                          __ptext44 1EBC                                            __ptext36 174A  
                                          __ptext28 1E84                                            __ptext37 1ECA  
                                          __ptext29 1AC2                                            __ptext38 1ED0  
                                          __ptext39 1ED6                                    __size_of_sprintf 0052  
                          DatosSensorTH@RH_Integral 0005                                       __size_of_main 015A  
                                     __size_of_dtoa 02E2                                        ?_DHT11_Start 0001  
                                          _temp_col 0072                                            isa$xinst 000000  
                             ??_DatoDigitadoAEntero 0009                                            _vfprintf 1A02  
                                        _LCD_String 1A64                           DatoDigitadoAEntero@Decena 000E  
                                  ___aomod@dividend 0001                                         ??_initDHT11 0001  
                                   _HumedadAdecuada 0068                           DatoDigitadoAEntero@Unidad 000A  
                                         sprintf@ap 00B4                           PrenderLed@HumedadAdecuada 0001  
                       __size_of_MostrarTemperatura 0070                        __size_of_DHT11_CheckResponse 002C  
                                   ___aomod@divisor 0009                                         ??_vfpfcnvrt 0046  
                                   ___aomod@counter 0011                                            sprintf@f 00B6  
                                          sprintf@s 0058                                 _TemperaturaAdecuada 006A  
                     __size_of_ConfigurarPuertosLCD 0006                              __size_of_LCD_String_xy 0040  
                                      ___aodiv@sign 0012                                        ___aomod@sign 0012  
